(dp0
(Vfleetwood
p1
tp2
(dp3
Vmac
p4
I2
ss(Vat
p5
tp6
(dp7
Va
p8
I2
sV1213
p9
I2
sVschool
p10
I2
sVfor
p11
I2
sVher
p12
I2
sVthis
p13
I4
sVwork
p14
I2
sVsome
p15
I2
sVall
p16
I2
sVleast
p17
I5
sVbars
p18
I2
sVthe
p19
I5
sVmy
p20
I4
sVachieving
p21
I2
sVfirst
p22
I2
ss(Vcourts
p23
tp24
(dp25
Vi
p26
I2
sVin
p27
I2
ss(Vphones
p28
tp29
(dp30
Vsince
p31
I2
ss(Vit
p32
tp33
(dp34
Vand
p35
I3
sV
p36
I3
sVall
p37
I3
sVbecause
p38
I3
sVjust
p39
I2
sVwasnt
p40
I2
sVis
p41
I9
sVout
p42
I2
sVback
p43
I2
sVhelped
p44
I2
sVdoesnt
p45
I2
sVdone
p46
I2
sVchanges
p47
I2
sVin
p48
I3
sVstill
p49
I3
sVreally
p50
I2
sVeven
p51
I2
sVplays
p52
I2
sVburning
p53
I2
sValso
p54
I2
sVjustice
p55
I4
sVplease
p56
I2
sVshould
p57
I2
sVto
p58
I2
sVdoes
p59
I2
sVgot
p60
I2
sVhas
p61
I4
sVwas
p62
I8
sVover
p63
I2
sVbelongs
p64
I3
sVstanding
p65
I2
sVused
p66
I2
sVdeeper
p67
I2
sVthat
p68
I2
sVmay
p69
I2
sVtook
p70
I2
sVbut
p71
I3
sVlowered
p72
I2
sVuses
p73
I2
sVmakes
p74
I2
sVoff
p75
I2
sVdrinking
p76
I2
sVnow
p77
I2
sVforever
p78
I2
sVgets
p79
I2
sVlikes
p80
I2
sVespecially
p81
I2
sVi
p82
I2
sVmight
p83
I2
sVleaves
p84
I2
sVup
p85
I3
sVexpecting
p86
I2
sVwere
p87
I2
sVincluding
p88
I2
sVthe
p89
I2
sVslightly
p90
I2
sVcould
p91
I2
sVcomes
p92
I2
sVat
p93
I2
ss(Vgo
p94
tp95
(dp96
Vschuuulp
p97
I2
sVfigure
p98
I2
sVon
p99
I2
sVinto
p100
I4
sVfuck
p101
I2
sVup
p102
I2
sVto
p103
I7
sVwith
p104
I2
ss(Vdoes
p105
tp106
(dp107
Vthis
p108
I2
sVa
p109
I2
sVhis
p110
I2
sVnothing
p111
I2
ss(Vknee
p112
tp113
(dp114
Vlength
p115
I2
ss(V80
p116
tp117
(dp118
Vpercent
p119
I2
ss(Vnow
p120
tp121
(dp122
Vfaced
p123
I2
sVand
p124
I2
sVnone
p125
I2
sVbecause
p126
I2
sVhes
p127
I2
sVi
p128
I3
sVwork
p129
I2
sVpaying
p130
I2
sVthey
p131
I2
sVin
p132
I2
sVwith
p133
I2
sVhe
p134
I2
ss(Vcurrently
p135
tp136
(dp137
Va
p138
I2
sVgoing
p139
I2
sVgetting
p140
I2
ss(Vzero
p141
tp142
(dp143
Vof
p144
I2
ss(Vo
p145
tp146
(dp147
Vzaman
p148
I2
ss(g46
tp149
(dp150
Vand
p151
I2
sVfor
p152
I2
sVit
p153
I2
sVwithout
p154
I2
sVnothing
p155
I2
sVthe
p156
I2
ss(Vowes
p157
tp158
(dp159
Veveryone
p160
I2
ss(Vchild
p161
tp162
(dp163
g36
I4
sVtale
p164
I2
sVwas
p165
I3
sVreplies
p166
I4
ss(Vaccomplish
p167
tp168
(dp169
Va
p170
I2
ss(Vdies
p171
tp172
(dp173
Vand
p174
I2
ss(Vreoccurring
p175
tp176
(dp177
Vdreams
p178
I7
ss(Vfathers
p179
tp180
(dp181
Vday
p182
I3
ss(Vpunch
p183
tp184
(dp185
Vfrom
p186
I2
ss(Vslap
p187
tp188
(dp189
Vmy
p190
I2
ss(Vbeatings
p191
tp192
(dp193
Vand
p194
I2
ss(Vcommon
p195
tp196
(dp197
Vreddit
p198
I2
sVwith
p199
I2
ss(Vway
p200
tp201
(dp202
Vless
p203
I2
sVi
p204
I2
sVit
p205
I2
sVto
p206
I3
sVyou
p207
I2
sVwith
p208
I2
sVmore
p209
I2
ss(Vbaln
p210
tp211
(dp212
Vyalova
p213
I2
ss(Vcar
p214
tp215
(dp216
Vand
p217
I2
sVaccident
p218
I2
sVid
p219
I2
sVseats
p220
I2
ss(Vif
p221
tp222
(dp223
Vthe
p224
I2
sVeveryone
p225
I2
sVanchorwomen
p226
I2
sVi
p227
I3
sVyoure
p228
I2
sVit
p229
I6
sVits
p230
I2
sVthis
p231
I2
sVtrumps
p232
I2
sVthey
p233
I3
sVneed
p234
I2
sVclinton
p235
I2
sVyou
p236
I13
sVyour
p237
I2
sVthats
p238
I2
ss(Vlater
p239
tp240
(dp241
Vand
p242
I2
sValways
p243
I2
sVa
p244
I2
ss(Vestate
p245
tp246
(dp247
Vlaw
p248
I2
ss(Vmeaning
p249
tp250
(dp251
Vindependent
p252
I2
sVin
p253
I2
ss(Vpopulous
p254
tp255
(dp256
Vof
p257
I2
ss(Vpull
p258
tp259
(dp260
Voff
p261
I2
ss(Vforeplay
p262
tp263
(dp264
Vno
p265
I3
ss(Valthough
p266
tp267
(dp268
Vapparently
p269
I2
ss(Vtrustworthy
p270
tp271
(dp272
Vone
p273
I2
ss(Vtill
p274
tp275
(dp276
Vthe
p277
I2
ss(Vfreezing
p278
tp279
(dp280
Vwindchilled
p281
I2
sVfreezing
p282
I2
ss(Vcreated
p283
tp284
(dp285
Vthis
p286
I2
ss(Vpizzas
p287
tp288
(dp289
Vbefore
p290
I2
ss(Veveryone
p291
tp292
(dp293
Valready
p294
I2
sVi
p295
I2
sVis
p296
I2
sVelse
p297
I2
sVdoing
p298
I2
sVcan
p299
I2
sVin
p300
I2
sVhas
p301
I2
sVout
p302
I2
ss(Vextreme
p303
tp304
(dp305
Va
p306
I2
ss(Vcells
p307
tp308
(dp309
Vand
p310
I2
sVwhich
p311
I2
ss(Vepisodes
p312
tp313
(dp314
Vduring
p315
I2
ss(Vcollege
p316
tp317
(dp318
Vand
p319
I2
sVx
p320
I2
sVbecause
p321
I2
sVor
p322
I2
sVthat
p323
I2
ss(Vlegitimate
p324
tp325
(dp326
Vfear
p327
I2
ss(Vthrown
p328
tp329
(dp330
Vin
p331
I2
ss(Vhappen
p332
tp333
(dp334
Vvery
p335
I2
sVany
p336
I2
ss(Vbusy
p337
tp338
(dp339
Vthey
p340
I2
ss(Vmath
p341
tp342
(dp343
Vreading
p344
I2
sVteacher
p345
I2
ss(Vpredator
p346
tp347
(dp348
Vwhile
p349
I2
ss(Vcombine
p350
tp351
(dp352
Vwith
p353
I2
ss(Vtotally
p354
tp355
(dp356
Vworth
p357
I2
sVcool
p358
I2
ss(Vcelebrate
p359
tp360
(dp361
Vhis
p362
I2
ss(Vstarts
p363
tp364
(dp365
Voff
p366
I2
ss(Vdisc
p367
tp368
(dp369
Vin
p370
I2
ss(Vper
p371
tp372
(dp373
Vcourt
p374
I2
sVrule
p375
I2
ss(Vbillionaires
p376
tp377
(dp378
Vwho
p379
I2
ss(Vmouth
p380
tp381
(dp382
Vopen
p383
I2
ss(Vtheyre
p384
tp385
(dp386
Vvery
p387
I2
sVpink
p388
I2
sVsubjective
p389
I2
sg120
I2
sVa
p390
I2
ss(Vexpect
p391
tp392
(dp393
Vto
p394
I2
ss(Vtrash
p395
tp396
(dp397
Vand
p398
I2
sVon
p399
I2
ss(Vthey
p400
tp401
(dp402
Vmeant
p403
I2
sVdo
p404
I2
sVhide
p405
I2
sVlove
p406
I2
sVdont
p407
I4
sVjust
p408
I2
sVget
p409
I2
sVdid
p410
I3
sVdie
p411
I2
sVlooked
p412
I2
sVoppose
p413
I2
sVare
p414
I3
sVhave
p415
I3
sVwere
p416
I5
sVpedal
p417
I2
sVseem
p418
I2
sVpretty
p419
I2
sVdidnt
p420
I2
ss(g97
tp421
(dp422
Vand
p423
I2
ss(Vconsidering
p424
tp425
(dp426
Vbut
p427
I2
ss(Vgroup
p428
tp429
(dp430
Vwill
p431
I4
sVgrows
p432
I2
ss(Vtold
p433
tp434
(dp435
Vme
p436
I3
sVto
p437
I2
sVmy
p438
I2
sVus
p439
I2
ss(Vcenter
p440
tp441
(dp442
Vof
p443
I3
ss(Vlarge
p444
tp445
(dp446
Vhouse
p447
I2
ss(Vmortgage
p448
tp449
(dp450
Vor
p451
I2
ss(Vneeded
p452
tp453
(dp454
Vthe
p455
I2
sVsince
p456
I2
ss(Vhot
p457
tp458
(dp459
Vso
p460
I2
sVin
p461
I2
ss(Vamerican
p462
tp463
(dp464
Vthanksgiving
p465
I2
ss(Vdiscover
p466
tp467
(dp468
Vits
p469
I2
ss(Vone
p470
tp471
(dp472
Vwas
p473
I2
sVi
p474
I2
sVof
p475
I7
sVis
p476
I2
sVarea
p477
I2
sVconvo
p478
I2
sVwill
p479
I2
sVthing
p480
I2
sVthat
p481
I2
sVcould
p482
I2
sVminute
p483
I2
sVtime
p484
I2
sVnotices
p485
I2
sVcollege
p486
I2
sVever
p487
I2
sVday
p488
I2
sVsimple
p489
I2
sVseems
p490
I2
ss(Vive
p491
tp492
(dp493
Vtried
p494
I4
sVjust
p495
I2
sVmaybe
p496
I3
sVbeen
p497
I3
sVmet
p498
I2
sVgot
p499
I2
sVreally
p500
I2
ss(Vpatches
p501
tp502
(dp503
Vand
p504
I2
ss(Villegal
p505
tp506
(dp507
Vover
p508
I2
sVimmigration
p509
I2
ss(Vhacky
p510
tp511
(dp512
Vand
p513
I2
ss(Vconfidence
p514
tp515
(dp516
Vand
p517
I2
sVskyrockets
p518
I2
ss(Vnostalgia
p519
tp520
(dp521
Vdoesnt
p522
I2
ss(Vchewing
p523
tp524
(dp525
Vwith
p526
I2
ss(Vpsych
p527
tp528
(dp529
Vnice
p530
I2
ss(Vmad
p531
tp532
(dp533
Vhe
p534
I2
ss(Vfood
p535
tp536
(dp537
Vnetflix
p538
I2
sVoff
p539
I2
sVout
p540
I2
ss(Vword
p541
tp542
(dp543
Vsora
p544
I2
sVmeans
p545
I2
ss(Vlikely
p546
tp547
(dp548
Vto
p549
I5
sVsince
p550
I2
sVbased
p551
I2
ss(Vlive
p552
tp553
(dp554
Vin
p555
I2
ss(Vpicking
p556
tp557
(dp558
Vup
p559
I2
ss(Vpsychopath
p560
tp561
(dp562
Vi
p563
I2
ss(Vtrue
p564
tp565
(dp566
Vwomanhood
p567
I2
sVjust
p568
I2
sVfact
p569
I3
sVpossibly
p570
I2
ss(Vprince
p571
tp572
(dp573
Vsounds
p574
I2
ss(Vfriends
p575
tp576
(dp577
Veasily
p578
I2
sVno
p579
I2
sVhouse
p580
I2
sVis
p581
I2
sVfianceswives
p582
I2
sVgot
p583
I2
sVwhite
p584
I2
ss(Vmurder
p585
tp586
(dp587
Vof
p588
I2
sVwhere
p589
I2
ss(Vdrinks
p590
tp591
(dp592
Vat
p593
I3
ss(Vcompletely
p594
tp595
(dp596
Vinvisible
p597
I2
sVthough
p598
I2
ss(g578
tp599
(dp600
Vand
p601
I2
ss(Vbathroom
p602
tp603
(dp604
Vjust
p605
I2
ss(Vcountry
p606
tp607
(dp608
Vhe
p609
I2
ss(Vconscious
p610
tp611
(dp612
Vbut
p613
I2
ss(Vexpects
p614
tp615
(dp616
Vfull
p617
I2
ss(Vms
p618
tp619
(dp620
Vand
p621
I2
ss(V400000
p622
tp623
(dp624
Vfollicle
p625
I2
sVeggs
p626
I2
ss(Vspirit
p627
tp628
(dp629
g384
I2
ss(Vgreater
p630
tp631
(dp632
Vphysical
p633
I2
ss(Vpersonally
p634
tp635
(dp636
Vdid
p637
I2
sVfeel
p638
I2
ss(Vhair
p639
tp640
(dp641
Vthis
p642
I2
sg36
I2
sVlooks
p643
I2
ss(Vpolicy
p644
tp645
(dp646
Vwith
p647
I2
ss(Vposition
p648
tp649
(dp650
Vhere
p651
I2
ss(Vcharacter
p652
tp653
(dp654
Vof
p655
I2
ss(Vgamble
p656
tp657
(dp658
Vbut
p659
I2
ss(Vhistory
p660
tp661
(dp662
Von
p663
I2
sVbutton
p664
I2
sVin
p665
I2
ss(Vabusive
p666
tp667
(dp668
Vrelationships
p669
I2
sVones
p670
I2
ss(Vpose
p671
tp672
(dp673
Vthe
p674
I2
ss(Vhindsight
p675
tp676
(dp677
Vthink
p678
I2
ss(Vcheckboxes
p679
tp680
(dp681
Vfor
p682
I2
ss(Vtotal
p683
tp684
(dp685
Vive
p686
I2
ss(Vholding
p687
tp688
(dp689
Va
p690
I2
sVup
p691
I2
ss(Vtells
p692
tp693
(dp694
Vme
p695
I2
ss(Vmaybe
p696
tp697
(dp698
V10
p699
I2
sVhes
p700
I2
sVhad
p701
I3
sV5
p702
I2
sVeither
p703
I2
sVnot
p704
I2
sV95
p705
I2
ss(Vbefore
p706
tp707
(dp708
Vand
p709
I2
sVim
p710
I2
sVthat
p711
I2
ss(Vhusbands
p712
tp713
(dp714
Vmother
p715
I2
ss(Vcommunicating
p716
tp717
(dp718
Vyou
p719
I2
ss(Vzapped
p720
tp721
(dp722
Vbut
p723
I2
ss(Vmoving
p724
tp725
(dp726
Vaway
p727
I2
ss(Vsiblings
p728
tp729
(dp730
Vwent
p731
I2
ss(Vsomething
p732
tp733
(dp734
Vand
p735
I2
sVive
p736
I2
sVgreat
p737
I2
sVelse
p738
I2
sVto
p739
I4
sVthey
p740
I2
ss(Vchiseled
p741
tp742
(dp743
Vjaw
p744
I2
ss(Vnice
p745
tp746
(dp747
Vi
p748
I2
sVhair
p749
I2
sVwell
p750
I2
sVbut
p751
I2
sVpeople
p752
I2
ss(Vtopless
p753
tp754
(dp755
Vin
p756
I2
ss(Vpermitted
p757
tp758
(dp759
Vpermeated
p760
I2
sVin
p761
I4
ss(Vhaircuts
p762
tp763
(dp764
Vmy
p765
I2
ss(Vfires
p766
tp767
(dp768
Vand
p769
I2
sVwhen
p770
I7
ss(Vtest
p771
tp772
(dp773
Vit
p774
I2
ss(Vexperience
p775
tp776
(dp777
Vyou
p778
I4
sVwhat
p779
I2
ss(Vremembered
p780
tp781
(dp782
Vwas
p783
I2
sVany
p784
I2
ss(Vlower
p785
tp786
(dp787
Vback
p788
I3
sVbc
p789
I2
ss(Vbeing
p790
tp791
(dp792
Va
p793
I2
sVon
p794
I2
sVgiven
p795
I2
sVyoga
p796
I2
sVelsewhere
p797
I2
sVfucking
p798
I2
sVable
p799
I2
sVproduced
p800
I2
sg594
I2
sVabsurd
p801
I2
sVin
p802
I2
sVthe
p803
I2
ss(Vsaid
p804
tp805
(dp806
Vthe
p807
I4
sVit
p808
I2
sVanything
p809
I3
ss(Vfirst
p810
tp811
(dp812
Vhour
p813
I4
sVone
p814
I2
sVperson
p815
I4
sVjob
p816
I2
sVbirthday
p817
I2
sVglance
p818
I2
ss(g809
tp819
(dp820
Vand
p821
I3
sVlike
p822
I2
sVdepraved
p823
I2
sVso
p824
I2
sVby
p825
I2
sVif
p826
I2
ss(Vnoises
p827
tp828
(dp829
Vsuch
p830
I2
ss(Vgrabbed
p831
tp832
(dp833
Vmy
p834
I2
ss(Vgravity
p835
tp836
(dp837
Vis
p838
I2
sVwomens
p839
I2
ss(Velse
p840
tp841
(dp842
Va
p843
I2
sVto
p844
I2
sVdoesnt
p845
I2
sVby
p846
I2
ss(g703
tp847
(dp848
Vgender
p849
I2
sVis
p850
I2
sVbike
p851
I2
sVthat
p852
I2
ss(Vexplaining
p853
tp854
(dp855
Va
p856
I2
sVeverything
p857
I2
ss(Vooo
p858
tp859
(dp860
Va
p861
I2
ss(g228
tp862
(dp863
Va
p864
I2
sVtwisting
p865
I2
ss(Vplease
p866
tp867
(dp868
Vcontact
p869
I5
sVhelp
p870
I2
ss(Vthat
p871
tp872
(dp873
Vand
p874
I2
sV10k
p875
I2
sVall
p876
I2
sVwould
p877
I2
sVpeople
p878
I2
sVphysically
p879
I2
sVenergy
p880
I2
sVone
p881
I3
sVtexts
p882
I2
sVattitude
p883
I2
sVdoesnt
p884
I2
sVim
p885
I2
sVare
p886
I4
sVhave
p887
I4
sVsense
p888
I2
sVannoying
p889
I2
sVgeorge
p890
I2
sVshit
p891
I2
sVshe
p892
I2
sVhed
p893
I2
sVhe
p894
I3
sVviolate
p895
I4
sVfor
p896
I2
sVarguments
p897
I2
sVthere
p898
I3
sVgift
p899
I2
sVactually
p900
I2
sVbetter
p901
I2
sVcase
p902
I2
sVmuch
p903
I2
sVhelps
p904
I2
sVgoes
p905
I2
sVcauses
p906
I2
sVdepartment
p907
I2
sVinstead
p908
I2
sVyou
p909
I2
sVhas
p910
I2
sVcause
p911
I2
sVachieving
p912
I2
sVmutation
p913
I2
sVthen
p914
I2
sVsomeone
p915
I2
sVmeans
p916
I2
sVconvinces
p917
I2
sVbut
p918
I2
sVtuition
p919
I2
sVby
p920
I2
sVjob
p921
I2
sVevery
p922
I2
sVhoodie
p923
I2
sVauthors
p924
I2
sVmight
p925
I2
sVgoogle
p926
I2
sVday
p927
I2
sVis
p928
I2
sVtakes
p929
I2
sVa
p930
I3
sVkind
p931
I2
sVstuff
p932
I3
sVputs
p933
I2
sVshowed
p934
I2
sVi
p935
I6
sVpaints
p936
I2
sVshes
p937
I2
sVbad
p938
I2
sVher
p939
I2
sVguy
p940
I2
sVarent
p941
I4
sVman
p942
I2
sVnight
p943
I2
sVthe
p944
I10
sVop
p945
I2
sVmy
p946
I2
sVor
p947
I3
sVlikes
p948
I2
ss(Vwrong
p949
tp950
(dp951
Vim
p952
I2
ss(Vlong
p953
tp954
(dp955
Vago
p956
I2
sVas
p957
I3
sVit
p958
I2
ss(Vevery
p959
tp960
(dp961
Vmonday
p962
I2
sVtime
p963
I3
sVpresident
p964
I2
sVday
p965
I3
sVpresidential
p966
I2
sVman
p967
I2
ss(g388
tp968
(dp969
Vor
p970
I2
ss(Vwool
p971
tp972
(dp973
Vits
p974
I2
ss(g923
tp975
(dp976
Vand
p977
I2
ss(Vnurse
p978
tp979
(dp980
Vtold
p981
I2
ss(Vsupposedly
p982
tp983
(dp984
Vequal
p985
I2
ss(Vdrugs
p986
tp987
(dp988
Vthe
p989
I2
sVor
p990
I2
sVonce
p991
I2
ss(Vgirlfriend
p992
tp993
(dp994
Valways
p995
I2
sVnah
p996
I2
ss(Vhuman
p997
tp998
(dp999
Vbefore
p1000
I2
ss(Vsad
p1001
tp1002
(dp1003
Vand
p1004
I2
sVshit
p1005
I2
ss(Vcute
p1006
tp1007
(dp1008
Vgiven
p1009
I2
ss(Vintroduce
p1010
tp1011
(dp1012
Vyou
p1013
I2
ss(Vrate
p1014
tp1015
(dp1016
Von
p1017
I2
sg116
I2
sVmonitor
p1018
I2
ss(Vgive
p1019
tp1020
(dp1021
Va
p1022
I3
sVthem
p1023
I2
sVfree
p1024
I2
ss(Vtaken
p1025
tp1026
(dp1027
Vout
p1028
I2
ss(Vfeeling
p1029
tp1030
(dp1031
Vit
p1032
I2
ss(Vplanting
p1033
tp1034
(dp1035
Vthe
p1036
I2
ss(Vmight
p1037
tp1038
(dp1039
Vpush
p1040
I2
sVbe
p1041
I3
sVstill
p1042
I2
sVnot
p1043
I2
sVhave
p1044
I2
ss(Vyours
p1045
tp1046
(dp1047
Vfor
p1048
I2
ss(Vattempt
p1049
tp1050
(dp1051
Vto
p1052
I2
sVat
p1053
I2
ss(V100lb
p1054
tp1055
(dp1056
Vbags
p1057
I2
ss(Vsocks
p1058
tp1059
(dp1060
Vsometimes
p1061
I2
ss(g919
tp1062
(dp1063
Vso
p1064
I2
ss(Vworked
p1065
tp1066
(dp1067
Vthere
p1068
I2
ss(Vall
p1069
tp1070
(dp1071
Vabout
p1072
I2
sVgood
p1073
I2
sVjust
p1074
I2
sVfor
p1075
I2
sg871
I2
sVthese
p1076
I2
sVof
p1077
I2
sVover
p1078
I2
sVi
p1079
I3
sVraces
p1080
I2
sVmarriage
p1081
I2
sVthey
p1082
I2
sVwere
p1083
I2
sVso
p1084
I2
sVthe
p1085
I9
sVtrue
p1086
I2
sVclear
p1087
I2
ss(Vcaricatures
p1088
tp1089
(dp1090
Vof
p1091
I2
ss(g178
tp1092
(dp1093
Vabout
p1094
I7
ss(Vdonor
p1095
tp1096
(dp1097
Vand
p1098
I3
ss(Vwoah
p1099
tp1100
(dp1101
Vthis
p1102
I2
ss(Vseems
p1103
tp1104
(dp1105
Vto
p1106
I2
sVlike
p1107
I2
sVunlikely
p1108
I2
ss(Vnature
p1109
tp1110
(dp1111
Vof
p1112
I2
ss(Vvouch
p1113
tp1114
(dp1115
Vfor
p1116
I2
ss(Vbakan
p1117
tp1118
(dp1119
Vmustafa
p1120
I2
ss(Vwords
p1121
tp1122
(dp1123
Vof
p1124
I3
sVas
p1125
I2
sVdont
p1126
I2
ss(Vparties
p1127
tp1128
(dp1129
Vlike
p1130
I2
ss(Vdamaged
p1131
tp1132
(dp1133
Vmy
p1134
I2
ss(Vcompany
p1135
tp1136
(dp1137
Vwith
p1138
I2
ss(Vfor
p1139
tp1140
(dp1141
Vall
p1142
I2
sVclinton
p1143
I2
sVis
p1144
I2
sVboth
p1145
I2
sVcheap
p1146
I2
sVit
p1147
I4
sVyears
p1148
I3
sVsympathy
p1149
I2
sVvideo
p1150
I2
sVin
p1151
I2
sVour
p1152
I2
sVseattle
p1153
I2
sVyour
p1154
I6
sVphysical
p1155
I2
sVwhat
p1156
I3
sVstill
p1157
I2
sVno
p1158
I2
sVgranted
p1159
I3
sVthree
p1160
I2
sVany
p1161
I2
sVpotential
p1162
I2
sV6
p1163
I2
sVyou
p1164
I2
sVpublic
p1165
I2
sVworkplace
p1166
I2
sVme
p1167
I5
sVthem
p1168
I4
sg585
I2
sVbuilding
p1169
I2
sVbusiness
p1170
I2
sVthat
p1171
I2
sVsome
p1172
I2
sVcoke
p1173
I2
sVmen
p1174
I2
sVabout
p1175
I2
sVnot
p1176
I3
sVpresident
p1177
I2
sVguys
p1178
I2
sVhim
p1179
I3
sVa
p1180
I6
sVchristmas
p1181
I2
sVmyself
p1182
I2
sVanything
p1183
I2
sVtalking
p1184
I2
sVthis
p1185
I2
sVfartbasedbacktweaking
p1186
I2
sVthanksgiving
p1187
I2
sVexample
p1188
I8
sVeither
p1189
I2
sVthe
p1190
I12
sVmy
p1191
I2
sVhaving
p1192
I2
ss(Vsketchy
p1193
tp1194
(dp1195
Vdetails
p1196
I2
ss(Vbook
p1197
tp1198
(dp1199
Vcompletly
p1200
I2
sVcalled
p1201
I2
sVcharacters
p1202
I2
ss(Vuhh
p1203
tp1204
(dp1205
Vi
p1206
I2
ss(Vknowing
p1207
tp1208
(dp1209
Vid
p1210
I2
ss(Vcartoon
p1211
tp1212
(dp1213
Vyoull
p1214
I2
ss(Vskills
p1215
tp1216
(dp1217
Vi
p1218
I2
ss(Vwarm
p1219
tp1220
(dp1221
Vdammit
p1222
I2
ss(Vtogether
p1223
tp1224
(dp1225
Vand
p1226
I2
sVagain
p1227
I2
sVthe
p1228
I2
ss(Vgreat
p1229
tp1230
(dp1231
Vlessons
p1232
I2
sVfor
p1233
I2
sVpower
p1234
I2
sVmovie
p1235
I2
sVadvice
p1236
I2
sg1211
I2
sVstuff
p1237
I2
sVim
p1238
I2
sVdelegating
p1239
I2
sVwith
p1240
I2
sVits
p1241
I2
ss(Vreasons
p1242
tp1243
(dp1244
Vone
p1245
I2
ss(Vronda
p1246
tp1247
(dp1248
Vrousey
p1249
I2
ss(Vblind
p1250
tp1251
(dp1252
Vcompared
p1253
I2
ss(Vnarrative
p1254
tp1255
(dp1256
Vin
p1257
I2
ss(Vable
p1258
tp1259
(dp1260
Vto
p1261
I6
ss(Vgovernment
p1262
tp1263
(dp1264
Vby
p1265
I2
ss(Vincident
p1266
tp1267
(dp1268
Vnot
p1269
I2
ss(Vservice
p1270
tp1271
(dp1272
Vhas
p1273
I2
sVnow
p1274
I2
ss(Vthanks
p1275
tp1276
(dp1277
Vfor
p1278
I4
ss(Vscheme
p1279
tp1280
(dp1281
Vof
p1282
I2
ss(Vimmune
p1283
tp1284
(dp1285
Vto
p1286
I2
ss(Vonto
p1287
tp1288
(dp1289
Vmy
p1290
I2
ss(Vskirts
p1291
tp1292
(dp1293
Vthat
p1294
I2
ss(Vcourt
p1295
tp1296
(dp1297
Vand
p1298
I2
sVhandled
p1299
I2
sVin
p1300
I2
ss(Vwore
p1301
tp1302
(dp1303
Vactivewear
p1304
I2
ss(Vcollared
p1305
tp1306
(dp1307
Vshirt
p1308
I2
ss(Vinsanely
p1309
tp1310
(dp1311
Vwet
p1312
I2
ss(Vanyway
p1313
tp1314
(dp1315
Vjust
p1316
I2
ss(Vtake
p1317
tp1318
(dp1319
Va
p1320
I3
sVat
p1321
I2
ss(Vreal
p1322
tp1323
(dp1324
g245
I2
ss(Vi
p1325
tp1326
(dp1327
Vjust
p1328
I7
sVswitched
p1329
I2
sVrespectfully
p1330
I2
sVstill
p1331
I2
sVgilded
p1332
I2
sVenvy
p1333
I2
sVcried
p1334
I2
sVhated
p1335
I2
sVhad
p1336
I11
sVactually
p1337
I4
sVonly
p1338
I2
sVmust
p1339
I3
sVmight
p1340
I2
sVhope
p1341
I2
sVdo
p1342
I4
sVget
p1343
I4
sVknow
p1344
I12
sVsupposed
p1345
I2
sVnow
p1346
I2
sVdid
p1347
I3
sVshouldnt
p1348
I2
sVwish
p1349
I2
sVhavent
p1350
I2
sVtold
p1351
I2
sVmean
p1352
I2
sVsee
p1353
I4
sVdecided
p1354
I3
sVwitness
p1355
I2
sVreally
p1356
I3
sVeven
p1357
I2
sVgot
p1358
I6
sVbought
p1359
I2
sg780
I2
sVnever
p1360
I2
sVwear
p1361
I4
sVimagine
p1362
I2
sVwanted
p1363
I4
sVwent
p1364
I2
sVfigured
p1365
I2
sVcarried
p1366
I2
sVcould
p1367
I4
sVkeep
p1368
I2
sVthink
p1369
I9
sVliked
p1370
I2
sVlove
p1371
I7
sVdont
p1372
I15
sVfeel
p1373
I4
sVwould
p1374
I11
sVagree
p1375
I3
sVneeded
p1376
I2
sg552
I2
sVwas
p1377
I16
sVmisunderstood
p1378
I2
sVstarted
p1379
I2
sVtook
p1380
I2
sVunderstand
p1381
I2
sg634
I3
sg1065
I2
sVeat
p1382
I2
sVposted
p1383
I2
sVmade
p1384
I2
sVrecall
p1385
I3
sVwork
p1386
I3
sVguessbut
p1387
I2
sVcan
p1388
I4
sVdidnt
p1389
I5
sVstudy
p1390
I2
sVhave
p1391
I7
sVrecognize
p1392
I2
sVam
p1393
I8
sVcant
p1394
I3
sVwant
p1395
I6
sVlooked
p1396
I2
sg1131
I2
sVpay
p1397
I2
sVmake
p1398
I2
sVcross
p1399
I2
sg771
I2
sVwonder
p1400
I2
sVused
p1401
I4
sVfelt
p1402
I4
sVpaid
p1403
I2
sVlent
p1404
I2
sVfrequently
p1405
I2
sVdied
p1406
I7
sVrealized
p1407
I2
sVremember
p1408
I2
sVthought
p1409
I2
sVtalk
p1410
I2
ss(Vhelp
p1411
tp1412
(dp1413
Vat
p1414
I2
sVit
p1415
I2
ss(Vthere
p1416
tp1417
(dp1418
Vthank
p1419
I2
sVfor
p1420
I2
sVis
p1421
I6
sVin
p1422
I2
sVit
p1423
I2
sVare
p1424
I7
sVwere
p1425
I2
sVhas
p1426
I2
sVwas
p1427
I3
sVyour
p1428
I2
sVthats
p1429
I2
ss(Vcreator
p1430
tp1431
(dp1432
Vand
p1433
I2
ss(Vharrowing
p1434
tp1435
(dp1436
Vdays
p1437
I2
ss(Vlast
p1438
tp1439
(dp1440
Vthing
p1441
I2
sVcouple
p1442
I2
sVtime
p1443
I2
ss(Vdepresses
p1444
tp1445
(dp1446
Vme
p1447
I2
ss(Vmeantime
p1448
tp1449
(dp1450
Vi
p1451
I2
ss(Vmind
p1452
tp1453
(dp1454
Vme
p1455
I2
sVbut
p1456
I2
ss(Vdate
p1457
tp1458
(dp1459
Vnow
p1460
I2
sVpeople
p1461
I2
ss(Vholidays
p1462
tp1463
(dp1464
Vone
p1465
I2
ss(Vrapunzel
p1466
tp1467
(dp1468
Vblonde
p1469
I2
ss(Vinfluences
p1470
tp1471
(dp1472
Vand
p1473
I2
ss(Vtv
p1474
tp1475
(dp1476
Vminiseries
p1477
I2
ss(Vthose
p1478
tp1479
(dp1480
Va
p1481
I2
sVkids
p1482
I2
sVpeople
p1483
I2
sVthings
p1484
I2
sVtwo
p1485
I2
sVidiotic
p1486
I2
sVare
p1487
I2
sVwere
p1488
I2
ss(Vdoc
p1489
tp1490
(dp1491
Vsays
p1492
I2
ss(Vpolitical
p1493
tp1494
(dp1495
Vindifference
p1496
I2
sg303
I2
ss(Vopposite
p1497
tp1498
(dp1499
Vand
p1500
I2
ss(Vilk
p1501
tp1502
(dp1503
Vkullandnz
p1504
I2
ss(Vwage
p1505
tp1506
(dp1507
Vi
p1508
I2
ss(Vreading
p1509
tp1510
(dp1511
Vand
p1512
I2
sVon
p1513
I2
ss(g166
tp1514
(dp1515
g36
I4
sVjust
p1516
I2
ss(Vdd
p1517
tp1518
(dp1519
Vare
p1520
I2
ss(Vbehind
p1521
tp1522
(dp1523
Vmy
p1524
I2
ss(Vwithin
p1525
tp1526
(dp1527
Vthe
p1528
I4
ss(Vcirclejerk
p1529
tp1530
(dp1531
Vmobile
p1532
I2
ss(Vfuck
p1533
tp1534
(dp1535
Voff
p1536
I2
sVmy
p1537
I2
ss(V10
p1538
tp1539
(dp1540
Vor
p1541
I3
sVbest
p1542
I3
ss(Vpassword
p1543
tp1544
(dp1545
Vis
p1546
I2
ss(Vposts
p1547
tp1548
(dp1549
Von
p1550
I2
sVwith
p1551
I2
sVthat
p1552
I7
ss(Vdepends
p1553
tp1554
(dp1555
Von
p1556
I2
sVwhat
p1557
I2
ss(g902
tp1558
(dp1559
Vis
p1560
I2
sVthat
p1561
I2
ss(Vissue
p1562
tp1563
(dp1564
Vfor
p1565
I2
ss(Vgrudge
p1566
tp1567
(dp1568
Vjust
p1569
I2
ss(Vside
p1570
tp1571
(dp1572
Veffect
p1573
I2
sVbut
p1574
I2
ss(Vcheesecake
p1575
tp1576
(dp1577
Vleft
p1578
I2
ss(Vhususlardan
p1579
tp1580
(dp1581
Vbiriside
p1582
I2
ss(Vkiller
p1583
tp1584
(dp1585
Vsaw
p1586
I2
ss(Vwasted
p1587
tp1588
(dp1589
V35
p1590
I2
ss(Vhell
p1591
tp1592
(dp1593
Veven
p1594
I2
sVhow
p1595
I2
ss(Vcabinet
p1596
tp1597
(dp1598
Vi
p1599
I2
ss(Vbending
p1600
tp1601
(dp1602
Vover
p1603
I2
ss(Veastern
p1604
tp1605
(dp1606
Vwashington
p1607
I2
ss(Vtie
p1608
tp1609
(dp1610
Vonce
p1611
I2
ss(Vpics
p1612
tp1613
(dp1614
Vof
p1615
I3
sVin
p1616
I2
ss(g301
tp1617
(dp1618
Va
p1619
I3
sVallergies
p1620
I2
sVhad
p1621
I4
sVbeen
p1622
I4
sVto
p1623
I3
sVinfiltrated
p1624
I2
sVdone
p1625
I3
sVsomething
p1626
I2
sVscrewed
p1627
I2
sVprobably
p1628
I2
ss(Vtask
p1629
tp1630
(dp1631
Vand
p1632
I2
sVtherefore
p1633
I2
ss(Vmoney
p1634
tp1635
(dp1636
Vand
p1637
I2
sVon
p1638
I2
sVoff
p1639
I3
sVfor
p1640
I3
sVi
p1641
I2
sVit
p1642
I2
sVto
p1643
I3
sVim
p1644
I2
sVrecklessly
p1645
I2
sVyou
p1646
I2
ss(g1378
tp1647
(dp1648
Vhis
p1649
I2
ss(Vadvice
p1650
tp1651
(dp1652
Vnothing
p1653
I2
sVunfortunately
p1654
I2
ss(Vtmobile
p1655
tp1656
(dp1657
Vfor
p1658
I2
ss(g538
tp1659
(dp1660
Vand
p1661
I2
sVxmen
p1662
I2
ss(Vresubmit
p1663
tp1664
(dp1665
Vyour
p1666
I2
ss(Vmass
p1667
tp1668
(dp1669
Vunits
p1670
I2
ss(Vmutation
p1671
tp1672
(dp1673
Viirc
p1674
I2
sVin
p1675
I2
ss(Vknowingly
p1676
tp1677
(dp1678
Vbreak
p1679
I2
ss(Vhallelujah
p1680
tp1681
(dp1682
Vby
p1683
I2
ss(Vsaying
p1684
tp1685
(dp1686
Vbut
p1687
I2
ss(Vsexual
p1688
tp1689
(dp1690
Vfetishes
p1691
I2
sVexperiences
p1692
I3
ss(g1163
tp1693
(dp1694
Vor
p1695
I2
ss(Vketchup
p1696
tp1697
(dp1698
Vwith
p1699
I2
ss(Vright
p1700
tp1701
(dp1702
Vand
p1703
I2
sVto
p1704
I2
sVabout
p1705
I2
sVafter
p1706
I2
sVnow
p1707
I2
ss(Vapple
p1708
tp1709
(dp1710
Vcomputer
p1711
I2
ss(g1486
tp1712
(dp1713
Vidolizers
p1714
I2
ss(Vdeal
p1715
tp1716
(dp1717
Vwith
p1718
I2
ss(Vaccount
p1719
tp1720
(dp1721
Vcost
p1722
I2
ss(Vsuicide
p1723
tp1724
(dp1725
Vwould
p1726
I2
ss(Vsuppress
p1727
tp1728
(dp1729
Vit
p1730
I2
ss(Vred
p1731
tp1732
(dp1733
Vflag
p1734
I2
ss(g1402
tp1735
(dp1736
Vbad
p1737
I2
sVextremely
p1738
I2
sVlike
p1739
I2
ss(Vsome
p1740
tp1741
(dp1742
Vgreat
p1743
I2
sVpretty
p1744
I2
sVjerkoffs
p1745
I2
sVmoney
p1746
I2
sVof
p1747
I2
sVideas
p1748
I2
sVexperience
p1749
I2
sVboring
p1750
I2
sVmistakes
p1751
I2
sVmovies
p1752
I2
sVreason
p1753
I2
sVpart
p1754
I3
sVmy
p1755
I2
sVchick
p1756
I2
sVplates
p1757
I2
sVgenuinely
p1758
I2
sg1434
I2
sVother
p1759
I2
sVwomen
p1760
I2
ss(Vcapable
p1761
tp1762
(dp1763
Vof
p1764
I3
ss(Vread
p1765
tp1766
(dp1767
Vsome
p1768
I2
sVit
p1769
I2
sVpeople
p1770
I2
ss(Vpolitics
p1771
tp1772
(dp1773
Vis
p1774
I2
ss(Vdelivering
p1775
tp1776
(dp1777
g287
I2
ss(Vand
p1778
tp1779
(dp1780
Vless
p1781
I2
sVbeing
p1782
I2
sVfall
p1783
I2
sVcold
p1784
I2
sVstill
p1785
I3
sVfind
p1786
I2
sVgolfing
p1787
I2
sVham
p1788
I2
sVsuddenly
p1789
I2
sVlets
p1790
I2
sVjiu
p1791
I2
sVofftopic
p1792
I4
sVcrying
p1793
I4
sVtaunting
p1794
I2
sVhas
p1795
I2
sVwearing
p1796
I2
sVthen
p1797
I4
sVsomeone
p1798
I2
sVget
p1799
I2
sg535
I2
sg1517
I2
sVmade
p1800
I2
sVmoaning
p1801
I2
sVprobably
p1802
I2
sVsymbolism
p1803
I2
sVnow
p1804
I3
sVtri
p1805
I2
sVlike
p1806
I2
sVposts
p1807
I4
sVpublic
p1808
I2
sVbad
p1809
I2
sVl5
p1810
I2
sVshe
p1811
I3
sVtightening
p1812
I2
sVenjoy
p1813
I5
sg291
I3
sVpeople
p1814
I2
sg179
I2
sg141
I2
sVworn
p1815
I2
sVour
p1816
I2
sVeven
p1817
I2
sVwiggled
p1818
I2
sVgiving
p1819
I2
sVlean
p1820
I2
sVvarious
p1821
I2
sVnew
p1822
I2
sVincreasing
p1823
I2
sVruptured
p1824
I2
sVaffordable
p1825
I2
sVbe
p1826
I3
sVwe
p1827
I2
sVwear
p1828
I2
sVput
p1829
I2
sVdidnt
p1830
I2
sVemilio
p1831
I2
sVhistory
p1832
I2
sVthats
p1833
I2
sVfamily
p1834
I2
sVfeel
p1835
I2
sVwalk
p1836
I2
sVnothing
p1837
I2
sVtheyd
p1838
I2
sVwhispering
p1839
I3
sVfight
p1840
I2
sVtheoretically
p1841
I2
sVare
p1842
I2
sVputs
p1843
I2
sVdata
p1844
I2
sVonly
p1845
I2
sVnoticed
p1846
I2
sVhed
p1847
I2
sVcall
p1848
I2
sVtoo
p1849
I2
sVcultures
p1850
I2
sVwhite
p1851
I2
sVsyrup
p1852
I3
sVtell
p1853
I2
sVtherefore
p1854
I3
sVsitups
p1855
I2
sVthat
p1856
I3
sVnobody
p1857
I2
sVleaking
p1858
I2
sVcarrying
p1859
I2
sVpredictable
p1860
I2
sVwith
p1861
I2
sVsubbota
p1862
I2
sVhe
p1863
I3
sVb
p1864
I2
sVlook
p1865
I2
sVthis
p1866
I6
sVus
p1867
I2
sVwill
p1868
I2
sVwere
p1869
I5
sVmy
p1870
I5
sVtheres
p1871
I2
sVintents
p1872
I2
sVdo
p1873
I2
sVran
p1874
I2
sVis
p1875
I2
sVit
p1876
I2
sVgeneral
p1877
I2
sVsay
p1878
I2
sVdizzy
p1879
I2
sVhave
p1880
I2
sVany
p1881
I2
sVif
p1882
I3
sVno
p1883
I3
sVmake
p1884
I3
sVhow
p1885
I2
sVaunt
p1886
I2
sVyou
p1887
I2
sVplay
p1888
I2
sg1088
I2
sVseparate
p1889
I2
sVafter
p1890
I2
sVfucked
p1891
I3
sVextremely
p1892
I2
sVa
p1893
I2
sVshort
p1894
I2
sVremember
p1895
I2
sVi
p1896
I12
sVhonestly
p1897
I2
sVallow
p1898
I2
sVvery
p1899
I2
sVthe
p1900
I6
ss(Vcooperation
p1901
tp1902
(dp1903
Vand
p1904
I4
ss(Vkidnapping
p1905
tp1906
(dp1907
Vsomeone
p1908
I2
ss(Vpretend
p1909
tp1910
(dp1911
Vto
p1912
I2
ss(Vburning
p1913
tp1914
(dp1915
Vnanananananana
p1916
I2
sVthe
p1917
I2
ss(Vreaching
p1918
tp1919
(dp1920
Va
p1921
I2
ss(Vrestraints
p1922
tp1923
(dp1924
Vforces
p1925
I2
ss(Voctober
p1926
tp1927
(dp1928
Vits
p1929
I2
ss(Vthay
p1930
tp1931
(dp1932
Vand
p1933
I2
ss(g1249
tp1934
(dp1935
Vto
p1936
I2
ss(Vmove
p1937
tp1938
(dp1939
g462
I2
sVbut
p1940
I2
ss(Vdinner
p1941
tp1942
(dp1943
Vthis
p1944
I2
ss(Vrun
p1945
tp1946
(dp1947
Vagainst
p1948
I2
sVout
p1949
I2
ss(Vvital
p1950
tp1951
(dp1952
Vorgans
p1953
I2
ss(Vrid
p1954
tp1955
(dp1956
Vof
p1957
I2
ss(Vfine
p1958
tp1959
(dp1960
Vas
p1961
I2
ss(Vinternet
p1962
tp1963
(dp1964
Vstranger
p1965
I2
ss(Vwhatever
p1966
tp1967
(dp1968
Vso
p1969
I2
ss(Vapart
p1970
tp1971
(dp1972
Vof
p1973
I2
sVfrom
p1974
I2
ss(Vtaking
p1975
tp1976
(dp1977
Vmuai
p1978
I2
sVit
p1979
I2
sVupskirt
p1980
I2
ss(Vvariations
p1981
tp1982
(dp1983
Vbut
p1984
I2
ss(Vpoint
p1985
tp1986
(dp1987
Va
p1988
I2
sVive
p1989
I2
sVwe
p1990
I2
sVto
p1991
I3
sVthe
p1992
I2
sVwhere
p1993
I4
ss(Vsay
p1994
tp1995
(dp1996
Vi
p1997
I8
sVwhenever
p1998
I2
sVthe
p1999
I2
sVyour
p2000
I2
sVhe
p2001
I2
ss(Vmum
p2002
tp2003
(dp2004
Vand
p2005
I2
ss(Vregards
p2006
tp2007
(dp2008
Vto
p2009
I2
ss(Vx
p2010
tp2011
(dp2012
Vgene
p2013
I2
ss(Vfar
p2014
tp2015
(dp2016
Vthis
p2017
I2
sVaway
p2018
I2
ss(g839
tp2019
(dp2020
Vbikes
p2021
I2
sVcenter
p2022
I2
ss(Vpanic
p2023
tp2024
(dp2025
Vattack
p2026
I2
ss(Vscarlett
p2027
tp2028
(dp2029
Vremake
p2030
I2
ss(Vquantity
p2031
tp2032
(dp2033
Vbrother
p2034
I2
ss(g1329
tp2035
(dp2036
V2
p2037
I2
ss(V5fdp
p2038
tp2039
(dp2040
g1778
I2
ss(Valong
p2041
tp2042
(dp2043
Vperfectly
p2044
I2
sVwith
p2045
I5
ss(Vdirty
p2046
tp2047
(dp2048
Vtricks
p2049
I2
ss(Vhorny
p2050
tp2051
(dp2052
Vthey
p2053
I2
ss(Vplenty
p2054
tp2055
(dp2056
Vof
p2057
I2
ss(Vopposes
p2058
tp2059
(dp2060
Vgay
p2061
I2
ss(Vsand
p2062
tp2063
(dp2064
Vi
p2065
I2
ss(Vexpecting
p2066
tp2067
(dp2068
Va
p2069
I3
ss(Vsign
p2070
tp2071
(dp2072
Vfelled
p2073
I2
ss(Vgereken
p2074
tp2075
(dp2076
g1579
I2
ss(Vcheese
p2077
tp2078
(dp2079
Vsandwiches
p2080
I3
ss(Vpillar
p2081
tp2082
(dp2083
Vtheres
p2084
I2
ss(g962
tp2085
(dp2086
Vuntil
p2087
I2
ss(Vbot
p2088
tp2089
(dp2090
Vand
p2091
I5
ss(Vexposed
p2092
tp2093
(dp2094
Vit
p2095
I2
ss(Vbill
p2096
tp2097
(dp2098
Vis
p2099
I2
ss(Vpushups
p2100
tp2101
(dp2102
Vand
p2103
I2
ss(Vexist
p2104
tp2105
(dp2106
Vthe
p2107
I2
sVthey
p2108
I2
sVin
p2109
I2
ss(Vwinning
p2110
tp2111
(dp2112
Vsubstantially
p2113
I2
ss(Vlearned
p2114
tp2115
(dp2116
Vfrom
p2117
I2
ss(Vvictim
p2118
tp2119
(dp2120
Vwould
p2121
I2
ss(g1852
tp2122
(dp2123
g36
I3
ss(Vdaughters
p2124
tp2125
(dp2126
Vbirthday
p2127
I2
sVfirst
p2128
I2
ss(Vok
p2129
tp2130
(dp2131
Vexplain
p2132
I2
ss(Vthunderbirds
p2133
tp2134
(dp2135
Vremake
p2136
I2
ss(Vgoal
p2137
tp2138
(dp2139
Vof
p2140
I2
ss(Vayy
p2141
tp2142
(dp2143
g187
I2
ss(Vshotgun
p2144
tp2145
(dp2146
Vfalls
p2147
I2
ss(Vfun
p2148
tp2149
(dp2150
Vthan
p2151
I2
sVtimes
p2152
I2
ss(g669
tp2153
(dp2154
Vtoo
p2155
I2
ss(Vbeating
p2156
tp2157
(dp2158
Vthem
p2159
I2
ss(g226
tp2160
(dp2161
Vdecided
p2162
I2
ss(Vauthor
p2163
tp2164
(dp2165
Vi
p2166
I2
ss(Vmovie
p2167
tp2168
(dp2169
Vi
p2170
I2
sVbut
p2171
I2
sVmarathon
p2172
I2
ss(Vmine
p2173
tp2174
(dp2175
Vspent
p2176
I2
ss(Vbreaching
p2177
tp2178
(dp2179
Vthe
p2180
I2
ss(Vsuch
p2181
tp2182
(dp2183
Vthing
p2184
I2
sVtraining
p2185
I2
sVas
p2186
I2
ss(Vblast
p2187
tp2188
(dp2189
Vdoing
p2190
I2
ss(Vpockets
p2191
tp2192
(dp2193
Vof
p2194
I2
ss(Vquality
p2195
tp2196
(dp2197
Vover
p2198
I2
ss(Vreject
p2199
tp2200
(dp2201
Vhim
p2202
I2
ss(Veating
p2203
tp2204
(dp2205
Vit
p2206
I2
sg827
I2
ss(Vpilot
p2207
tp2208
(dp2209
Vhaving
p2210
I2
ss(g550
tp2211
(dp2212
Vi
p2213
I2
sVits
p2214
I2
sVstability
p2215
I2
sVmost
p2216
I2
sVsetting
p2217
I2
sVthey
p2218
I2
sVyou
p2219
I2
sVthe
p2220
I2
ss(Varrested
p2221
tp2222
(dp2223
Vfor
p2224
I2
ss(Vsquats
p2225
tp2226
(dp2227
Vbatman
p2228
I2
ss(Vtennis
p2229
tp2230
(dp2231
g23
I2
ss(Vdue
p2232
tp2233
(dp2234
Vto
p2235
I4
ss(Vscishow
p2236
tp2237
(dp2238
Vdid
p2239
I2
ss(g1948
tp2240
(dp2241
Vbills
p2242
I2
sVtrump
p2243
I2
ss(Vnicu
p2244
tp2245
(dp2246
Vas
p2247
I2
ss(Vmuscle
p2248
tp2249
(dp2250
Vyou
p2251
I2
ss(g1407
tp2252
(dp2253
Vi
p2254
I2
ss(Vproto
p2255
tp2256
(dp2257
Vsherlock
p2258
I2
ss(Vinterest
p2259
tp2260
(dp2261
Vin
p2262
I2
ss(Vdivine
p2263
tp2264
(dp2265
g36
I3
ss(Vurge
p2266
tp2267
(dp2268
Vto
p2269
I2
ss(Vmoment
p2270
tp2271
(dp2272
Vit
p2273
I2
ss(Vbrother
p2274
tp2275
(dp2276
Vgot
p2277
I3
sVhis
p2278
I2
sVor
p2279
I2
ss(Vsumo
p2280
tp2281
(dp2282
Vwrestlers
p2283
I2
ss(g2162
tp2284
(dp2285
Vi
p2286
I2
sVto
p2287
I3
ss(Vadopted
p2288
tp2289
(dp2290
Vcase
p2291
I2
ss(Vboazm
p2292
tp2293
(dp2294
Vyakyor
p2295
I3
ss(Vhonest
p2296
tp2297
(dp2298
g1325
I2
ss(Vjenner
p2299
tp2300
(dp2301
Vcould
p2302
I2
ss(g1333
tp2303
(dp2304
Vfree
p2305
I2
ss(Vafford
p2306
tp2307
(dp2308
Vsuch
p2309
I2
ss(Vprice
p2310
tp2311
(dp2312
Vto
p2313
I2
ss(Vfazla
p2314
tp2315
(dp2316
Vekiyor
p2317
I2
ss(Vyaralar
p2318
tp2319
(dp2320
Volabilir
p2321
I2
ss(Vhonestly
p2322
tp2323
(dp2324
Vi
p2325
I3
sVyou
p2326
I2
sVthat
p2327
I2
ss(Vfabrics
p2328
tp2329
(dp2330
Vstill
p2331
I2
ss(Vmedia
p2332
tp2333
(dp2334
Vthat
p2335
I2
ss(Vcodified
p2336
tp2337
(dp2338
Vautobiography
p2339
I2
ss(g1126
tp2340
(dp2341
Vremember
p2342
I2
sVwanna
p2343
I2
sVjust
p2344
I2
sVget
p2345
I4
sValways
p2346
I2
sVgive
p2347
I2
sVmind
p2348
I2
sVthink
p2349
I4
sVanymore
p2350
I2
sVunderstand
p2351
I2
sVknow
p2352
I7
sVhave
p2353
I2
sVwish
p2354
I2
sVactually
p2355
I2
sVcare
p2356
I5
sVtypically
p2357
I2
sVagree
p2358
I2
sVreally
p2359
I2
ss(Vvoters
p2360
tp2361
(dp2362
Vi
p2363
I2
ss(Vduman
p2364
tp2365
(dp2366
Vyada
p2367
I2
ss(Vthank
p2368
tp2369
(dp2370
Vyou
p2371
I3
ss(Vyourself
p2372
tp2373
(dp2374
Vbut
p2375
I2
sVif
p2376
I2
ss(Vsnake
p2377
tp2378
(dp2379
Veyes
p2380
I2
ss(Vabsolutely
p2381
tp2382
(dp2383
Vnothing
p2384
I2
sVamazing
p2385
I2
ss(Vlearning
p2386
tp2387
(dp2388
Vabout
p2389
I2
ss(Vkind
p2390
tp2391
(dp2392
Vof
p2393
I6
ss(Vbus
p2394
tp2395
(dp2396
Vone
p2397
I2
ss(Vturn
p2398
tp2399
(dp2400
Vin
p2401
I2
ss(Vconstruction
p2402
tp2403
(dp2404
Vor
p2405
I2
ss(Vrefuses
p2406
tp2407
(dp2408
Vto
p2409
I2
ss(g1645
tp2410
(dp2411
Vwhich
p2412
I2
ss(Vcases
p2413
tp2414
(dp2415
Vnot
p2416
I2
ss(Vold
p2417
tp2418
(dp2419
Vwoman
p2420
I2
sVfucks
p2421
I2
sVjob
p2422
I2
sVare
p2423
I2
sVman
p2424
I2
sg2377
I2
ss(Vdestroyed
p2425
tp2426
(dp2427
Vdegenerating
p2428
I2
ss(Vsibling
p2429
tp2430
(dp2431
Vcommented
p2432
I2
ss(g1751
tp2433
(dp2434
Vthe
p2435
I2
ss(g1368
tp2436
(dp2437
Vlooking
p2438
I2
sVit
p2439
I2
ss(Vperspective
p2440
tp2441
(dp2442
Von
p2443
I2
ss(Vblank
p2444
tp2445
(dp2446
Vspace
p2447
I2
ss(Vballs
p2448
tp2449
(dp2450
Vof
p2451
I2
ss(Vhustle
p2452
tp2453
(dp2454
g1103
I2
ss(g2210
tp2455
(dp2456
Va
p2457
I2
sVnever
p2458
I2
sVto
p2459
I2
sVsurgery
p2460
I2
sVmy
p2461
I2
sg1478
I2
ss(Vback
p2462
tp2463
(dp2464
Vand
p2465
I3
sVto
p2466
I3
sVwhen
p2467
I2
sVroom
p2468
I2
sVahould
p2469
I2
ss(g2317
tp2470
(dp2471
g2364
I2
ss(Vmarriage
p2472
tp2473
(dp2474
Vnot
p2475
I2
ss(Vbody
p2476
tp2477
(dp2478
Vmassages
p2479
I2
sVmassage
p2480
I2
ss(Vhighest
p2481
tp2482
(dp2483
Vrevenue
p2484
I2
ss(Vdifficulty
p2485
tp2486
(dp2487
Vof
p2488
I2
ss(Vcant
p2489
tp2490
(dp2491
Vwork
p2492
I2
sVexpress
p2493
I2
sVunderstand
p2494
I2
sVcarry
p2495
I2
sVweigh
p2496
I2
sVseem
p2497
I3
ss(Vyoung
p2498
tp2499
(dp2500
Vperhaps
p2501
I2
sVtherefore
p2502
I7
sg1570
I2
ss(g1627
tp2503
(dp2504
Vwithout
p2505
I2
sVmore
p2506
I2
ss(g1080
tp2507
(dp2508
Vand
p2509
I2
ss(Vpickzies
p2510
tp2511
(dp2512
Vwhoever
p2513
I2
ss(Voccult
p2514
tp2515
(dp2516
g328
I2
ss(Vquit
p2517
tp2518
(dp2519
Vdoing
p2520
I2
sg986
I2
ss(Vminus
p2521
tp2522
(dp2523
Vthe
p2524
I2
ss(g1253
tp2525
(dp2526
Vto
p2527
I2
ss(Vgrandparents
p2528
tp2529
(dp2530
Vliterally
p2531
I2
ss(g1578
tp2532
(dp2533
Vin
p2534
I2
ss(Vads
p2535
tp2536
(dp2537
Vfor
p2538
I2
sVfit
p2539
I2
ss(Vbag
p2540
tp2541
(dp2542
Vmultiple
p2543
I2
ss(Vwitnessed
p2544
tp2545
(dp2546
Vthe
p2547
I2
ss(Vpure
p2548
tp2549
(dp2550
Vevil
p2551
I2
ss(Vcentrist
p2552
tp2553
(dp2554
Vreasonable
p2555
I2
ss(Vmechanical
p2556
tp2557
(dp2558
Vkeyboard
p2559
I2
ss(g1786
tp2560
(dp2561
Va
p2562
I2
sVsomeone
p2563
I2
sVsomething
p2564
I2
ss(Vdied
p2565
tp2566
(dp2567
g2448
I2
sVin
p2568
I7
ss(Vweight
p2569
tp2570
(dp2571
Vin
p2572
I2
ss(Vsincerely
p2573
tp2574
(dp2575
Vawesome
p2576
I2
ss(Vladies
p2577
tp2578
(dp2579
Vdrink
p2580
I2
ss(Vseach
p2581
tp2582
(dp2583
Vfor
p2584
I2
ss(Vdragon
p2585
tp2586
(dp2587
Vsummoning
p2588
I2
ss(Veven
p2589
tp2590
(dp2591
Vgive
p2592
I2
sg1411
I2
sVless
p2593
I2
sVcry
p2594
I2
sVhad
p2595
I3
sVthanksgiving
p2596
I2
sVincluding
p2597
I2
sVknow
p2598
I2
sVthough
p2599
I2
sVif
p2600
I2
sVwith
p2601
I2
sVthankgiving
p2602
I2
ss(Vwanna
p2603
tp2604
(dp2605
Vsettle
p2606
I2
sVcall
p2607
I2
ss(Vconcieved
p2608
tp2609
(dp2610
Vthats
p2611
I2
ss(Vcommunication
p2612
tp2613
(dp2614
Vis
p2615
I2
sVwhen
p2616
I2
ss(Vlook
p2617
tp2618
(dp2619
Vit
p2620
I2
sVup
p2621
I2
sVfor
p2622
I2
sVout
p2623
I2
ss(g1196
tp2624
(dp2625
Vno
p2626
I2
ss(g269
tp2627
(dp2628
Vi
p2629
I2
ss(g1312
tp2630
(dp2631
Vtoo
p2632
I2
ss(Vspread
p2633
tp2634
(dp2635
Vchiefly
p2636
I2
ss(Vthan
p2637
tp2638
(dp2639
Va
p2640
I3
sVwhat
p2641
I2
sVverizon
p2642
I2
sVher
p2643
I2
sVjust
p2644
I2
sVmine
p2645
I2
sVone
p2646
I2
sg270
I2
sVother
p2647
I2
sVnon
p2648
I2
sVthe
p2649
I4
sVlifting
p2650
I2
ss(Vsister
p2651
tp2652
(dp2653
Vand
p2654
I2
sVis
p2655
I3
ss(Vwounded
p2656
tp2657
(dp2658
Vknees
p2659
I2
ss(Van
p2660
tp2661
(dp2662
Vupper
p2663
I2
sVonly
p2664
I2
sg2417
I3
sVfor
p2665
I2
sVhour
p2666
I2
sVama
p2667
I4
sVaverage
p2668
I2
sVidea
p2669
I2
sVactor
p2670
I2
sVemphasis
p2671
I2
sVvideo
p2672
I2
sg2259
I2
sg1049
I3
sVawesome
p2673
I2
sVminor
p2674
I2
ss(Vbills
p2675
tp2676
(dp2677
Vwife
p2678
I2
sVgolfing
p2679
I2
ss(Vtraits
p2680
tp2681
(dp2682
Vand
p2683
I2
ss(g2599
tp2684
(dp2685
Vi
p2686
I2
sVto
p2687
I2
sVall
p2688
I2
ss(Vnuanced
p2689
tp2690
(dp2691
Vsequel
p2692
I2
ss(Vbipolar
p2693
tp2694
(dp2695
Vso
p2696
I2
ss(g1891
tp2697
(dp2698
Vlike
p2699
I3
ss(g1745
tp2700
(dp2701
Vautobiography
p2702
I2
ss(Vbuddy
p2703
tp2704
(dp2705
Vwe
p2706
I2
sVwho
p2707
I2
ss(Vupvotes
p2708
tp2709
(dp2710
Vfor
p2711
I2
ss(g69
tp2712
(dp2713
Vhave
p2714
I2
ss(Vdefending
p2715
tp2716
(dp2717
Vthe
p2718
I2
ss(Vhigher
p2719
tp2720
(dp2721
Vpercentage
p2722
I2
ss(g1397
tp2723
(dp2724
Va
p2725
I2
sVall
p2726
I2
sVin
p2727
I2
ss(Vfailed
p2728
tp2729
(dp2730
Vthat
p2731
I2
ss(Vboobs
p2732
tp2733
(dp2734
Vin
p2735
I2
ss(Vsurprisingly
p2736
tp2737
(dp2738
g1006
I2
ss(Vtalks
p2739
tp2740
(dp2741
Vabout
p2742
I2
sVbad
p2743
I2
ss(Vonline
p2744
tp2745
(dp2746
Vdating
p2747
I3
ss(Vbreathable
p2748
tp2749
(dp2750
g971
I2
ss(Vinteresting
p2751
tp2752
(dp2753
Vc
p2754
I2
ss(Vcolour
p2755
tp2756
(dp2757
g1250
I2
sVblindness
p2758
I3
ss(Vfart
p2759
tp2760
(dp2761
Vmeans
p2762
I2
ss(Vgtryor
p2763
tp2764
(dp2765
Velektronik
p2766
I2
ss(V80s
p2767
tp2768
(dp2769
Vin
p2770
I2
ss(Vkissing
p2771
tp2772
(dp2773
Vother
p2774
I2
ss(Vamericans
p2775
tp2776
(dp2777
Vwho
p2778
I2
ss(Vvacations
p2779
tp2780
(dp2781
Vwith
p2782
I2
ss(Vtown
p2783
tp2784
(dp2785
g2014
I2
sVwith
p2786
I2
ss(Vgraphics
p2787
tp2788
(dp2789
Vwould
p2790
I2
ss(g1758
tp2791
(dp2792
Vclever
p2793
I2
ss(Vno
p2794
tp2795
(dp2796
Videa
p2797
I2
sVconfirmed
p2798
I2
sVeasing
p2799
I3
sVmatter
p2800
I2
sVi
p2801
I2
sVit
p2802
I2
sg470
I6
sg262
I3
sVother
p2803
I2
sVway
p2804
I2
sVinput
p2805
I2
sg2181
I2
sVproblem
p2806
I2
sVprob
p2807
I2
sVhe
p2808
I2
ss(Vrussian
p2809
tp2810
(dp2811
Vi
p2812
I2
sg36
I2
ss(Vwithout
p2813
tp2814
(dp2815
Vbeing
p2816
I2
sVthe
p2817
I2
sVmy
p2818
I2
sVexplanation
p2819
I2
sVdamaging
p2820
I2
ss(Vyep
p2821
tp2822
(dp2823
Vand
p2824
I2
sg350
I2
sVsoon
p2825
I2
ss(g1794
tp2826
(dp2827
Vbut
p2828
I2
ss(Vschmavid
p2829
tp2830
(dp2831
Vschmern
p2832
I2
ss(Vexact
p2833
tp2834
(dp2835
Videa
p2836
I2
sVsame
p2837
I2
ss(Vyouve
p2838
tp2839
(dp2840
Vbeen
p2841
I2
sg283
I2
ss(Vrather
p2842
tp2843
(dp2844
Vthe
p2845
I2
sg2637
I2
ss(g362
tp2846
(dp2847
Vname
p2848
I2
sVfault
p2849
I2
sVquestion
p2850
I2
sVlegal
p2851
I2
sV4th
p2852
I2
sVteam
p2853
I2
ss(Vwhats
p2854
tp2855
(dp2856
Vimportant
p2857
I2
ss(Vthirsty
p2858
tp2859
(dp2860
Vafterwards
p2861
I2
ss(Vbring
p2862
tp2863
(dp2864
Vit
p2865
I2
ss(Vsessions
p2866
tp2867
(dp2868
Vbecause
p2869
I2
ss(Vskilled
p2870
tp2871
(dp2872
Vtrade
p2873
I2
ss(g1624
tp2874
(dp2875
Vdc
p2876
I2
ss(Vmain
p2877
tp2878
(dp2879
Vprotagonist
p2880
I2
ss(g1824
tp2881
(dp2882
Vand
p2883
I2
ss(Vdrape
p2884
tp2885
(dp2886
Vit
p2887
I2
ss(Vhow
p2888
tp2889
(dp2890
Va
p2891
I2
sVdo
p2892
I2
sVwe
p2893
I2
sg337
I2
sVold
p2894
I2
sVwould
p2895
I2
sVwell
p2896
I3
sVit
p2897
I2
sVlong
p2898
I2
sVto
p2899
I4
sVmuch
p2900
I4
sVsmart
p2901
I2
ss(Vstop
p2902
tp2903
(dp2904
Vthem
p2905
I2
sVtalking
p2906
I2
sVbeing
p2907
I2
sVit
p2908
I2
sVto
p2909
I2
sVthe
p2910
I2
ss(Vheels
p2911
tp2912
(dp2913
Vand
p2914
I2
ss(g851
tp2915
(dp2916
Vframe
p2917
I2
sVfor
p2918
I2
ss(Vaggressive
p2919
tp2920
(dp2921
Vgrab
p2922
I2
ss(Vadapt
p2923
tp2924
(dp2925
Vhumans
p2926
I2
ss(Vsort
p2927
tp2928
(dp2929
Vof
p2930
I2
ss(Vafterwards
p2931
tp2932
(dp2933
Vdont
p2934
I2
ss(Vdiyorsanz
p2935
tp2936
(dp2937
g145
I2
ss(Vsorely
p2938
tp2939
(dp2940
Vdisapointed
p2941
I2
ss(g485
tp2942
(dp2943
Vthem
p2944
I2
ss(Veyeopener
p2945
tp2946
(dp2947
Vthere
p2948
I2
ss(Vmyself
p2949
tp2950
(dp2951
Vwith
p2952
I2
sVbut
p2953
I2
sVfor
p2954
I2
ss(Vannoyed
p2955
tp2956
(dp2957
Vat
p2958
I2
ss(Vfilmed
p2959
tp2960
(dp2961
Vthere
p2962
I2
ss(Vmean
p2963
tp2964
(dp2965
Vwhat
p2966
I2
sVhaving
p2967
I2
sVby
p2968
I2
sVsomething
p2969
I2
sVsplitzies
p2970
I2
sVits
p2971
I2
sVthe
p2972
I3
ss(Vstranger
p2973
tp2974
(dp2975
Vdanger
p2976
I2
ss(Vshortly
p2977
tp2978
(dp2979
Vafter
p2980
I2
ss(Vparents
p2981
tp2982
(dp2983
Vetc
p2984
I2
sVdidnt
p2985
I2
ss(Vgoes
p2986
tp2987
(dp2988
Vstrait
p2989
I2
sVagainst
p2990
I2
ss(Vrisk
p2991
tp2992
(dp2993
Veverything
p2994
I2
ss(g345
tp2995
(dp2996
Vin
p2997
I2
ss(Vex
p2998
tp2999
(dp3000
Vgot
p3001
I3
sVshe
p3002
I2
ss(Vthing
p3003
tp3004
(dp3005
Vi
p3006
I2
sVas
p3007
I2
sVevery
p3008
I2
sVhowever
p3009
I2
sVnational
p3010
I2
ss(Vsimilar
p3011
tp3012
(dp3013
Vthings
p3014
I2
ss(g1864
tp3015
(dp3016
Vto
p3017
I2
sVwriting
p3018
I2
ss(Vtalk
p3019
tp3020
(dp3021
Vto
p3022
I2
sVabout
p3023
I2
sg1139
I2
ss(Vcertain
p3024
tp3025
(dp3026
Vthought
p3027
I2
sVsituations
p3028
I2
sg2207
I2
ss(g1173
tp3029
(dp3030
Vcola
p3031
I2
ss(Vleave
p3032
tp3033
(dp3034
Vhim
p3035
I2
ss(Vtheir
p3036
tp3037
(dp3038
Vwebsite
p3039
I2
sVown
p3040
I2
sg440
I2
sVcucks
p3041
I2
sg1650
I2
sVchild
p3042
I4
sVbooks
p3043
I2
sg380
I2
sVsignificant
p3044
I2
sVtime
p3045
I2
sg2656
I2
sVtrue
p3046
I2
ss(Vjapanese
p3047
tp3048
(dp3049
Vis
p3050
I2
sVthe
p3051
I2
ss(Vstatement
p3052
tp3053
(dp3054
Vat
p3055
I2
ss(Vstrange
p3056
tp3057
(dp3058
Vtrails
p3059
I2
ss(Vboyfriend
p3060
tp3061
(dp3062
Vthinks
p3063
I2
ss(Vass
p3064
tp3065
(dp3066
Vand
p3067
I2
sVon
p3068
I2
ss(g1355
tp3069
(dp3070
Vit
p3071
I2
ss(Vk
p3072
tp3073
(dp3074
Vmoana
p3075
I2
ss(g2976
tp3076
(dp3077
Vthing
p3078
I2
ss(g584
tp3079
(dp3080
Vwater
p3081
I2
sVmovie
p3082
I2
sg2775
I3
ss(Vrules
p3083
tp3084
(dp3085
g1547
I4
ss(Vlawyer
p3086
tp3087
(dp3088
Vwent
p3089
I2
sVhe
p3090
I2
ss(g218
tp3091
(dp3092
Vmet
p3093
I2
sVended
p3094
I2
ss(Vfeel
p3095
tp3096
(dp3097
Va
p3098
I2
sVabout
p3099
I2
sVlike
p3100
I3
sVbetter
p3101
I2
sVthe
p3102
I2
sVthats
p3103
I2
ss(V8th
p3104
tp3105
(dp3106
V9th
p3107
I2
ss(g213
tp3108
(dp3109
Vkivi
p3110
I2
ss(Vspace
p3111
tp3112
(dp3113
g1922
I2
sVbetween
p3114
I2
ss(g1345
tp3115
(dp3116
Vto
p3117
I2
ss(Vlots
p3118
tp3119
(dp3120
Vof
p3121
I4
sVother
p3122
I2
ss(Vhook
p3123
tp3124
(dp3125
Vup
p3126
I2
ss(Vmeans
p3127
tp3128
(dp3129
Vconch
p3130
I2
sVyou
p3131
I2
sVluck
p3132
I2
sVsky
p3133
I2
sVthat
p3134
I2
ss(Vreason
p3135
tp3136
(dp3137
V12
p3138
I2
sVfor
p3139
I2
sVthat
p3140
I2
sVi
p3141
I2
sVto
p3142
I2
sVthan
p3143
I2
ss(Valright
p3144
tp3145
(dp3146
Vgrowing
p3147
I2
sVexplain
p3148
I2
ss(g1879
tp3149
(dp3150
Vi
p3151
I2
ss(g2494
tp3152
(dp3153
Vthis
p3154
I3
sVyou
p3155
I2
sVthat
p3156
I2
ss(Vinjury
p3157
tp3158
(dp3159
Vit
p3160
I2
ss(Vrafting
p3161
tp3162
(dp3163
Vtrips
p3164
I2
ss(Vescape
p3165
tp3166
(dp3167
Vrooms
p3168
I2
ss(Vwin
p3169
tp3170
(dp3171
Vi
p3172
I2
sVdoesnt
p3173
I2
ss(Vromantic
p3174
tp3175
(dp3176
Vlife
p3177
I2
ss(Vtho
p3178
tp3179
(dp3180
Vi
p3181
I2
ss(Vbad
p3182
tp3183
(dp3184
Vabout
p3185
I2
sVfor
p3186
I2
sg214
I2
sVbut
p3187
I4
sVparents
p3188
I2
sVapples
p3189
I2
sVtime
p3190
I2
sVsituation
p3191
I2
sVguys
p3192
I2
ss(Vaffect
p3193
tp3194
(dp3195
Vwomen
p3196
I2
ss(Vplus
p3197
tp3198
(dp3199
Vyou
p3200
I2
ss(g1363
tp3201
(dp3202
Va
p3203
I3
sVto
p3204
I4
sVthis
p3205
I2
ss(Vfemales
p3206
tp3207
(dp3208
Vthe
p3209
I2
ss(Vuniversity
p3210
tp3211
(dp3212
Vand
p3213
I2
ss(Vconsider
p3214
tp3215
(dp3216
Vdoing
p3217
I4
ss(Vlocally
p3218
tp3219
(dp3220
Vowned
p3221
I2
ss(g570
tp3222
(dp3223
Vsimultaneously
p3224
I2
ss(Vmutch
p3225
tp3226
(dp3227
Vmeaning
p3228
I2
ss(Va
p3229
tp3230
(dp3231
Vsalon
p3232
I2
sVparticularly
p3233
I2
sVmonth
p3234
I4
sVbomb
p3235
I2
sVits
p3236
I2
sVverizon
p3237
I2
sVfit
p3238
I2
sVfeminist
p3239
I2
sg1474
I2
sVpoint
p3240
I3
sVpotential
p3241
I2
sVblack
p3242
I2
sVpretty
p3243
I2
sVprison
p3244
I2
sVmatch
p3245
I2
sVwoman
p3246
I3
sVvery
p3247
I2
sVsucker
p3248
I2
sVcouple
p3249
I3
sg278
I2
sVchoice
p3250
I2
sg324
I2
sVnew
p3251
I3
sVtrade
p3252
I2
sVbit
p3253
I3
sg2187
I2
sg2081
I2
sVspecific
p3254
I2
sVbad
p3255
I3
sg341
I2
sVsmall
p3256
I3
sVguy
p3257
I4
sVside
p3258
I2
sVfair
p3259
I2
sVpicture
p3260
I2
sVjob
p3261
I2
sVback
p3262
I2
sVfucktard
p3263
I2
sVsecond
p3264
I2
sVvideo
p3265
I2
sg3086
I3
sVgirl
p3266
I3
sVreally
p3267
I2
sg444
I2
sVfactory
p3268
I2
sg1671
I2
sVhorrible
p3269
I2
sg2689
I2
sVbrewery
p3270
I2
sg1731
I2
sVtrap
p3271
I2
sVfull
p3272
I3
sVdegree
p3273
I3
sVreason
p3274
I3
sVhomophobe
p3275
I2
sg2336
I2
sVgreat
p3276
I3
sVnetflix
p3277
I2
sVjoke
p3278
I2
sg2088
I5
sVterrible
p3279
I2
sVceremonial
p3280
I2
sVconversation
p3281
I2
sVshiny
p3282
I2
sg1197
I2
sVteenage
p3283
I2
sVclinton
p3284
I3
sVmiscommunication
p3285
I3
sVpresidents
p3286
I5
sg2870
I2
sVscene
p3287
I2
sV61
p3288
I2
sVfemale
p3289
I2
sVbeheaded
p3290
I2
sVopen
p3291
I2
sVgateway
p3292
I2
sVlittle
p3293
I4
sVdecent
p3294
I3
sg3218
I2
sVfew
p3295
I6
sVmuch
p3296
I3
sVlot
p3297
I7
sVfriend
p3298
I2
sVlife
p3299
I2
sVmurder
p3300
I2
sVpassed
p3301
I2
sVform
p3302
I2
sVfire
p3303
I7
sg1135
I2
sg1596
I2
sVglass
p3304
I2
sVchild
p3305
I3
sV90
p3306
I2
sVturban
p3307
I2
sVdouble
p3308
I3
sVwhile
p3309
I2
sVpromising
p3310
I2
sVcollege
p3311
I2
sVpiece
p3312
I2
sVthinfabric
p3313
I2
sVaverage
p3314
I2
sVand
p3315
I2
sg3024
I3
sVuniversal
p3316
I2
sg1533
I2
sVdeep
p3317
I2
sVstroke
p3318
I2
sVgood
p3319
I5
sVgirlfriend
p3320
I2
sg560
I2
sVhuge
p3321
I4
sVrelationship
p3322
I4
sg2255
I2
sVmajority
p3323
I2
sVsquad
p3324
I2
sVforest
p3325
I2
sVgrand
p3326
I2
sVparty
p3327
I2
sVweek
p3328
I4
sVfairly
p3329
I2
sVplay
p3330
I2
sVliving
p3331
I2
sVheatwave
p3332
I2
sg249
I2
sVpair
p3333
I2
sVcleaver
p3334
I2
sVman
p3335
I4
sg1566
I2
sg1629
I2
sVphone
p3336
I2
sg2144
I2
sVclear
p3337
I2
sVdaily
p3338
I2
sVserious
p3339
I2
sVsenior
p3340
I2
sVdream
p3341
I2
ss(Vwas
p3342
tp3343
(dp3344
Vsaying
p3345
I2
sVevidence
p3346
I2
sVjust
p3347
I2
sV51
p3348
I2
sVone
p3349
I2
sVasking
p3350
I2
sVdone
p3351
I2
sVperformed
p3352
I5
sVstill
p3353
I2
sVstanding
p3354
I2
sg2498
I7
sValso
p3355
I2
sVgoing
p3356
I3
sVtoo
p3357
I2
sVsurprise
p3358
I2
sg395
I2
sVexcited
p3359
I2
sg745
I2
sg1775
I2
sVnot
p3360
I3
sVnovember
p3361
I2
sVremoved
p3362
I2
sg1970
I2
sVa
p3363
I6
sVon
p3364
I3
sVyounger
p3365
I2
sg2608
I2
sVlike
p3366
I2
sVgetting
p3367
I2
sVtaking
p3368
I2
sg2221
I2
sV2001
p3369
I2
sVthe
p3370
I4
sVtold
p3371
I2
sVdiscussing
p3372
I2
ss(Vphysically
p3373
tp3374
(dp3375
Vhurt
p3376
I2
sVcapable
p3377
I2
ss(Vliterary
p3378
tp3379
(dp3380
Vanalysis
p3381
I2
ss(g1304
tp3382
(dp3383
Voutfits
p3384
I2
ss(g3253
tp3385
(dp3386
Von
p3387
I2
sVof
p3388
I2
ss(Vworkplace
p3389
tp3390
(dp3391
g36
I2
sg3157
I2
ss(Vgoof
p3392
tp3393
(dp3394
Varound
p3395
I2
ss(Vfish
p3396
tp3397
(dp3398
Vmatchcom
p3399
I2
ss(Vabuses
p3400
tp3401
(dp3402
Vmy
p3403
I2
ss(Vclearly
p3404
tp3405
(dp3406
Vi
p3407
I2
sg32
I2
ss(Vwins
p3408
tp3409
(dp3410
Vand
p3411
I2
ss(Vliberal
p3412
tp3413
(dp3414
Vfeminist
p3415
I2
ss(Vsum
p3416
tp3417
(dp3418
Vfuc
p3419
I2
ss(g797
tp3420
(dp3421
Vwith
p3422
I2
ss(g408
tp3423
(dp3424
Vset
p3425
I2
sVpartying
p3426
I2
sVdont
p3427
I2
sVpointing
p3428
I2
sg1985
I2
sVdoing
p3429
I2
sVover
p3430
I2
sVwalk
p3431
I2
sVcant
p3432
I3
sVbecause
p3433
I2
sVwant
p3434
I2
sVgo
p3435
I2
sVdifferent
p3436
I2
sVbased
p3437
I2
sVmake
p3438
I2
sVgive
p3439
I2
sVkidding
p3440
I2
sVwrite
p3441
I2
sVto
p3442
I5
sVprobably
p3443
I2
sVthousands
p3444
I2
sg2092
I2
sVfinished
p3445
I2
sVignorant
p3446
I2
sVwear
p3447
I2
sVtrying
p3448
I2
sVremember
p3449
I2
sVabout
p3450
I3
sVcommenting
p3451
I2
sVlike
p3452
I2
sVassume
p3453
I2
sVdeterioration
p3454
I2
sVthe
p3455
I2
ss(Vdays
p3456
tp3457
(dp3458
Vin
p3459
I2
sg3165
I2
ss(g845
tp3460
(dp3461
g332
I2
sVunderstand
p3462
I2
sVhave
p3463
I3
sVchange
p3464
I3
sVknow
p3465
I2
ss(Vhouse
p3466
tp3467
(dp3468
Vand
p3469
I2
sVon
p3470
I2
sVi
p3471
I2
sVthere
p3472
I2
sg766
I7
sVby
p3473
I2
ss(g1405
tp3474
(dp3475
Vuse
p3476
I2
ss(g2460
tp3477
(dp3478
Vand
p3479
I2
sVon
p3480
I2
ss(g2632
tp3481
(dp3482
Vand
p3483
I3
sVesp
p3484
I2
sVi
p3485
I2
sVmany
p3486
I2
sVyoung
p3487
I2
sVlate
p3488
I2
sVmuch
p3489
I2
sVsecretive
p3490
I2
ss(Vprofile
p3491
tp3492
(dp3493
Vand
p3494
I2
ss(Vthreat
p3495
tp3496
(dp3497
Vi
p3498
I2
ss(g2663
tp3499
(dp3500
Vend
p3501
I2
ss(g3028
tp3502
(dp3503
Vwherein
p3504
I2
ss(Vage
p3505
tp3506
(dp3507
g3178
I2
sVi
p3508
I2
sVwomen
p3509
I2
ss(Vthatll
p3510
tp3511
(dp3512
Vpay
p3513
I2
ss(Vverizon
p3514
tp3515
(dp3516
Vbeing
p3517
I2
sVphone
p3518
I2
sVevery
p3519
I2
ss(Vmost
p3520
tp3521
(dp3522
Vof
p3523
I2
sg2413
I2
sVpart
p3524
I2
sVupvoted
p3525
I2
sVpeople
p3526
I2
ss(Vtoyota
p3527
tp3528
(dp3529
Vsedan
p3530
I2
ss(Vshow
p3531
tp3532
(dp3533
Vyoull
p3534
I2
sVyou
p3535
I2
sVwith
p3536
I2
ss(Vdemocratic
p3537
tp3538
(dp3539
g1262
I2
ss(g2432
tp3540
(dp3541
Vthat
p3542
I2
ss(Vyea
p3543
tp3544
(dp3545
Vhe
p3546
I2
ss(Vkhakis
p3547
tp3548
(dp3549
g1305
I2
ss(Vstorm
p3550
tp3551
(dp3552
Vtroopers
p3553
I2
ss(Vofficer
p3554
tp3555
(dp3556
Vfrom
p3557
I2
sVfor
p3558
I2
ss(g1750
tp3559
(dp3560
Vjob
p3561
I2
ss(Vgenerally
p3562
tp3563
(dp3564
Vbigger
p3565
I2
sVpretty
p3566
I2
ss(Vetmeniz
p3567
tp3568
(dp3569
g2074
I2
ss(g1722
tp3570
(dp3571
Vus
p3572
I2
ss(Vlol
p3573
tp3574
(dp3575
Vi
p3576
I2
sVwhat
p3577
I2
sVbut
p3578
I2
ss(g1757
tp3579
(dp3580
Vand
p3581
I2
ss(Vrice
p3582
tp3583
(dp3584
V57
p3585
I2
ss(g2346
tp3586
(dp3587
Vright
p3588
I2
sVconvey
p3589
I2
sVpretty
p3590
I2
sg2739
I2
sVclosed
p3591
I2
sg692
I2
sg433
I2
ss(Vchristmas
p3592
tp3593
(dp3594
Va
p3595
I2
ss(Vcheeks
p3596
tp3597
(dp3598
Vare
p3599
I2
ss(g933
tp3600
(dp3601
Vthem
p3602
I2
sVher
p3603
I2
ss(Vanswers
p3604
tp3605
(dp3606
g1525
I4
ss(Vyes
p3607
tp3608
(dp3609
Vthere
p3610
I2
sVbut
p3611
I2
sVtheres
p3612
I2
ss(Vexplain
p3613
tp3614
(dp3615
Vthe
p3616
I3
sVsomething
p3617
I2
ss(Vcare
p3618
tp3619
(dp3620
Vand
p3621
I3
sVhow
p3622
I2
sVas
p3623
I2
sVto
p3624
I2
ss(Vhelped
p3625
tp3626
(dp3627
Vput
p3628
I2
sVa
p3629
I2
ss(Vphotos
p3630
tp3631
(dp3632
Von
p3633
I2
ss(Vm
p3634
tp3635
(dp3636
Vaurora
p3637
I2
ss(Vimportant
p3638
tp3639
(dp3640
Vand
p3641
I2
sVits
p3642
I2
ss(Vwhos
p3643
tp3644
(dp3645
Vjob
p3646
I2
ss(g123
tp3647
(dp3648
Vwith
p3649
I2
ss(Vyama
p3650
tp3651
(dp3652
Vin
p3653
I2
ss(Vdrawing
p3654
tp3655
(dp3656
Vfo
p3657
I2
ss(Vwasnt
p3658
tp3659
(dp3660
Va
p3661
I2
sg1029
I2
ss(Vitd
p3662
tp3663
(dp3664
Vbe
p3665
I3
sVmake
p3666
I2
sVprobably
p3667
I2
ss(g893
tp3668
(dp3669
Vbe
p3670
I2
sVnever
p3671
I3
ss(Vamazing
p3672
tp3673
(dp3674
Vwe
p3675
I2
sg1975
I2
ss(Vinto
p3676
tp3677
(dp3678
Va
p3679
I5
sVthat
p3680
I2
sVsome
p3681
I2
sVit
p3682
I2
sVmartial
p3683
I2
sVin
p3684
I2
sVthe
p3685
I3
sVmy
p3686
I2
ss(g3063
tp3687
(dp3688
Vthe
p3689
I2
ss(Vconstantly
p3690
tp3691
(dp3692
Vtalks
p3693
I2
ss(Vhours
p3694
tp3695
(dp3696
g2931
I2
ss(g1184
tp3697
(dp3698
Vto
p3699
I2
sVwe
p3700
I2
sVabout
p3701
I3
ss(Vhad
p3702
tp3703
(dp3704
Va
p3705
I3
sVmultiple
p3706
I2
sVthat
p3707
I2
sg175
I7
sVmany
p3708
I2
sVan
p3709
I2
sVto
p3710
I4
sV2
p3711
I2
sVin
p3712
I2
sVmy
p3713
I2
sVits
p3714
I2
sVmore
p3715
I2
ss(g73
tp3716
(dp3717
Vthis
p3718
I2
sVthe
p3719
I2
ss(Vstandards
p3720
tp3721
(dp3722
Vhere
p3723
I2
ss(Vleaving
p3724
tp3725
(dp3726
g491
I2
ss(Vadvance
p3727
tp3728
(dp3729
Vby
p3730
I2
ss(g765
tp3731
(dp3732
g3491
I2
sVown
p3733
I2
sVold
p3734
I2
sVfamily
p3735
I2
sVpocket
p3736
I2
sVhouse
p3737
I2
sVgrandma
p3738
I2
sVjeans
p3739
I2
sg2462
I3
sVtextbook
p3740
I2
sg639
I2
sVgf
p3741
I2
sg2998
I4
sg992
I2
sVquestion
p3742
I2
sg1688
I2
sVbest
p3743
I2
sVorgans
p3744
I2
sVpeers
p3745
I2
sg514
I3
sVgenetics
p3746
I2
sVgrandad
p3747
I2
sg448
I2
sVjaw
p3748
I2
sVtop
p3749
I3
sVemotions
p3750
I2
sVl4
p3751
I2
sVbestcase
p3752
I2
sVcoochie
p3753
I2
sVexamples
p3754
I2
sVhigh
p3755
I2
sg2633
I2
sV9
p3756
I2
sg728
I2
sg3060
I2
sVfather
p3757
I2
sVphone
p3758
I2
sg3064
I3
sVlife
p3759
I2
sVpower
p3760
I2
sg2528
I2
sVproblems
p3761
I2
sg785
I3
sVgirlfriends
p3762
I2
sVwisdom
p3763
I2
sg712
I2
sg2002
I2
sVmom
p3764
I4
sVhands
p3765
I2
sVdad
p3766
I3
sVline
p3767
I2
sVsally
p3768
I2
sVjunior
p3769
I2
sVshirt
p3770
I2
sVfeet
p3771
I2
sg2651
I4
sVdaughter
p3772
I2
sg3174
I2
sVspinal
p3773
I2
sVfoot
p3774
I2
sVgender
p3775
I2
sVbutton
p3776
I2
sVwife
p3777
I2
sg2274
I3
sVcat
p3778
I2
sg1608
I2
sV28yo
p3779
I2
sVgran
p3780
I2
sVsocial
p3781
I2
sVchildhood
p3782
I2
sVfirst
p3783
I2
ss(V300
p3784
tp3785
(dp3786
Vpeople
p3787
I2
ss(g551
tp3788
(dp3789
Von
p3790
I3
ss(Vacceptable
p3791
tp3792
(dp3793
Vwhat
p3794
I2
sVfor
p3795
I2
ss(Vsooner
p3796
tp3797
(dp3798
Vthan
p3799
I2
ss(g3431
tp3800
(dp3801
Vto
p3802
I2
sVaround
p3803
I4
ss(Vsatiate
p3804
tp3805
(dp3806
Vyour
p3807
I2
ss(g1898
tp3808
(dp3809
Vthem
p3810
I2
ss(Vmenstruation
p3811
tp3812
(dp3813
Vetc
p3814
I2
ss(Vcould
p3815
tp3816
(dp3817
Varbitrarily
p3818
I2
sVbe
p3819
I2
sVgather
p3820
I2
sVjust
p3821
I2
sVget
p3822
I2
sVnever
p3823
I2
sVwalk
p3824
I2
sg1113
I2
sVgo
p3825
I2
sVhappen
p3826
I2
sVreally
p3827
I2
ss(g3318
tp3828
(dp3829
Va
p3830
I2
sVnow
p3831
I2
ss(g1859
tp3832
(dp3833
g1054
I2
ss(g375
tp3834
(dp3835
V1raskredditwikiindexwikirule1
p3836
I2
ss(Vsmell
p3837
tp3838
(dp3839
Vof
p3840
I2
ss(g3765
tp3841
(dp3842
g1521
I2
ss(Vsearch
p3843
tp3844
(dp3845
Vresults
p3846
I2
ss(g1201
tp3847
(dp3848
Vthe
p3849
I2
ss(Vstrength
p3850
tp3851
(dp3852
Vkind
p3853
I2
ss(Vcompliments
p3854
tp3855
(dp3856
Vis
p3857
I2
ss(g2692
tp3858
(dp3859
Vto
p3860
I2
ss(g2026
tp3861
(dp3862
Vbecause
p3863
I2
ss(g3235
tp3864
(dp3865
Vdiscovered
p3866
I2
sVand
p3867
I2
ss(Vout
p3868
tp3869
(dp3870
Vand
p3871
I2
sVa
p3872
I2
sg2977
I2
sVlike
p3873
I2
sVfor
p3874
I3
sVthat
p3875
I2
sVof
p3876
I5
sVwell
p3877
I2
sVisnt
p3878
I2
sVgirls
p3879
I2
sVwish
p3880
I2
sVahead
p3881
I2
sVmy
p3882
I2
sVits
p3883
I2
ss(Vridicule
p3884
tp3885
(dp3886
Vto
p3887
I2
ss(Vbecome
p3888
tp3889
(dp3890
Vclear
p3891
I2
ss(Vhavent
p3892
tp3893
(dp3894
Veven
p3895
I2
sVdone
p3896
I2
ss(g3168
tp3897
(dp3898
Vit
p3899
I2
ss(Vcalm
p3900
tp3901
(dp3902
Vher
p3903
I2
ss(Vunionize
p3904
tp3905
(dp3906
Vand
p3907
I2
ss(g3779
tp3908
(dp3909
Vhusband
p3910
I2
ss(Vtextbox
p3911
tp3912
(dp3913
Vi
p3914
I2
ss(g1382
tp3915
(dp3916
Vfood
p3917
I2
sVcommon
p3918
I2
ss(g3657
tp3919
(dp3920
Vsho
p3921
I2
ss(Vsneezing
p3922
tp3923
(dp3924
Vin
p3925
I2
ss(Vemotionally
p3926
tp3927
(dp3928
Vabusive
p3929
I2
ss(Vim
p3930
tp3931
(dp3932
Va
p3933
I4
sV25
p3934
I2
sV21
p3935
I2
sVjust
p3936
I2
sVstuck
p3937
I2
sVdoing
p3938
I3
sVtaking
p3939
I2
sg135
I2
sVthis
p3940
I2
sV35
p3941
I2
sV34
p3942
I2
sVvery
p3943
I3
sVparanoid
p3944
I2
sVnot
p3945
I5
sV100
p3946
I2
sVglad
p3947
I2
ss(Vsuits
p3948
tp3949
(dp3950
Vwhile
p3951
I2
sVare
p3952
I2
ss(g1330
tp3953
(dp3954
Vdisagree
p3955
I2
ss(g1404
tp3956
(dp3957
Vmy
p3958
I2
ss(Vbig
p3959
tp3960
(dp3961
Vones
p3962
I2
ss(Vazna
p3963
tp3964
(dp3965
g2763
I2
ss(Vlate
p3966
tp3967
(dp3968
V70s
p3969
I2
ss(Vgenes
p3970
tp3971
(dp3972
Vthat
p3973
I2
ss(Vfeels
p3974
tp3975
(dp3976
Vsorry
p3977
I2
ss(Vsword
p3978
tp3979
(dp3980
Vwhen
p3981
I2
ss(Vequally
p3982
tp3983
(dp3984
Vlikely
p3985
I2
ss(g3428
tp3986
(dp3987
Vout
p3988
I2
ss(g3683
tp3989
(dp3990
Varts
p3991
I2
ss(Vpsychologically
p3992
tp3993
(dp3994
g3400
I2
ss(g985
tp3995
(dp3996
Vwhen
p3997
I2
ss(Vlet
p3998
tp3999
(dp4000
Vthe
p4001
I2
sVhim
p4002
I2
sVus
p4003
I2
ss(Vcuts
p4004
tp4005
(dp4006
Vif
p4007
I2
ss(Vyoud
p4008
tp4009
(dp4010
Vlearn
p4011
I2
ss(Vleonard
p4012
tp4013
(dp4014
Vcohen
p4015
I2
ss(Vimprove
p4016
tp4017
(dp4018
Vsince
p4019
I2
ss(g3753
tp4020
(dp4021
g720
I2
ss(Vtitans
p4022
tp4023
(dp4024
Vgo
p4025
I2
ss(g800
tp4026
(dp4027
Vin
p4028
I2
ss(Vdebunked
p4029
tp4030
(dp4031
Vcountless
p4032
I2
ss(Vcomfy
p4033
tp4034
(dp4035
g1058
I2
ss(Vcannot
p4036
tp4037
(dp4038
Vstop
p4039
I2
ss(Vmeet
p4040
tp4041
(dp4042
g2573
I2
sVoffline
p4043
I2
sVsomeone
p4044
I3
sVthere
p4045
I2
ss(g3504
tp4046
(dp4047
Va
p4048
I2
ss(g1332
tp4049
(dp4050
Vit
p4051
I2
ss(g3365
tp4052
(dp4053
g36
I2
ss(Vaccusers
p4054
tp4055
(dp4056
Vbecause
p4057
I2
ss(V500
p4058
tp4059
(dp4060
Vlbs
p4061
I2
sVcourts
p4062
I2
ss(Venergy
p4063
tp4064
(dp4065
Vto
p4066
I2
ss(g1299
tp4067
(dp4068
Veach
p4069
I2
ss(g1790
tp4070
(dp4071
Vstart
p4072
I2
ss(g3009
tp4073
(dp4074
Vi
p4075
I2
sVyou
p4076
I2
ss(g2852
tp4077
(dp4078
Vbday
p4079
I2
ss(Vyour
p4080
tp4081
(dp4082
Vown
p4083
I3
sVerect
p4084
I2
sVguess
p4085
I2
sVdata
p4086
I2
sVfriends
p4087
I2
sVideas
p4088
I2
sVsnot
p4089
I2
sg2981
I2
sVturban
p4090
I2
sVfriend
p4091
I2
sg1901
I4
sVproblems
p4092
I2
sVupbringing
p4093
I2
sVhand
p4094
I2
sVmost
p4095
I2
sVpost
p4096
I3
sg1543
I2
sVdemogrphic
p4097
I2
sVsuccess
p4098
I2
sVnavel
p4099
I2
sVwhole
p4100
I2
sg2440
I2
ss(Vweekends
p4101
tp4102
(dp4103
Vgame
p4104
I2
ss(g1801
tp4105
(dp4106
Vwhile
p4107
I2
ss(g1846
tp4108
(dp4109
Vi
p4110
I2
sVall
p4111
I2
ss(Vantiballcrush
p4112
tp4113
(dp4114
Vpants
p4115
I2
ss(Vheavily
p4116
tp4117
(dp4118
g2581
I2
ss(g1808
tp4119
(dp4120
Vi
p4121
I2
sg3884
I2
sVdress
p4122
I2
ss(Vjoggers
p4123
tp4124
(dp4125
Vtheyre
p4126
I2
ss(Voh
p4127
tp4128
(dp4129
Vand
p4130
I2
sVwe
p4131
I2
sVwow
p4132
I2
ss(g3287
tp4133
(dp4134
Vwhere
p4135
I2
ss(Vpossibility
p4136
tp4137
(dp4138
Vtrump
p4139
I2
ss(g3306
tp4140
(dp4141
Vsuccess
p4142
I2
ss(g2970
tp4143
(dp4144
g2510
I2
ss(Vinformation
p4145
tp4146
(dp4147
Vit
p4148
I2
ss(Vmemory
p4149
tp4150
(dp4151
Vdoing
p4152
I2
ss(g38
tp4153
(dp4154
Va
p4155
I2
sVwe
p4156
I2
sVfor
p4157
I3
sVof
p4158
I6
sVmen
p4159
I3
sVit
p4160
I3
sVtheyre
p4161
I2
sVbook
p4162
I2
sVthey
p4163
I4
sVthe
p4164
I3
sVmy
p4165
I2
sVif
p4166
I3
ss(Vkitchen
p4167
tp4168
(dp4169
Vcounter
p4170
I2
ss(Vbother
p4171
tp4172
(dp4173
Vany
p4174
I2
ss(Vjim
p4175
tp4176
(dp4177
Vand
p4178
I2
sVmaybe
p4179
I2
ss(g3877
tp4180
(dp4181
Vme
p4182
I3
sVdo
p4183
I2
sVfor
p4184
I2
sVi
p4185
I2
sVone
p4186
I2
sVpaying
p4187
I2
sVsorry
p4188
I2
ss(Vshape
p4189
tp4190
(dp4191
Vof
p4192
I2
sg3197
I2
ss(Vsites
p4193
tp4194
(dp4195
Vhonestly
p4196
I2
ss(Vfrat
p4197
tp4198
(dp4199
Vbrother
p4200
I2
ss(Vkilts
p4201
tp4202
(dp4203
g112
I2
ss(Vsnowboarding
p4204
tp4205
(dp4206
g4101
I2
ss(g125
tp4207
(dp4208
Vof
p4209
I2
ss(Vhello
p4210
tp4211
(dp4212
Vbut
p4213
I2
ss(Vespionage
p4214
tp4215
(dp4216
Veither
p4217
I2
ss(g597
tp4218
(dp4219
Vis
p4220
I2
ss(g3767
tp4221
(dp4222
Vour
p4223
I2
ss(g3591
tp4224
(dp4225
Vand
p4226
I2
ss(g3192
tp4227
(dp4228
Vstory
p4229
I2
sVfrom
p4230
I2
sVjust
p4231
I2
sVget
p4232
I2
sVto
p4233
I2
sVwere
p4234
I2
ss(g3232
tp4235
(dp4236
Vand
p4237
I2
ss(g66
tp4238
(dp4239
Vtheir
p4240
I2
sVfor
p4241
I2
sVto
p4242
I4
ss(g483
tp4243
(dp4244
Vand
p4245
I2
ss(Vof
p4246
tp4247
(dp4248
Vcriticism
p4249
I2
sVpeople
p4250
I3
sVfucking
p4251
I2
sg2612
I3
sg3396
I2
sVjeans
p4252
I2
sVit
p4253
I6
sVan
p4254
I2
sVnothing
p4255
I2
sg1905
I2
sVguy
p4256
I2
sVthicker
p4257
I2
sVroots
p4258
I2
sg3378
I2
sVwhat
p4259
I2
sVus
p4260
I2
sVworking
p4261
I2
sVentertainment
p4262
I2
sg1493
I3
sg835
I3
sVyour
p4263
I2
sVpassive
p4264
I2
sVtheir
p4265
I2
sVsawhorses
p4266
I2
sVreddit
p4267
I2
sg3550
I2
sg1634
I2
sV7
p4268
I2
sVvarious
p4269
I2
sVyou
p4270
I3
sVme
p4271
I4
sVthem
p4272
I4
sVsomeone
p4273
I2
sVcreating
p4274
I2
sg3514
I2
sVthat
p4275
I4
sVfood
p4276
I2
sg1575
I2
sVmen
p4277
I4
sVbut
p4278
I2
sg2173
I2
sVmembership
p4279
I2
sVlift
p4280
I2
sVprofiles
p4281
I2
sg2708
I2
sg2809
I2
sVyears
p4282
I3
sVguys
p4283
I2
sg627
I2
sVthose
p4284
I3
sVwomen
p4285
I2
sVa
p4286
I7
sV15
p4287
I2
sVanything
p4288
I2
sVthis
p4289
I5
sVheist
p4290
I2
sg3527
I2
sVthanksgiving
p4291
I2
sVcandy
p4292
I2
sg1612
I2
sVperson
p4293
I2
sg2062
I2
sVdirection
p4294
I2
sVthe
p4295
I17
sVmale
p4296
I2
sVmy
p4297
I6
sg4210
I2
sVwine
p4298
I2
ss(g1120
tp4299
(dp4300
Vtunal
p4301
I2
ss(Vwork
p4302
tp4303
(dp4304
g1069
I2
sVfull
p4305
I2
sVfor
p4306
I2
sVthat
p4307
I2
sg3815
I2
sVas
p4308
I2
sVoutside
p4309
I2
sVwithout
p4310
I2
sg2402
I2
sVyou
p4311
I2
sVwith
p4312
I2
ss(g789
tp4313
(dp4314
Vhips
p4315
I2
ss(Vbikes
p4316
tp4317
(dp4318
Vare
p4319
I2
sVhave
p4320
I2
ss(g937
tp4321
(dp4322
g424
I2
sVlooking
p4323
I2
sVnot
p4324
I2
ss(Vprimaries
p4325
tp4326
(dp4327
Vif
p4328
I2
ss(g3764
tp4329
(dp4330
Vsaid
p4331
I2
sg2565
I2
sVtold
p4332
I2
ss(Vdaha
p4333
tp4334
(dp4335
Vdnn
p4336
I2
ss(Vgym
p4337
tp4338
(dp4339
Vi
p4340
I2
ss(Vlatune
p4341
tp4342
(dp4343
Vand
p4344
I2
ss(Vupvote
p4345
tp4346
(dp4347
Vthis
p4348
I2
ss(Vstart
p4349
tp4350
(dp4351
Vof
p4352
I2
sVall
p4353
I2
sVthe
p4354
I2
sVforming
p4355
I2
ss(Vevo
p4356
tp4357
(dp4358
g527
I2
ss(Vvote
p4359
tp4360
(dp4361
Vdidnt
p4362
I2
ss(Vwriters
p4363
tp4364
(dp4365
Von
p4366
I2
sVare
p4367
I2
ss(g3509
tp4368
(dp4369
Vare
p4370
I2
sVlawyers
p4371
I2
sVespecially
p4372
I2
sVthat
p4373
I2
sVdue
p4374
I2
sVrate
p4375
I2
sVat
p4376
I2
sVin
p4377
I2
sVcan
p4378
I2
ss(Vcord
p4379
tp4380
(dp4381
Vfun
p4382
I2
ss(Vheart
p4383
tp4384
(dp4385
Vrate
p4386
I2
ss(g3282
tp4387
(dp4388
Vbauble
p4389
I2
ss(Veh
p4390
tp4391
(dp4392
Vi
p4393
I2
ss(Vbro
p4394
tp4395
(dp4396
Vyou
p4397
I2
ss(Vstory
p4398
tp4399
(dp4400
Vwith
p4401
I2
ss(g1754
tp4402
(dp4403
Vof
p4404
I3
sVwomens
p4405
I2
ss(Vnsfw
p4406
tp4407
(dp4408
Vpics
p4409
I2
ss(Vcompass
p4410
tp4411
(dp4412
Vtheres
p4413
I2
ss(Vunderwear
p4414
tp4415
(dp4416
Vyeahhh
p4417
I2
ss(g1188
tp4418
(dp4419
Vi
p4420
I7
sVto
p4421
I2
sVthe
p4422
I2
ss(Vcivil
p4423
tp4424
(dp4425
Vdespite
p4426
I2
ss(Vnorm
p4427
tp4428
(dp4429
Vdespite
p4430
I2
ss(Vnonlanguage
p4431
tp4432
(dp4433
Vrelated
p4434
I2
ss(g3484
tp4435
(dp4436
g3926
I2
ss(Vsecret
p4437
tp4438
(dp4439
Vis
p4440
I2
ss(g1803
tp4441
(dp4442
Vchanges
p4443
I2
ss(g4434
tp4444
(dp4445
Vthings
p4446
I2
sVgoals
p4447
I2
ss(Vvertebrae
p4448
tp4449
(dp4450
g1223
I2
ss(V100
p4451
tp4452
(dp4453
Vsure
p4454
I2
sg1962
I2
ss(Vcomment
p4455
tp4456
(dp4457
Vespecially
p4458
I2
sVparent
p4459
I4
ss(g1793
tp4460
(dp4461
Vso
p4462
I2
sVwe
p4463
I2
sVwhen
p4464
I3
ss(g1241
tp4465
(dp4466
Va
p4467
I5
sVall
p4468
I3
sVgood
p4469
I2
sVjust
p4470
I2
sVfor
p4471
I2
sVabsolutely
p4472
I2
sValways
p4473
I2
sVbad
p4474
I2
sVkind
p4475
I2
sVcomfortable
p4476
I2
sVlike
p4477
I2
sVseriously
p4478
I2
sVhis
p4479
I2
sVso
p4480
I2
sg2046
I2
sVtime
p4481
I2
sVnot
p4482
I6
sg3888
I2
sg2263
I3
sVworth
p4483
I2
sVmore
p4484
I2
ss(g4086
tp4485
(dp4486
Vand
p4487
I2
sVto
p4488
I2
sVis
p4489
I2
ss(Vresurface
p4490
tp4491
(dp4492
g2229
I2
ss(g3736
tp4493
(dp4494
Vgood
p4495
I2
ss(Vten
p4496
tp4497
(dp4498
Vi
p4499
I2
ss(g3752
tp4500
(dp4501
Vscenario
p4502
I2
ss(g3358
tp4503
(dp4504
Vsurprise
p4505
I2
sVset
p4506
I2
ss(Vparoled
p4507
tp4508
(dp4509
Vfrom
p4510
I2
ss(g4100
tp4511
(dp4512
Vdiscussion
p4513
I2
sVfamily
p4514
I2
sVenterprise
p4515
I2
ss(Vyear
p4516
tp4517
(dp4518
Vi
p4519
I2
sVfor
p4520
I2
ss(Vliterature
p4521
tp4522
(dp4523
Vand
p4524
I2
ss(g164
tp4525
(dp4526
Vat
p4527
I2
ss(g3238
tp4528
(dp4529
Vshe
p4530
I2
sVfor
p4531
I2
ss(Vduring
p4532
tp4533
(dp4534
Va
p4535
I2
sVthe
p4536
I3
ss(Vpuns
p4537
tp4538
(dp4539
Vand
p4540
I4
ss(Vhorn
p4541
tp4542
(dp4543
Vof
p4544
I2
ss(Vliterally
p4545
tp4546
(dp4547
g4036
I2
sVdescribed
p4548
I2
ss(g1814
tp4549
(dp4550
g36
I2
sVliving
p4551
I2
sVgreat
p4552
I2
sVmoney
p4553
I2
sVwith
p4554
I2
sVwho
p4555
I3
sVsay
p4556
I2
sg3643
I2
sVwill
p4557
I2
sVto
p4558
I3
sVwhile
p4559
I2
sVevery
p4560
I2
sVare
p4561
I2
sVwere
p4562
I2
sg523
I2
sVexist
p4563
I2
sVsway
p4564
I2
sVby
p4565
I2
ss(Vofficers
p4566
tp4567
(dp4568
Vmade
p4569
I2
ss(Vactually
p4570
tp4571
(dp4572
Vget
p4573
I2
sVdoing
p4574
I2
sVmet
p4575
I2
sVgoing
p4576
I2
sg2104
I2
sVgot
p4577
I2
sg2114
I2
sVmakes
p4578
I2
ss(Vbutter
p4579
tp4580
(dp4581
Vi
p4582
I2
ss(g4091
tp4583
(dp4584
g36
I2
sVgroup
p4585
I2
sVjust
p4586
I2
ss(Vwinter
p4587
tp4588
(dp4589
Vi
p4590
I2
sVday
p4591
I2
sVwould
p4592
I2
ss(Vokcupid
p4593
tp4594
(dp4595
g2054
I2
sVwomen
p4596
I2
ss(g1848
tp4597
(dp4598
Vthem
p4599
I2
sVmy
p4600
I2
sVit
p4601
I2
ss(g941
tp4602
(dp4603
Vfrom
p4604
I4
ss(Vsubredditmessagecomposetoraskreddit
p4605
tp4606
(dp4607
Vif
p4608
I5
ss(g1925
tp4609
(dp4610
Vyou
p4611
I2
ss(Vlawsuit
p4612
tp4613
(dp4614
Vis
p4615
I3
ss(g3283
tp4616
(dp4617
Vgirl
p4618
I2
ss(Vspends
p4619
tp4620
(dp4621
Vmoney
p4622
I2
ss(Vnazi
p4623
tp4624
(dp4625
Vdobermans
p4626
I2
ss(Vbud
p4627
tp4628
(dp4629
Vit
p4630
I2
ss(Vaway
p4631
tp4632
(dp4633
Va
p4634
I2
sVwith
p4635
I2
sVenough
p4636
I2
sVfrom
p4637
I3
ss(Vcraziest
p4638
tp4639
(dp4640
Vones
p4641
I2
ss(Vcry
p4642
tp4643
(dp4644
Vwhen
p4645
I2
sg5
I3
ss(g823
tp4646
(dp4647
Vwhile
p4648
I2
ss(Vwe
p4649
tp4650
(dp4651
Vdo
p4652
I3
sg1909
I2
sVkept
p4653
I3
sVdont
p4654
I3
sg1715
I2
sVget
p4655
I2
sVhave
p4656
I3
sVcould
p4657
I2
sg1937
I2
sVcan
p4658
I2
sVneed
p4659
I3
sVsee
p4660
I2
sg1317
I2
sVwant
p4661
I2
sVusually
p4662
I3
sVgot
p4663
I2
sVmight
p4664
I2
sVrealize
p4665
I2
sVnearly
p4666
I3
ss(Vscum
p4667
tp4668
(dp4669
Vso
p4670
I2
ss(Vfloors
p4671
tp4672
(dp4673
Vin
p4674
I2
ss(g3399
tp4675
(dp4676
Vand
p4677
I2
ss(g3778
tp4678
(dp4679
Vmochi
p4680
I2
ss(g21
tp4681
(dp4682
Vthe
p4683
I2
sVgoals
p4684
I2
ss(g3249
tp4685
(dp4686
Vof
p4687
I3
sVpics
p4688
I2
ss(Vpresident
p4689
tp4690
(dp4691
Velect
p4692
I2
sVwhich
p4693
I2
sVin
p4694
I2
ss(Vinterpreted
p4695
tp4696
(dp4697
Vby
p4698
I2
ss(g3328
tp4699
(dp4700
Vago
p4701
I2
sVfrom
p4702
I2
ss(Vmiss
p4703
tp4704
(dp4705
Vthe
p4706
I2
ss(Vtunnel
p4707
tp4708
(dp4709
Vis
p4710
I2
ss(g4083
tp4711
(dp4712
Vi
p4713
I2
sVproblems
p4714
I2
sVlanguage
p4715
I2
sg610
I2
ss(Veachother
p4716
tp4717
(dp4718
Vand
p4719
I3
ss(Vholy
p4720
tp4721
(dp4722
g2225
I2
ss(Vcarpel
p4723
tp4724
(dp4725
g4707
I2
ss(Vcount
p4726
tp4727
(dp4728
Vto
p4729
I2
ss(Vthread
p4730
tp4731
(dp4732
Vsaid
p4733
I2
ss(g1359
tp4734
(dp4735
Vmafia
p4736
I2
ss(g36
tp4737
(dp4738
V
p4739
I4
sVreport
p4740
I4
sVim
p4741
I2
sVare
p4742
I2
sVhole
p4743
I2
sVbrowse
p4744
I2
sVbroad
p4745
I2
sVits
p4746
I4
sVrole
p4747
I2
sg741
I2
sVnice
p4748
I2
sVparent
p4749
I4
sVnot
p4750
I2
sg556
I2
sVnow
p4751
I2
sVwomen
p4752
I3
sVtry
p4753
I3
sVjokes
p4754
I4
sVso
p4755
I2
sVtall
p4756
I2
sg1
I2
sg2675
I2
ss(Vbby
p4757
tp4758
(dp4759
Vu
p4760
I2
ss(Vbir
p4761
tp4762
(dp4763
Vkere
p4764
I2
sVkullanc
p4765
I2
ss(g2136
tp4766
(dp4767
Vand
p4768
I2
sVwith
p4769
I2
ss(g3292
tp4770
(dp4771
Vto
p4772
I2
sVtheory
p4773
I2
ss(g2563
tp4774
(dp4775
g167
I2
sVwould
p4776
I2
sVwith
p4777
I3
sVwho
p4778
I5
sg840
I3
sVtries
p4779
I2
sVin
p4780
I2
sVnoticed
p4781
I2
sg1037
I2
sVor
p4782
I2
ss(Vsociable
p4783
tp4784
(dp4785
Vthe
p4786
I2
ss(Vwiden
p4787
tp4788
(dp4789
Vmy
p4790
I2
ss(g4274
tp4791
(dp4792
Vin
p4793
I2
ss(g2479
tp4794
(dp4795
Vbut
p4796
I2
ss(Vrunning
p4797
tp4798
(dp4799
Vfrom
p4800
I2
ss(Vkullanmak
p4801
tp4802
(dp4803
Viin
p4804
I2
ss(g17
tp4805
(dp4806
Va
p4807
I2
sV3
p4808
I2
sVwhen
p4809
I2
sVskimpy
p4810
I2
ss(g3384
tp4811
(dp4812
Vto
p4813
I2
sVevery
p4814
I2
ss(Vyanmalar
p4815
tp4816
(dp4817
Vdilde
p4818
I2
ss(g888
tp4819
(dp4820
Vof
p4821
I2
sVyour
p4822
I2
sVbut
p4823
I2
ss(Vcorrect
p4824
tp4825
(dp4826
Vit
p4827
I2
ss(Vcaused
p4828
tp4829
(dp4830
Vby
p4831
I2
ss(Vhard
p4832
tp4833
(dp4834
Vfor
p4835
I2
ss(g3308
tp4836
(dp4837
g2010
I2
sVedged
p4838
I2
sg3720
I2
ss(Vbelow
p4839
tp4840
(dp4841
Vthe
p4842
I2
ss(g4692
tp4843
(dp4844
Va
p4845
I2
sValways
p4846
I2
ss(g1784
tp4847
(dp4848
Vin
p4849
I2
ss(g1582
tp4850
(dp4851
g1501
I2
ss(g2495
tp4852
(dp4853
g1045
I2
ss(Vpuppets
p4854
tp4855
(dp4856
Vbut
p4857
I2
ss(g1841
tp4858
(dp4859
g1761
I2
ss(Vthings
p4860
tp4861
(dp4862
Vi
p4863
I2
sVfor
p4864
I2
sVway
p4865
I2
sVin
p4866
I2
ss(Vexcuse
p4867
tp4868
(dp4869
Vi
p4870
I2
ss(Vwellbeing
p4871
tp4872
(dp4873
Valso
p4874
I2
ss(Vhired
p4875
tp4876
(dp4877
Vin
p4878
I2
ss(Vcomet
p4879
tp4880
(dp4881
g2177
I2
ss(Vxmen
p4882
tp4883
(dp4884
Vmovies
p4885
I2
sVthe
p4886
I2
sVwould
p4887
I2
ss(Vnext
p4888
tp4889
(dp4890
Vto
p4891
I2
sV4
p4892
I3
ss(Vbox
p4893
tp4894
(dp4895
V
p4896
I2
sVis
p4897
I2
sVper
p4898
I2
ss(V13
p4899
tp4900
(dp4901
g2191
I2
ss(Vclothes
p4902
tp4903
(dp4904
Vis
p4905
I2
sVfrom
p4906
I3
sViron
p4907
I2
ss(Vpropose
p4908
tp4909
(dp4910
Vwe
p4911
I2
ss(g4301
tp4912
(dp4913
Velektronik
p4914
I2
ss(g3221
tp4915
(dp4916
Vone
p4917
I2
ss(Vsharp
p4918
tp4919
(dp4920
g2398
I2
ss(Vquite
p4921
tp4922
(dp4923
Va
p4924
I2
ss(g4743
tp4925
(dp4926
Vin
p4927
I2
ss(g1366
tp4928
(dp4929
Vmy
p4930
I2
ss(g9
tp4931
(dp4932
Vyou
p4933
I2
ss(g943
tp4934
(dp4935
Vafter
p4936
I2
ss(Vatmosphere
p4937
tp4938
(dp4939
Vhttpsyoutubedqw4w9wgxcq
p4940
I2
ss(g2602
tp4941
(dp4942
Vyet
p4943
I2
ss(Vacheive
p4944
tp4945
(dp4946
Vlike
p4947
I2
ss(Vheat
p4948
tp4949
(dp4950
Visnt
p4951
I2
ss(Vsmall
p4952
tp4953
(dp4954
Vtown
p4955
I2
sg2310
I2
sVbusiness
p4956
I2
ss(Vcalling
p4957
tp4958
(dp4959
Vthem
p4960
I2
ss(Vmarijuana
p4961
tp4962
(dp4963
Vuse
p4964
I2
ss(Vsufficient
p4965
tp4966
(dp4967
Vquantities
p4968
I2
ss(g3295
tp4969
(dp4970
Vand
p4971
I2
sVrelevant
p4972
I4
sg1242
I2
sVmovies
p4973
I2
sg1193
I2
sVothers
p4974
I2
ss(Vwider
p4975
tp4976
(dp4977
Vlooked
p4978
I2
ss(Vconcerns
p4979
tp4980
(dp4981
Vmyself
p4982
I2
sVlargely
p4983
I2
ss(Vbridge
p4984
tp4985
(dp4986
Vyourself
p4987
I2
ss(g3269
tp4988
(dp4989
g997
I2
ss(g4371
tp4990
(dp4991
g1301
I2
ss(g358
tp4992
(dp4993
Vbut
p4994
I2
sVkylie
p4995
I2
ss(g4680
tp4996
(dp4997
Vpassed
p4998
I2
ss(Vdraining
p4999
tp5000
(dp5001
Vdealing
p5002
I2
ss(g2013
tp5003
(dp5004
Vso
p5005
I2
ss(g3589
tp5006
(dp5007
Vthe
p5008
I2
ss(Vsuddenly
p5009
tp5010
(dp5011
Vi
p5012
I2
sVgrabs
p5013
I3
ss(Vlatest
p5014
tp5015
(dp5016
Vphone
p5017
I2
ss(Vtelling
p5018
tp5019
(dp5020
Vher
p5021
I2
ss(Vcredible
p5022
tp5023
(dp5024
g3495
I2
ss(g2793
tp5025
(dp5026
Vmoments
p5027
I2
ss(Vfully
p5028
tp5029
(dp5030
g1207
I2
ss(g3313
tp5031
(dp5032
Vshort
p5033
I2
ss(Vwhen
p5034
tp5035
(dp5036
Va
p5037
I2
sVsomeone
p5038
I2
sg716
I2
sVi
p5039
I11
sVmy
p5040
I3
sVit
p5041
I2
sg4695
I2
sVshe
p5042
I3
sVanother
p5043
I2
sVthe
p5044
I2
sVguys
p5045
I2
sVyou
p5046
I2
sVthats
p5047
I2
ss(Vup
p5048
tp5049
(dp5050
Vand
p5051
I4
sVon
p5052
I3
sVwhat
p5053
I2
sVbecause
p5054
I2
sVi
p5055
I2
sVthings
p5056
I2
sVwith
p5057
I2
sVanyway
p5058
I2
sVbut
p5059
I2
sVsleeping
p5060
I2
sVto
p5061
I2
sg2489
I2
sVtowards
p5062
I2
sVa
p5063
I2
sVabove
p5064
I2
sVin
p5065
I5
sVnot
p5066
I2
sVmy
p5067
I2
sVwas
p5068
I2
sVid
p5069
I2
sVhe
p5070
I2
ss(Vbakerjohn
p5071
tp5072
(dp5073
Vcoltrane
p5074
I2
ss(g55
tp5075
(dp5076
Va
p5077
I2
sVand
p5078
I2
sVin
p5079
I2
ss(g3355
tp5080
(dp5081
Va
p5082
I2
sVanything
p5083
I2
sVi
p5084
I2
sVmany
p5085
I2
sVthere
p5086
I2
sVprovide
p5087
I2
sVdepends
p5088
I2
sVevery
p5089
I2
sVthe
p5090
I2
ss(Vaggressively
p5091
tp5092
(dp5093
Vby
p5094
I3
ss(g3947
tp5095
(dp5096
Vthey
p5097
I2
ss(Vfollicles
p5098
tp5099
(dp5100
Valso
p5101
I2
ss(g2678
tp5102
(dp5103
Vduring
p5104
I2
sVor
p5105
I2
sVfor
p5106
I2
ss(Vfrantically
p5107
tp5108
(dp5109
Vsearches
p5110
I2
ss(g3846
tp5111
(dp5112
Vfor
p5113
I2
ss(g1403
tp5114
(dp5115
Vfor
p5116
I2
ss(Vusing
p5117
tp5118
(dp5119
Vdating
p5120
I2
ss(Vgames
p5121
tp5122
(dp5123
Vyou
p5124
I2
ss(Vdrippings
p5125
tp5126
(dp5127
g3625
I2
ss(g3744
tp5128
(dp5129
Vi
p5130
I2
sVdont
p5131
I2
ss(Vnotice
p5132
tp5133
(dp5134
g36
I4
sVshit
p5135
I2
ss(g4258
tp5136
(dp5137
Vwhen
p5138
I2
ss(Vkid
p5139
tp5140
(dp5141
Vcudis
p5142
I2
ss(g3776
tp5143
(dp5144
Vwhile
p5145
I2
sVid
p5146
I2
ss(g3747
tp5147
(dp5148
Vhe
p5149
I2
ss(Vappropriate
p5150
tp5151
(dp5152
Vfor
p5153
I4
ss(g2880
tp5154
(dp5155
g5107
I2
sVfinds
p5156
I2
ss(Vvalue
p5157
tp5158
(dp5159
Vof
p5160
I2
ss(g2496
tp5161
(dp5162
V500
p5163
I2
ss(Vvoices
p5164
tp5165
(dp5166
Vand
p5167
I2
ss(Vpft
p5168
tp5169
(dp5170
Vi
p5171
I2
ss(g5110
tp5172
(dp5173
Vfor
p5174
I2
ss(g5156
tp5175
(dp5176
Vwho
p5177
I2
ss(Vyelled
p5178
tp5179
(dp5180
Vat
p5181
I2
ss(Vescalator
p5182
tp5183
(dp5184
Vand
p5185
I2
ss(g4264
tp5186
(dp5187
Vabuse
p5188
I2
ss(g1393
tp5189
(dp5190
Va
p5191
I5
sVi
p5192
I2
sVpretty
p5193
I2
sVin
p5194
I2
sVnot
p5195
I2
sVhaving
p5196
I2
ss(g2606
tp5197
(dp5198
Vinto
p5199
I2
ss(Vrest
p5200
tp5201
(dp5202
Vof
p5203
I2
ss(g1813
tp5204
(dp5205
Vthe
p5206
I5
sg2949
I2
ss(Vactivities
p5207
tp5208
(dp5209
Vyour
p5210
I2
ss(g3310
tp5211
(dp5212
Vfantasy
p5213
I2
ss(Vhops
p5214
tp5215
(dp5216
Vfrom
p5217
I2
ss(g281
tp5218
(dp5219
Vcanadian
p5220
I2
ss(Vlend
p5221
tp5222
(dp5223
Vpeople
p5224
I2
ss(g2805
tp5225
(dp5226
Vand
p5227
I2
ss(g3637
tp5228
(dp5229
Vf
p5230
I2
ss(g479
tp5231
(dp5232
Vnot
p5233
I2
sVbe
p5234
I7
sVnotice
p5235
I2
sVever
p5236
I2
ss(g5230
tp5237
(dp5238
g1466
I2
ss(Vcritical
p5239
tp5240
(dp5241
Vfor
p5242
I2
ss(g3266
tp5243
(dp5244
Vdad
p5245
I2
sVwho
p5246
I2
sVwas
p5247
I2
ss(g1633
tp5248
(dp5249
Vi
p5250
I7
sg2751
I2
sV400000
p5251
I2
sVwhen
p5252
I2
ss(g567
tp5253
(dp5254
Vint
p5255
I2
ss(Vhe
p5256
tp5257
(dp5258
Vstill
p5259
I3
sVhas
p5260
I2
sVsaid
p5261
I3
sVsays
p5262
I2
sVjust
p5263
I2
sVwas
p5264
I4
sVdid
p5265
I2
sVmakes
p5266
I2
sVis
p5267
I4
sg3992
I2
sVhad
p5268
I2
sVmet
p5269
I2
sVmade
p5270
I3
sg3389
I2
sg157
I2
sVdoesnt
p5271
I2
sVgot
p5272
I3
sVgets
p5273
I3
sVdidnt
p5274
I2
sg4619
I2
ss(g1674
tp5275
(dp5276
g2236
I2
ss(Vsecond
p5277
tp5278
(dp5279
Vdid
p5280
I2
sVperson
p5281
I2
sVdate
p5282
I2
ss(Vsituation
p5283
tp5284
(dp5285
Vfrom
p5286
I2
sVworse
p5287
I2
ss(Vovulation
p5288
tp5289
(dp5290
g3811
I2
ss(Vforever
p5291
tp5292
(dp5293
Vyour
p5294
I2
sg2794
I2
ss(g3280
tp5295
(dp5296
g648
I2
ss(Vstronger
p5297
tp5298
(dp5299
Vmen
p5300
I2
sVhave
p5301
I2
ss(g2674
tp5302
(dp5303
g2023
I2
ss(g3332
tp5304
(dp5305
Vand
p5306
I2
ss(g3059
tp5307
(dp5308
Vby
p5309
I2
ss(g2800
tp5310
(dp5311
Vhow
p5312
I2
ss(Vvariety
p5313
tp5314
(dp5315
Vits
p5316
I2
ss(Vabsence
p5317
tp5318
(dp5319
Vof
p5320
I2
ss(g869
tp5321
(dp5322
Vthe
p5323
I5
ss(g1821
tp5324
(dp5325
Vother
p5326
I2
sVsizes
p5327
I2
ss(g1831
tp5328
(dp5329
Vare
p5330
I2
ss(Vcrocheting
p5331
tp5332
(dp5333
Vand
p5334
I2
ss(g3836
tp5335
(dp5336
Vuse
p5337
I2
ss(g3820
tp5338
(dp5339
Vthe
p5340
I2
ss(Videntified
p5341
tp5342
(dp5343
Vand
p5344
I2
ss(Vaction
p5345
tp5346
(dp5347
Vwas
p5348
I5
ss(Vshittons
p5349
tp5350
(dp5351
Vof
p5352
I2
ss(g1894
tp5353
(dp5354
Vdress
p5355
I2
sg1291
I2
ss(g405
tp5356
(dp5357
Vso
p5358
I2
ss(Vhappy
p5359
tp5360
(dp5361
Vto
p5362
I2
sVfor
p5363
I2
ss(g849
tp5364
(dp5365
Vsince
p5366
I2
sVthough
p5367
I2
ss(Vbarley
p5368
tp5369
(dp5370
Vor
p5371
I2
ss(Vteen
p5372
tp5373
(dp5374
g4022
I2
ss(g1888
tp5375
(dp5376
Vdate
p5377
I2
sVwith
p5378
I3
sVany
p5379
I2
ss(Vreturn
p5380
tp5381
(dp5382
Vi
p5383
I2
sVyou
p5384
I2
ss(Vwait
p5385
tp5386
(dp5387
g4649
I2
sVare
p5388
I2
sVthats
p5389
I2
ss(Vappreciate
p5390
tp5391
(dp5392
Vthe
p5393
I2
ss(g2421
tp5394
(dp5395
Vreally
p5396
I2
ss(Vforward
p5397
tp5398
(dp5399
Va
p5400
I2
sVthen
p5401
I2
ss(g4666
tp5402
(dp5403
Vtore
p5404
I3
ss(Vfemale
p5405
tp5406
(dp5407
Vteachers
p5408
I2
sVcan
p5409
I2
sVstandard
p5410
I2
ss(Vupward
p5411
tp5412
(dp5413
Vand
p5414
I2
ss(Vbreath
p5415
tp5416
(dp5417
Vand
p5418
I2
ss(g2984
tp5419
(dp5420
Vstop
p5421
I2
sVhe
p5422
I2
ss(Vdudes
p5423
tp5424
(dp5425
Vtrying
p5426
I2
ss(g1785
tp5427
(dp5428
Vhappens
p5429
I2
sVmeets
p5430
I2
sVget
p5431
I2
sVcertain
p5432
I2
sVcould
p5433
I2
sVthink
p5434
I2
sVbothers
p5435
I2
sVcant
p5436
I2
sVhear
p5437
I2
sVhave
p5438
I2
sVneed
p5439
I2
sVclose
p5440
I2
sVits
p5441
I2
sVif
p5442
I2
ss(g5064
tp5443
(dp5444
Vtalking
p5445
I2
ss(Vsays
p5446
tp5447
(dp5448
Vthere
p5449
I2
sVgoodness
p5450
I2
sg4127
I2
ss(Vmake
p5451
tp5452
(dp5453
Va
p5454
I4
sVturkey
p5455
I2
sVplatonic
p5456
I2
sg1740
I2
sVup
p5457
I2
sVit
p5458
I2
sVfriends
p5459
I2
ss(Vstripclubs
p5460
tp5461
(dp5462
Vin
p5463
I2
ss(g2277
tp5464
(dp5465
Va
p5466
I2
sVset
p5467
I2
sVoff
p5468
I2
sVher
p5469
I2
sVtired
p5470
I2
sg3676
I5
sg4832
I2
sVit
p5471
I2
sVlow
p5472
I2
sVthe
p5473
I2
sVmy
p5474
I3
sVout
p5475
I2
ss(g1734
tp5476
(dp5477
Vfor
p5478
I2
ss(Vcomments
p5479
tp5480
(dp5481
Vare
p5482
I4
sVthat
p5483
I7
ss(g3354
tp5484
(dp5485
Vnext
p5486
I2
sVby
p5487
I2
sVin
p5488
I2
ss(g4765
tp5489
(dp5490
Vya
p5491
I2
ss(g2926
tp5492
(dp5493
Vare
p5494
I2
ss(g3138
tp5495
(dp5496
Vwhy
p5497
I2
ss(g1390
tp5498
(dp5499
g4521
I2
ss(Vlb
p5500
tp5501
(dp5502
Vdude
p5503
I2
ss(Vlego
p5504
tp5505
(dp5506
g2787
I2
ss(Vescaping
p5507
tp5508
(dp5509
Vby
p5510
I2
ss(Vneat
p5511
tp5512
(dp5513
g5207
I2
ss(Vjesus
p5514
tp5515
(dp5516
Vchrist
p5517
I2
ss(Vhold
p5518
tp5519
(dp5520
Vany
p5521
I2
ss(g4294
tp5522
(dp5523
Vof
p5524
I2
ss(g2722
tp5525
(dp5526
Vof
p5527
I2
ss(g1072
tp5528
(dp5529
g1600
I2
sVeveryone
p5530
I2
sVburning
p5531
I2
sg3466
I7
sVit
p5532
I2
sVone
p5533
I2
sV1020x
p5534
I2
sVwhat
p5535
I3
sVher
p5536
I2
sg622
I2
sVhow
p5537
I4
sV3
p5538
I3
sV5
p5539
I2
sV4
p5540
I2
sVyou
p5541
I2
sVtoo
p5542
I2
sVthem
p5543
I2
sVthat
p5544
I2
sg3784
I2
sVgiven
p5545
I2
sVa
p5546
I2
sVcolour
p5547
I2
sVthe
p5548
I4
sVmy
p5549
I3
ss(Vfrank
p5550
tp5551
(dp5552
Vi
p5553
I2
ss(g1611
tp5554
(dp5555
Vand
p5556
I2
sVan
p5557
I2
ss(g936
tp5558
(dp5559
Vthe
p5560
I2
ss(g895
tp5561
(dp5562
Vthese
p5563
I4
ss(Vcollect
p5564
tp5565
(dp5566
Vyour
p5567
I2
ss(g1146
tp5568
(dp5569
Vand
p5570
I2
ss(g3774
tp5571
(dp5572
Vjust
p5573
I2
ss(Vkullanrken
p5574
tp5575
(dp5576
Vdikkat
p5577
I2
ss(g3189
tp5578
(dp5579
Vwho
p5580
I2
ss(g4249
tp5581
(dp5582
Vfair
p5583
I2
ss(g889
tp5584
(dp5585
Vpop
p5586
I2
ss(g4090
tp5587
(dp5588
Vis
p5589
I2
ss(g4061
tp5590
(dp5591
Vwithout
p5592
I2
ss(Vyet
p5593
tp5594
(dp5595
Vbeing
p5596
I2
sVand
p5597
I2
ss(g2650
tp5598
(dp5599
Vweights
p5600
I2
ss(g5583
tp5601
(dp5602
Venough
p5603
I2
sg3052
I2
ss(g1040
tp5604
(dp5605
Vmy
p5606
I2
ss(Vwake
p5607
tp5608
(dp5609
Vme
p5610
I2
sVafter
p5611
I2
sVin
p5612
I2
ss(Vdemocrats
p5613
tp5614
(dp5615
g706
I2
ss(g5266
tp5616
(dp5617
Vme
p5618
I2
sVjust
p5619
I2
sVmore
p5620
I2
ss(g2667
tp5621
(dp5622
Vrequest
p5623
I4
ss(g2295
tp5624
(dp5625
Vhttpwwwperpaelektroniksigaracom
p5626
I2
sVdiyen
p5627
I2
ss(Vbet
p5628
tp5629
(dp5630
Vthe
p5631
I2
ss(Vhappened
p5632
tp5633
(dp5634
Vthe
p5635
I2
ss(g3027
tp5636
(dp5637
Vthat
p5638
I2
sVhe
p5639
I2
sVthose
p5640
I2
sg1444
I2
ss(Vsuspicious
p5641
tp5642
(dp5643
Vand
p5644
I2
ss(g1858
tp5645
(dp5646
g1287
I2
ss(g2825
tp5647
(dp5648
Vto
p5649
I2
ss(g2551
tp5650
(dp5651
g274
I2
ss(g4995
tp5652
(dp5653
g2299
I2
ss(Vsounds
p5654
tp5655
(dp5656
Vlike
p5657
I3
ss(Vwearing
p5658
tp5659
(dp5660
Vlongjohns
p5661
I2
sg4201
I2
ss(Vtechnology
p5662
tp5663
(dp5664
Vbeing
p5665
I2
ss(Vunder
p5666
tp5667
(dp5668
Vthe
p5669
I3
sVmy
p5670
I2
ss(g5142
tp5671
(dp5672
Vindicud
p5673
I2
ss(Vgod
p5674
tp5675
(dp5676
Vi
p5677
I2
sVdamn
p5678
I2
ss(Vmiiiiiight
p5679
tp5680
(dp5681
Vhave
p5682
I2
ss(g4003
tp5683
(dp5684
Vand
p5685
I2
sVthat
p5686
I2
sValmost
p5687
I2
sVclose
p5688
I2
sVguys
p5689
I2
sVtalk
p5690
I2
ss(g2799
tp5691
(dp5692
Vin
p5693
I3
ss(Vor
p5694
tp5695
(dp5696
Vsome
p5697
I2
sg1966
I2
sVgrey
p5698
I2
sVsomething
p5699
I2
sVhave
p5700
I2
sVreplies
p5701
I2
sVeven
p5702
I2
sg5214
I2
sVtwo
p5703
I2
sVbetter
p5704
I2
sVhow
p5705
I2
sV3
p5706
I3
sVconcerns
p5707
I5
sg2156
I2
sg4214
I2
sVdislikes
p5708
I2
sg161
I4
sVchange
p5709
I2
sVa
p5710
I5
sV15
p5711
I2
sVkohls
p5712
I2
sVcamera
p5713
I2
sVi
p5714
I2
sVso
p5715
I4
sVmascara
p5716
I2
sVmaking
p5717
I2
sVthe
p5718
I3
sg3011
I2
sVwelding
p5719
I2
ss(Vhome
p5720
tp5721
(dp5722
Vand
p5723
I2
ss(g5678
tp5724
(dp5725
Va
p5726
I2
sVi
p5727
I2
ss(g2147
tp5728
(dp5729
Vout
p5730
I2
ss(g2679
tp5731
(dp5732
g2703
I3
ss(Vshock
p5733
tp5734
(dp5735
Vby
p5736
I2
ss(g1334
tp5737
(dp5738
Vbecause
p5739
I2
ss(Vknocked
p5740
tp5741
(dp5742
Vsome
p5743
I2
ss(Vsame
p5744
tp5745
(dp5746
Vword
p5747
I2
sVfor
p5748
I2
sVpeople
p5749
I2
sVtime
p5750
I3
sVproblems
p5751
I2
sg3003
I3
sVshe
p5752
I2
sVway
p5753
I2
sg4516
I2
ss(Vlord
p5754
tp5755
(dp5756
Vhuronhttpswwwyoutubecomwatchvwiwwgn5o3wq
p5757
I2
ss(g3352
tp5758
(dp5759
Vautomatically
p5760
I5
ss(Vskiing
p5761
tp5762
(dp5763
g4204
I2
ss(Vwarmth
p5764
tp5765
(dp5766
Vafter
p5767
I2
ss(Vfloor
p5768
tp5769
(dp5770
Vit
p5771
I2
ss(g4745
tp5772
(dp5773
Vforehead
p5774
I2
ss(Vcountrys
p5775
tp5776
(dp5777
Vpartisanship
p5778
I2
ss(Vswitch
p5779
tp5780
(dp5781
Voh
p5782
I2
ss(Vbut
p5783
tp5784
(dp5785
g2552
I2
sVive
p5786
I2
sVall
p5787
I2
sVbecause
p5788
I2
sVjust
p5789
I2
sVis
p5790
I2
sVit
p5791
I4
sVnot
p5792
I3
sVim
p5793
I4
sVat
p5794
I3
sVin
p5795
I3
sVstill
p5796
I2
sVif
p5797
I2
sVeven
p5798
I2
sVfor
p5799
I2
sVno
p5800
I3
sVgod
p5801
I2
sVwhen
p5802
I2
sVbetter
p5803
I2
sVto
p5804
I2
sVdoes
p5805
I2
sVyou
p5806
I2
sVmight
p5807
I2
sVthat
p5808
I3
sVwords
p5809
I2
sVnothing
p5810
I2
sVcontinued
p5811
I2
sVby
p5812
I2
sVhe
p5813
I2
sVa
p5814
I3
sVi
p5815
I11
sVthe
p5816
I5
sVmy
p5817
I2
sVtheres
p5818
I3
ss(Vhopes
p5819
tp5820
(dp5821
Vthe
p5822
I2
ss(V10k
p5823
tp5824
(dp5825
Vit
p5826
I2
sVwhich
p5827
I2
ss(g1683
tp5828
(dp5829
Va
p5830
I2
sVmyself
p5831
I2
sVsomeone
p5832
I2
sVdoing
p5833
I2
sVfostering
p5834
I2
sVchet
p5835
I2
sg4012
I2
sVmark
p5836
I2
sVbetter
p5837
I2
sVbeing
p5838
I2
sVfires
p5839
I2
sVcaricature
p5840
I2
sVfar
p5841
I2
sg5754
I2
sVthe
p5842
I7
sVboat
p5843
I2
ss(Vthese
p5844
tp5845
(dp5846
Vold
p5847
I2
sg3083
I4
sVother
p5848
I2
sVquestions
p5849
I2
sVguys
p5850
I2
sg4979
I3
sg3596
I2
ss(g294
tp5851
(dp5852
Vknows
p5853
I2
ss(Vrape
p5854
tp5855
(dp5856
Vcharges
p5857
I2
ss(g3748
tp5858
(dp5859
Vdislocated
p5860
I2
sg36
I2
ss(g2049
tp5861
(dp5862
Vand
p5863
I2
ss(g2061
tp5864
(dp5865
g2472
I2
ss(g2798
tp5866
(dp5867
g4623
I2
ss(g1485
tp5868
(dp5869
Vusernames
p5870
I2
sVbut
p5871
I2
sVwords
p5872
I2
ss(g5450
tp5873
(dp5874
Vwhenever
p5875
I2
ss(V25
p5876
tp5877
(dp5878
Vi
p5879
I2
sVan
p5880
I2
ss(V1010
p5881
tp5882
(dp5883
Vwould
p5884
I2
ss(Venforce
p5885
tp5886
(dp5887
Vthe
p5888
I2
ss(g148
tp5889
(dp5890
g4801
I2
ss(g5716
tp5891
(dp5892
Vour
p5893
I2
ss(Vbar
p5894
tp5895
(dp5896
Von
p5897
I2
sVfrom
p5898
I2
sVin
p5899
I2
ss(Vonly
p5900
tp5901
(dp5902
Vstuff
p5903
I2
sVhave
p5904
I2
sVget
p5905
I2
sVdid
p5906
I2
sVstability
p5907
I2
sVthing
p5908
I2
sVsee
p5909
I2
sV2
p5910
I2
sg1121
I2
sVslightly
p5911
I2
ss(Vpenis
p5912
tp5913
(dp5914
Vif
p5915
I2
ss(Vhereraskredditsubmitselftexttruetitlehow
p5916
tp5917
(dp5918
g105
I2
ss(g252
tp5919
(dp5920
Vof
p5921
I2
ss(g3260
tp5922
(dp5923
Vof
p5924
I2
ss(g4097
tp5925
(dp5926
Vie
p5927
I2
ss(g3781
tp5928
(dp5929
Vlife
p5930
I2
sVthan
p5931
I2
sg4427
I2
ss(Vfaster
p5932
tp5933
(dp5934
Vthan
p5935
I2
ss(Vgotten
p5936
tp5937
(dp5938
Vpeople
p5939
I2
ss(g406
tp5940
(dp5941
Vstanding
p5942
I2
sVlayers
p5943
I2
sVeating
p5944
I2
sVworking
p5945
I2
sVthat
p5946
I2
sVyou
p5947
I2
sVthe
p5948
I2
ss(Vfix
p5949
tp5950
(dp5951
Vit
p5952
I2
ss(g389
tp5953
(dp5954
Vto
p5955
I2
ss(g4779
tp5956
(dp5957
Vto
p5958
I2
sg5507
I2
ss(Vfellow
p5959
tp5960
(dp5961
Vent
p5962
I2
ss(g3327
tp5963
(dp5964
Vand
p5965
I2
sVfrom
p5966
I2
ss(Vcomplaining
p5967
tp5968
(dp5969
Vi
p5970
I2
ss(Vin
p5971
tp5972
(dp5973
Vsummer
p5974
I2
sVall
p5975
I3
sg5733
I2
sVengland
p5976
I2
sVthere
p5977
I2
sg666
I2
sg1452
I2
sg3047
I3
sVwaking
p5978
I2
sVhigh
p5979
I2
sVnot
p5980
I2
sg4189
I2
sVfull
p5981
I2
sg675
I2
sg3206
I2
sVany
p5982
I4
sg4921
I2
sVmales
p5983
I2
sVone
p5984
I2
sVdifferent
p5985
I2
sVlots
p5986
I2
sg1604
I2
sVmens
p5987
I2
sVtheir
p5988
I2
sVkorean
p5989
I2
sVsuit
p5990
I2
sVyou
p5991
I2
sVwaste
p5992
I2
sVpublic
p5993
I2
sVpants
p5994
I2
sVthem
p5995
I2
sVsomeone
p5996
I2
sg5380
I2
sVrelationship
p5997
I3
sVthat
p5998
I5
sVmarketing
p5999
I2
sg4965
I2
sVbetween
p6000
I2
sVitd
p6001
I2
sVmost
p6002
I2
sVwe
p6003
I3
sVregular
p6004
I2
sVrussian
p6005
I2
sVgeneral
p6006
I3
sVstreetwear
p6007
I2
sVa
p6008
I21
sg3727
I2
sVabout
p6009
I2
sVpolish
p6010
I2
sVthis
p6011
I2
sVage
p6012
I2
sg5460
I2
sVlife
p6013
I2
sVcash
p6014
I2
sVbed
p6015
I2
sg2006
I2
sg2066
I2
sg195
I2
sg618
I2
sg4952
I2
sVthe
p6016
I25
sVmy
p6017
I6
sg3210
I2
ss(Vfire
p6018
tp6019
(dp6020
Vto
p6021
I2
ss(Vmore
p6022
tp6023
(dp6024
g5022
I2
sVthen
p6025
I2
sg2866
I2
sVof
p6026
I2
sVsense
p6027
I2
sVtame
p6028
I2
sVto
p6029
I2
sVlikely
p6030
I4
sVstuff
p6031
I2
sVleeway
p6032
I2
sg5405
I2
sVsocial
p6033
I2
sg2148
I2
sVyou
p6034
I2
sVthan
p6035
I3
sVcramped
p6036
I2
ss(Vname
p6037
tp6038
(dp6039
Vand
p6040
I2
sVrhyme
p6041
I2
ss(Vmajority
p6042
tp6043
(dp6044
g4359
I2
sVof
p6045
I2
ss(Vcomfortable
p6046
tp6047
(dp6048
Vand
p6049
I2
ss(Vlaw
p6050
tp6051
(dp6052
Vsuit
p6053
I2
sVs
p6054
I2
sVafter
p6055
I2
sg4570
I2
ss(Vsuit
p6056
tp6057
(dp6058
g2328
I2
sVto
p6059
I2
sVwhile
p6060
I2
sg4532
I2
sVwith
p6061
I2
sVoptions
p6062
I2
ss(g2774
tp6063
(dp6064
Vand
p6065
I3
sVbeef
p6066
I2
sVparent
p6067
I2
sVplaces
p6068
I2
sVpeople
p6069
I2
sVdrugs
p6070
I2
sVpick
p6071
I2
sg2680
I2
sVreason
p6072
I2
sVsuit
p6073
I2
sVareas
p6074
I2
ss(Vuntrue
p6075
tp6076
(dp6077
Vin
p6078
I2
ss(Vchallenge
p6079
tp6080
(dp6081
Vthats
p6082
I2
ss(g3760
tp6083
(dp6084
Vof
p6085
I2
sVis
p6086
I2
sVcomes
p6087
I2
ss(g5623
tp6088
(dp6089
Vinstead
p6090
I4
ss(g3268
tp6091
(dp6092
Vbut
p6093
I2
ss(g3782
tp6094
(dp6095
Vall
p6096
I2
ss(g5836
tp6097
(dp6098
Vfrost
p6099
I2
ss(g1227
tp6100
(dp6101
Vand
p6102
I2
sg2927
I2
sVunfortunately
p6103
I2
sVif
p6104
I2
ss(Vothers
p6105
tp6106
(dp6107
Vopinions
p6108
I2
sVare
p6109
I2
sVin
p6110
I2
ss(g5517
tp6111
(dp6112
Vthats
p6113
I2
ss(g2580
tp6114
(dp6115
Vfree
p6116
I2
sVthat
p6117
I2
ss(Vsimilarly
p6118
tp6119
(dp6120
Vmaking
p6121
I2
ss(g1829
tp6122
(dp6123
Vmoney
p6124
I2
sVout
p6125
I2
sVyour
p6126
I2
sVit
p6127
I2
ss(g3454
tp6128
(dp6129
Vwith
p6130
I2
ss(g5062
tp6131
(dp6132
Vyour
p6133
I2
ss(Vmany
p6134
tp6135
(dp6136
g376
I2
sVmore
p6137
I2
sVnice
p6138
I2
sVcharacters
p6139
I2
sVmanic
p6140
I2
ss(g4084
tp6141
(dp6142
g5912
I2
ss(g3081
tp6143
(dp6144
g3161
I2
sVfor
p6145
I2
ss(g3133
tp6146
(dp6147
Vin
p6148
I2
ss(Vgrilled
p6149
tp6150
(dp6151
g2077
I3
ss(g3750
tp6152
(dp6153
Vbecause
p6154
I2
ss(g1389
tp6155
(dp6156
Veven
p6157
I3
sVplay
p6158
I2
sVwant
p6159
I3
sVcreate
p6160
I2
sVlet
p6161
I2
sVknow
p6162
I2
sVhave
p6163
I4
sg4171
I2
ss(g1838
tp6164
(dp6165
g2862
I2
ss(g569
tp6166
(dp6167
Vof
p6168
I3
sVthat
p6169
I3
ss(g4309
tp6170
(dp6171
Vin
p6172
I2
ss(Vmoderators
p6173
tp6174
(dp6175
Vof
p6176
I5
ss(Videa
p6177
tp6178
(dp6179
Vwhat
p6180
I3
sVyou
p6181
I2
sVthat
p6182
I2
sVor
p6183
I2
sVin
p6184
I2
ss(Vvalid
p6185
tp6186
(dp6187
Vfor
p6188
I2
ss(Vsells
p6189
tp6190
(dp6191
Vsold
p6192
I2
ss(g5540
tp6193
(dp6194
Vyears
p6195
I4
ss(Voverwhelming
p6196
tp6197
(dp6198
Vreality
p6199
I2
ss(Vfundamental
p6200
tp6201
(dp6202
g2485
I2
ss(Vsarcasm
p6203
tp6204
(dp6205
g5959
I2
ss(g6074
tp6206
(dp6207
Vlike
p6208
I2
ss(g478
tp6209
(dp6210
Vwith
p6211
I2
ss(g2484
tp6212
(dp6213
Vof
p6214
I2
ss(g1375
tp6215
(dp6216
Vwith
p6217
I2
sVthat
p6218
I2
ss(g2901
tp6219
(dp6220
Vthey
p6221
I3
ss(g5711
tp6222
(dp6223
Vbags
p6224
I2
sVgirls
p6225
I2
ss(g6099
tp6226
(dp6227
Vwhich
p6228
I2
ss(Vsklkla
p6229
tp6230
(dp6231
g3963
I2
ss(Vchoice
p6232
tp6233
(dp6234
Vbut
p6235
I2
sVin
p6236
I2
ss(g5408
tp6237
(dp6238
Vis
p6239
I2
ss(g3243
tp6240
(dp6241
Vgreat
p6242
I2
sVsure
p6243
I2
sVhapp
p6244
I2
sVmuch
p6245
I2
sVwell
p6246
I2
sVbut
p6247
I2
sVshitty
p6248
I2
sVgood
p6249
I2
ss(g705
tp6250
(dp6251
Vlbs
p6252
I2
ss(Vtime
p6253
tp6254
(dp6255
Von
p6256
I2
sVafter
p6257
I2
sVi
p6258
I3
sVis
p6259
I2
sVthere
p6260
I2
sVwhen
p6261
I3
sVdemanding
p6262
I2
sVto
p6263
I3
sVshe
p6264
I2
sVin
p6265
I4
sVnot
p6266
I2
sVyou
p6267
I2
ss(Vdaily
p6268
tp6269
(dp6270
Vthen
p6271
I2
sg656
I2
ss(Vreally
p6272
tp6273
(dp6274
Vinjured
p6275
I2
sVthe
p6276
I2
sVend
p6277
I2
sVdont
p6278
I2
sVthat
p6279
I2
sVconsidered
p6280
I2
sVwish
p6281
I2
sg5390
I2
sg2955
I2
sVhave
p6282
I2
sVwell
p6283
I2
sVyou
p6284
I2
sg2919
I2
sVhope
p6285
I2
ss(g1679
tp6286
(dp6287
Vdown
p6288
I2
sVthe
p6289
I2
ss(Vlarger
p6290
tp6291
(dp6292
Valso
p6293
I2
ss(g1822
tp6294
(dp6295
g1708
I2
sVcar
p6296
I2
sVyears
p6297
I2
sg4671
I2
sg4689
I2
sVtype
p6298
I2
ss(g5437
tp6299
(dp6300
Vit
p6301
I2
ss(Vatomic
p6302
tp6303
(dp6304
g1667
I2
ss(Vfarming
p6305
tp6306
(dp6307
g2783
I2
ss(g432
tp6308
(dp6309
Vand
p6310
I2
ss(Vend
p6311
tp6312
(dp6313
Vmercedes
p6314
I2
sVup
p6315
I3
ss(g2989
tp6316
(dp6317
Vforward
p6318
I2
ss(g2994
tp6319
(dp6320
Vturns
p6321
I2
sVabout
p6322
I2
sVsilly
p6323
I2
sVthey
p6324
I2
ss(g2113
tp6325
(dp6326
Vless
p6327
I2
ss(g5713
tp6328
(dp6329
Vhe
p6330
I2
ss(Vinherently
p6331
tp6332
(dp6333
g5641
I2
ss(g1469
tp6334
(dp6335
Vversion
p6336
I2
ss(g3769
tp6337
(dp6338
Vhigh
p6339
I2
ss(g5857
tp6340
(dp6341
g2232
I2
ss(g3335
tp6342
(dp6343
Vand
p6344
I2
sVi
p6345
I2
sVis
p6346
I4
sVwhen
p6347
I2
sVid
p6348
I2
sg762
I2
ss(g3164
tp6349
(dp6350
Vhiking
p6351
I2
ss(Vserious
p6352
tp6353
(dp6354
Vones
p6355
I2
sVtag
p6356
I7
sVrelationship
p6357
I2
ss(g489
tp6358
(dp6359
Vtask
p6360
I2
ss(Vchicken
p6361
tp6362
(dp6363
Vso
p6364
I2
ss(Vrhetoric
p6365
tp6366
(dp6367
Vthat
p6368
I2
ss(g2458
tp6369
(dp6370
g258
I2
sVplay
p6371
I2
sVbeen
p6372
I2
sVseen
p6373
I2
sVseem
p6374
I2
sVworry
p6375
I2
ss(Vpatterns
p6376
tp6377
(dp6378
Vi
p6379
I2
ss(Vages
p6380
tp6381
(dp6382
V2028
p6383
I2
ss(g5706
tp6384
(dp6385
Vyears
p6386
I2
sVmonths
p6387
I2
sVgirls
p6388
I3
sVtimes
p6389
I2
ss(g1380
tp6390
(dp6391
Vbut
p6392
I2
sVthose
p6393
I2
ss(Vstuff
p6394
tp6395
(dp6396
g4008
I2
sVup
p6397
I2
sVtogether
p6398
I2
sValso
p6399
I2
sVteaches
p6400
I2
sVits
p6401
I2
ss(Vroast
p6402
tp6403
(dp6404
Vfor
p6405
I2
ss(g4094
tp6406
(dp6407
Vwhere
p6408
I2
ss(Vdrinking
p6409
tp6410
(dp6411
Vto
p6412
I2
sVthe
p6413
I2
ss(Vevoke
p6414
tp6415
(dp6416
Vin
p6417
I2
ss(Vdo
p6418
tp6419
(dp6420
Vabout
p6421
I2
sVthey
p6422
I2
sVthat
p6423
I3
sVi
p6424
I2
sVis
p6425
I2
sVcry
p6426
I2
sVit
p6427
I3
sVso
p6428
I2
sVhave
p6429
I2
sVthe
p6430
I3
sVwith
p6431
I5
sVyou
p6432
I3
ss(g4011
tp6433
(dp6434
Veveryone
p6435
I2
ss(g1018
tp6436
(dp6437
Vi
p6438
I2
ss(g2670
tp6439
(dp6440
Vbut
p6441
I2
ss(g3372
tp6442
(dp6443
Vwhat
p6444
I2
ss(g2559
tp6445
(dp6446
Vi
p6447
I2
ss(Vbanned
p6448
tp6449
(dp6450
Vfrom
p6451
I2
ss(Vto
p6452
tp6453
(dp6454
Vjust
p6455
I2
sVshow
p6456
I2
sVbeing
p6457
I2
sVmove
p6458
I2
sVfocus
p6459
I2
sVokcupid
p6460
I2
sVdisguise
p6461
I2
sVgo
p6462
I7
sVelect
p6463
I2
sVfind
p6464
I3
sg4345
I2
sg5949
I2
sVhim
p6465
I2
sVadd
p6466
I2
sg3392
I2
sg6418
I9
sVget
p6467
I6
sVread
p6468
I2
sVexpress
p6469
I2
sg2902
I3
sg1010
I2
sVbreak
p6470
I2
sVme
p6471
I3
sVknow
p6472
I2
sVnot
p6473
I3
sVrealize
p6474
I2
sg359
I2
sg4490
I2
sg3032
I2
sg5885
I2
sVset
p6475
I2
sg4496
I2
sVdoing
p6476
I2
sVsome
p6477
I2
sVtouch
p6478
I2
sVsee
p6479
I4
sVcollege
p6480
I3
sVnavy
p6481
I2
sVdefend
p6482
I2
sg4824
I2
sg3804
I2
sVbe
p6483
I13
sVwe
p6484
I3
sg1945
I3
sVlet
p6485
I2
sVwear
p6486
I5
sVput
p6487
I3
sVcome
p6488
I3
sg4016
I2
sg1270
I2
sVkeep
p6489
I2
sVstand
p6490
I2
sg3613
I2
sg4787
I2
sg4944
I2
sg3095
I2
sVwin
p6491
I2
sVwalk
p6492
I2
sg3123
I2
sVeveryone
p6493
I2
sVactually
p6494
I2
sVyour
p6495
I3
sVquit
p6496
I2
sg2569
I2
sVher
p6497
I3
sVspending
p6498
I2
sg6203
I2
sg4349
I2
sVcall
p6499
I2
sg3900
I2
sVwas
p6500
I2
sVbuy
p6501
I3
sg5607
I2
sg5518
I2
sVharvest
p6502
I2
sg4726
I2
sVkind
p6503
I2
sg1926
I2
sg2617
I4
sVthese
p6504
I2
sVtype
p6505
I2
sg4302
I3
sVzero
p6506
I2
sVmeet
p6507
I4
sVmy
p6508
I2
sg1019
I2
sVsay
p6509
I2
sVhave
p6510
I5
sVdress
p6511
I2
sVany
p6512
I2
sVworry
p6513
I2
sVsell
p6514
I2
sg1295
I3
sVprovide
p6515
I2
sVpay
p6516
I2
sVwipe
p6517
I2
sVcheck
p6518
I2
sVother
p6519
I2
sVtake
p6520
I2
sVyou
p6521
I2
sg3904
I2
sVstay
p6522
I2
sVfuse
p6523
I2
sg1457
I2
sVrevolve
p6524
I2
sg3229
I6
sVthe
p6525
I11
ss(g2648
tp6526
(dp6527
g2280
I2
ss(g4972
tp6528
(dp6529
g3604
I4
ss(g1335
tp6530
(dp6531
Vthe
p6532
I2
ss(Vjobs
p6533
tp6534
(dp6535
Vworking
p6536
I2
sVwomen
p6537
I2
ss(Vless
p6538
tp6539
(dp6540
Vhoppy
p6541
I2
sg546
I3
sVexcited
p6542
I2
sVthan
p6543
I3
ss(g4660
tp6544
(dp6545
Vher
p6546
I2
sVthat
p6547
I2
sVsome
p6548
I2
sVtheir
p6549
I2
sVthrough
p6550
I2
sVin
p6551
I2
sg5359
I2
sVhim
p6552
I2
sVif
p6553
I2
ss(Vredditor
p6554
tp6555
(dp6556
Vyears
p6557
I2
ss(g1853
tp6558
(dp6559
Vme
p6560
I2
sVyou
p6561
I2
ss(Vrumours
p6562
tp6563
(dp6564
g36
I2
ss(Vsorry
p6565
tp6566
(dp6567
Vfor
p6568
I2
sVgeen
p6569
I2
sg4627
I2
sg2838
I2
ss(Vdance
p6570
tp6571
(dp6572
g5768
I2
ss(g2367
tp6573
(dp6574
g6229
I2
ss(g3739
tp6575
(dp6576
Vto
p6577
I2
sVas
p6578
I2
sVwith
p6579
I2
ss(g3317
tp6580
(dp6581
g5415
I2
ss(Vblaming
p6582
tp6583
(dp6584
Veach
p6585
I3
ss(Vheaps
p6586
tp6587
(dp6588
Vof
p6589
I2
ss(Vshowing
p6590
tp6591
(dp6592
Vit
p6593
I2
ss(g5835
tp6594
(dp6595
g5071
I2
ss(g2501
tp6596
(dp6597
Vnot
p6598
I2
ss(g3246
tp6599
(dp6600
Vand
p6601
I2
sg363
I2
sVwho
p6602
I2
sg614
I2
ss(Vteeth
p6603
tp6604
(dp6605
Vdidnt
p6606
I2
ss(g3741
tp6607
(dp6608
Vwe
p6609
I2
ss(g1820
tp6610
(dp6611
g5397
I2
ss(g3043
tp6612
(dp6613
Vfor
p6614
I2
ss(g6514
tp6615
(dp6616
Vthat
p6617
I2
ss(Vthreats
p6618
tp6619
(dp6620
Vit
p6621
I2
ss(g3356
tp6622
(dp6623
Vto
p6624
I6
sVthrough
p6625
I2
sVon
p6626
I2
ss(Vfree
p6627
tp6628
(dp6629
Vkisses
p6630
I2
sg590
I3
ss(g3039
tp6631
(dp6632
Vthen
p6633
I2
ss(g488
tp6634
(dp6635
Vand
p6636
I3
sVhe
p6637
I2
sVsomeone
p6638
I2
sVshe
p6639
I3
sVwere
p6640
I2
ss(g926
tp6641
(dp6642
g5564
I2
sg6189
I2
ss(g5843
tp6643
(dp6644
Vid
p6645
I2
ss(g3273
tp6646
(dp6647
Vin
p6648
I2
ss(Vreminds
p6649
tp6650
(dp6651
Vme
p6652
I2
ss(g1840
tp6653
(dp6654
Vthe
p6655
I2
sVwe
p6656
I3
ss(Vanother
p6657
tp6658
(dp6659
g2429
I2
sg6554
I2
sVpiece
p6660
I2
sVexample
p6661
I2
ss(g2702
tp6662
(dp6663
Vand
p6664
I2
sVb
p6665
I2
ss(Vthousands
p6666
tp6667
(dp6668
Vand
p6669
I2
sVof
p6670
I2
ss(g1362
tp6671
(dp6672
Vhed
p6673
I2
ss(Voriginal
p6674
tp6675
(dp6676
Vphrasing
p6677
I2
sVwriters
p6678
I2
sVoblivion
p6679
I2
ss(Vmills
p6680
tp6681
(dp6682
Venjoy
p6683
I2
ss(g3132
tp6684
(dp6685
Vin
p6686
I2
ss(Vbirlii
p6687
tp6688
(dp6689
g1117
I2
ss(g6498
tp6690
(dp6691
Vmoney
p6692
I2
ss(Vvast
p6693
tp6694
(dp6695
Vdivide
p6696
I2
ss(Vdiscussion
p6697
tp6698
(dp6699
Vi
p6700
I4
sVthats
p6701
I2
ss(g3757
tp6702
(dp6703
g5823
I2
ss(g1980
tp6704
(dp6705
g3630
I2
ss(g465
tp6706
(dp6707
Vto
p6708
I2
sg1941
I2
sVthen
p6709
I2
ss(Vlost
p6710
tp6711
(dp6712
g6268
I2
ss(g3754
tp6713
(dp6714
Vcompletely
p6715
I2
ss(Vthis
p6716
tp6717
(dp6718
g4605
I5
sVcomment
p6719
I2
sVpoint
p6720
I4
sVis
p6721
I5
sVone
p6722
I2
sVyear
p6723
I2
sVhappens
p6724
I3
sVbook
p6725
I2
sVway
p6726
I2
sVinto
p6727
I2
sg3127
I2
sVinforms
p6728
I2
sVreason
p6729
I2
sVdata
p6730
I2
sg6693
I2
sg2390
I2
sg4730
I2
sVwork
p6731
I2
sg5679
I2
sVuntil
p6732
I2
sVperson
p6733
I2
sVtime
p6734
I2
sg5345
I5
sVguy
p6735
I2
sVwhole
p6736
I2
ss(g6383
tp6737
(dp6738
Vor
p6739
I2
ss(Vfake
p6740
tp6741
(dp6742
Vleaders
p6743
I2
ss(g1800
tp6744
(dp6745
Vabout
p6746
I2
sVmoney
p6747
I2
sVup
p6748
I2
sVit
p6749
I2
sVthe
p6750
I2
sVout
p6751
I2
ss(g4810
tp6752
(dp6753
Venough
p6754
I2
ss(g2819
tp6755
(dp6756
Vor
p6757
I2
ss(g2636
tp6758
(dp6759
Vdue
p6760
I2
ss(g3937
tp6761
(dp6762
Vfor
p6763
I2
ss(g3955
tp6764
(dp6765
Vwith
p6766
I2
ss(Vmothers
p6767
tp6768
(dp6769
Vday
p6770
I2
ss(Vaskreddit
p6771
tp6772
(dp6773
Vposts
p6774
I2
ss(g904
tp6775
(dp6776
Vcreate
p6777
I2
ss(Vloud
p6778
tp6779
(dp6780
g2203
I2
ss(g3294
tp6781
(dp6782
g2133
I2
sg3531
I2
ss(Vinsist
p6783
tp6784
(dp6785
Vmen
p6786
I2
ss(g3285
tp6787
(dp6788
Vhappens
p6789
I2
sVdid
p6790
I2
ss(Vridiculous
p6791
tp6792
(dp6793
g6376
I2
sVdays
p6794
I2
ss(g2597
tp6795
(dp6796
Vthe
p6797
I2
sVmyself
p6798
I2
ss(g2438
tp6799
(dp6800
Vat
p6801
I2
sVfor
p6802
I4
ss(Vpitch
p6803
tp6804
(dp6805
Vme
p6806
I2
ss(V5
p6807
tp6808
(dp6809
Vyears
p6810
I2
sVmins
p6811
I2
sVtimes
p6812
I2
ss(g3818
tp6813
(dp6814
Vpoint
p6815
I2
ss(g2468
tp6816
(dp6817
Vnever
p6818
I2
ss(g1400
tp6819
(dp6820
Vhow
p6821
I2
ss(g3749
tp6822
(dp6823
V10
p6824
I3
sVposts
p6825
I2
ss(g3773
tp6826
(dp6827
g4379
I2
ss(Vsurgeries
p6828
tp6829
(dp6830
Vhe
p6831
I2
ss(g2941
tp6832
(dp6833
Vgo
p6834
I2
ss(g5992
tp6835
(dp6836
Vwater
p6837
I2
ss(g3044
tp6838
(dp6839
Vothers
p6840
I2
ss(g3476
tp6841
(dp6842
Vof
p6843
I2
sVthe
p6844
I2
sVis
p6845
I2
ss(g5491
tp6846
(dp6847
g2314
I2
ss(g6192
tp6848
(dp6849
Von
p6850
I2
ss(g1654
tp6851
(dp6852
Vnot
p6853
I2
sVit
p6854
I2
ss(g4983
tp6855
(dp6856
g3193
I2
ss(g413
tp6857
(dp6858
Vall
p6859
I2
ss(g5978
tp6860
(dp6861
Vup
p6862
I2
sg4149
I2
ss(g6481
tp6863
(dp6864
Vor
p6865
I2
ss(g4122
tp6866
(dp6867
Vi
p6868
I2
sVin
p6869
I2
ss(Vfeminists
p6870
tp6871
(dp6872
g6783
I2
ss(g1862
tp6873
(dp6874
g6716
I2
ss(Vassume
p6875
tp6876
(dp6877
Vmy
p6878
I2
sVthat
p6879
I2
ss(Vlikable
p6880
tp6881
(dp6882
Vi
p6883
I2
ss(g906
tp6884
(dp6885
Vthe
p6886
I2
ss(Velektronik
p6887
tp6888
(dp6889
Vsigara
p6890
I5
ss(Videas
p6891
tp6892
(dp6893
Vand
p6894
I2
sVbut
p6895
I3
ss(g6015
tp6896
(dp6897
g3607
I2
ss(Vquestions
p6898
tp6899
(dp6900
Vor
p6901
I5
ss(g3290
tp6902
(dp6903
g6361
I2
ss(g1916
tp6904
(dp6905
Vbatman
p6906
I2
ss(Vactual
p6907
tp6908
(dp6909
g1266
I2
ss(Vtheres
p6910
tp6911
(dp6912
Va
p6913
I2
sVsome
p6914
I2
sVtoo
p6915
I2
sg6657
I2
sVnot
p6916
I2
sVprobably
p6917
I2
sVthe
p6918
I3
ss(g4956
tp6919
(dp6920
Vi
p6921
I2
sVrelated
p6922
I2
ss(g813
tp6923
(dp6924
Vand
p6925
I4
ss(g5810
tp6926
(dp6927
Vto
p6928
I2
sg2381
I2
sVbut
p6929
I3
sVi
p6930
I2
sVin
p6931
I3
sg5632
I2
ss(Vstay
p6932
tp6933
(dp6934
g5720
I2
sVin
p6935
I2
ss(g1860
tp6936
(dp6937
g4363
I2
ss(Vtrust
p6938
tp6939
(dp6940
g1246
I2
ss(Vwhich
p6941
tp6942
(dp6943
Vis
p6944
I4
sVhe
p6945
I2
sVwas
p6946
I3
sVisnt
p6947
I2
sVcontain
p6948
I2
ss(g2917
tp6949
(dp6950
Vwhich
p6951
I2
ss(Vwere
p6952
tp6953
(dp6954
Veven
p6955
I2
sVboth
p6956
I3
sVright
p6957
I2
sVgetting
p6958
I2
sValways
p6959
I2
sVsocially
p6960
I2
sg2736
I2
sVdead
p6961
I2
sg4797
I2
sg4875
I2
sVdamn
p6962
I2
sVin
p6963
I4
sg3144
I2
sVgoing
p6964
I2
sVthe
p6965
I3
sVmore
p6966
I2
ss(g6518
tp6967
(dp6968
Vout
p6969
I2
ss(g3272
tp6970
(dp6971
Vgrown
p6972
I2
sg2476
I2
sg3948
I2
sVtime
p6973
I2
sVsuit
p6974
I3
ss(g2851
tp6975
(dp6976
g1215
I2
ss(Vprevious
p6977
tp6978
(dp6979
Vwork
p6980
I2
ss(Voffice
p6981
tp6982
(dp6983
Vbarefoot
p6984
I2
ss(g5577
tp6985
(dp6986
g3567
I2
ss(g2258
tp6987
(dp6988
Vholmes
p6989
I2
ss(g2747
tp6990
(dp6991
Vive
p6992
I2
sVim
p6993
I2
sg4193
I2
sg1591
I2
ss(Vnetherlands
p6994
tp6995
(dp6996
Vsorry
p6997
I2
ss(g4548
tp6998
(dp6999
Vmy
p7000
I2
ss(g5719
tp7001
(dp7002
Vor
p7003
I2
ss(Vattraction
p7004
tp7005
(dp7006
Vand
p7007
I2
sVradar
p7008
I2
sg36
I2
ss(g3252
tp7009
(dp7010
Vand
p7011
I2
sVi
p7012
I2
ss(g5472
tp7013
(dp7014
g5819
I2
ss(g383
tp7015
(dp7016
Vand
p7017
I2
sVwake
p7018
I2
ss(g6375
tp7019
(dp7020
Vabout
p7021
I3
ss(g1087
tp7022
(dp7023
Vim
p7024
I2
sVfrom
p7025
I2
sg6177
I2
sVthat
p7026
I2
ss(Vtrump
p7027
tp7028
(dp7029
Vis
p7030
I2
sVthere
p7031
I2
sVwould
p7032
I2
sg2360
I2
ss(g3866
tp7033
(dp7034
Vunder
p7035
I2
ss(g2513
tp7036
(dp7037
Vsplits
p7038
I2
ss(g1160
tp7039
(dp7040
Vyears
p7041
I2
ss(Vremaining
p7042
tp7043
(dp7044
g5157
I2
ss(Vmoral
p7045
tp7046
(dp7047
g4410
I2
ss(g6199
tp7048
(dp7049
Vof
p7050
I2
ss(g1214
tp7051
(dp7052
Vbe
p7053
I3
ss(g924
tp7054
(dp7055
Vare
p7056
I2
ss(g945
tp7057
(dp7058
Vplz
p7059
I2
ss(g6469
tp7060
(dp7061
Vmy
p7062
I2
sVlikes
p7063
I2
ss(g4715
tp7064
(dp7065
g2521
I2
ss(g1752
tp7066
(dp7067
g3892
I2
sVcan
p7068
I2
sVbut
p7069
I2
sVthough
p7070
I2
ss(g6524
tp7071
(dp7072
Varound
p7073
I2
ss(Vvictory
p7074
tp7075
(dp7076
Vfor
p7077
I2
ss(V200
p7078
tp7079
(dp7080
g5500
I2
ss(g1815
tp7081
(dp7082
Vout
p7083
I2
ss(g4170
tp7084
(dp7085
Vand
p7086
I2
ss(g7008
tp7087
(dp7088
Vis
p7089
I2
ss(g6812
tp7090
(dp7091
Va
p7092
I3
sg1489
I2
sVnow
p7093
I2
sVbut
p7094
I2
sVin
p7095
I2
ss(Vgood
p7096
tp7097
(dp7098
Vset
p7099
I2
sVold
p7100
I2
sVpoint
p7101
I2
sg2748
I2
sVmoney
p7102
I2
sg4136
I2
sg4867
I2
sVas
p7103
I2
sVin
p7104
I2
ss(Vstarted
p7105
tp7106
(dp7107
Vearly
p7108
I2
sVwith
p7109
I2
ss(Vgenetics
p7110
tp7111
(dp7112
Vbut
p7113
I2
sVin
p7114
I2
ss(g4947
tp7115
(dp7116
Vand
p7117
I2
sg853
I2
sVreddit
p7118
I2
sVsomeone
p7119
I2
sg501
I2
sVthat
p7120
I5
sVi
p7121
I2
sVfirecrackers
p7122
I2
sVafter
p7123
I2
sVjeans
p7124
I2
sVit
p7125
I3
sVno
p7126
I2
sVan
p7127
I2
sVto
p7128
I3
sVhot
p7129
I2
sVbecause
p7130
I2
sVa
p7131
I3
sVbeasts
p7132
I3
sVbuy
p7133
I2
sVits
p7134
I2
sVmath
p7135
I2
ss(Vwould
p7136
tp7137
(dp7138
Vdo
p7139
I2
sg2991
I2
sVbe
p7140
I6
sg3169
I2
sVimplicitly
p7141
I2
sVget
p7142
I2
sVstop
p7143
I2
sVonly
p7144
I2
sVpop
p7145
I2
sVlike
p7146
I2
sg1994
I8
sg3998
I2
sVhave
p7147
I4
sVrecommend
p7148
I2
sVqualify
p7149
I2
sVprobably
p7150
I3
sVyou
p7151
I3
sVmean
p7152
I2
ss(g64
tp7153
(dp7154
Vin
p7155
I3
ss(g582
tp7156
(dp7157
Vtheir
p7158
I2
ss(Vso
p7159
tp7160
(dp7161
Vfucking
p7162
I2
sVyears
p7163
I2
sg4999
I2
sVits
p7164
I3
sVif
p7165
I2
sg3225
I2
sVfor
p7166
I2
sVno
p7167
I2
sVid
p7168
I2
sVprobably
p7169
I2
sVyou
p7170
I2
sVslightly
p7171
I2
sVthat
p7172
I2
sg3694
I2
sg531
I2
sVthey
p7173
I3
sVi
p7174
I4
sVmany
p7175
I2
sVtheyre
p7176
I2
sVbad
p7177
I2
sVshe
p7178
I3
sVloud
p7179
I2
ss(Vgeneral
p7180
tp7181
(dp7182
g254
I2
sVonly
p7183
I2
sg4871
I2
sVhowever
p7184
I2
ss(Vstrangle
p7185
tp7186
(dp7187
Vhim
p7188
I2
ss(Vsandals
p7189
tp7190
(dp7191
Va
p7192
I2
ss(g5974
tp7193
(dp7194
Vand
p7195
I2
ss(g4002
tp7196
(dp7197
Veven
p7198
I2
sVand
p7199
I2
sVbecause
p7200
I2
sV20
p7201
I2
sVfor
p7202
I2
sVwreck
p7203
I2
sVlol
p7204
I2
sVunder
p7205
I2
sVapart
p7206
I2
ss(g6339
tp7207
(dp7208
Vschool
p7209
I4
sVbecause
p7210
I2
ss(Vplayed
p7211
tp7212
(dp7213
Vin
p7214
I2
ss(g5430
tp7215
(dp7216
Vthe
p7217
I2
ss(Vcourse
p7218
tp7219
(dp7220
Vto
p7221
I2
ss(Vmountain
p7222
tp7223
(dp7224
Vin
p7225
I2
ss(g5255
tp7226
(dp7227
g5256
I2
ss(g4653
tp7228
(dp7229
g6582
I3
ss(g4936
tp7230
(dp7231
Va
p7232
I2
sVbecause
p7233
I2
sg316
I2
sVshe
p7234
I2
sVthe
p7235
I3
sVmy
p7236
I2
sVyou
p7237
I2
sVhe
p7238
I3
ss(Vconversation
p7239
tp7240
(dp7241
Vwe
p7242
I2
sVabout
p7243
I2
ss(g5013
tp7244
(dp7245
Vme
p7246
I3
ss(Vtearing
p7247
tp7248
(dp7249
Vup
p7250
I3
ss(g3242
tp7251
(dp7252
Vand
p7253
I2
ss(g5410
tp7254
(dp7255
Vmale
p7256
I2
ss(Vbrowser
p7257
tp7258
(dp7259
Vhistory
p7260
I2
ss(g3768
tp7261
(dp7262
Vim
p7263
I2
ss(g1711
tp7264
(dp7265
Vor
p7266
I2
ss(g4389
tp7267
(dp7268
Vbut
p7269
I2
ss(g4744
tp7270
(dp7271
Vthrough
p7272
I2
ss(g966
tp7273
(dp7274
Vcampaign
p7275
I2
ss(g3426
tp7276
(dp7277
Vand
p7278
I2
ss(g6351
tp7279
(dp7280
g5761
I2
ss(Vimagination
p7281
tp7282
(dp7283
Vwhich
p7284
I2
ss(g4277
tp7285
(dp7286
g36
I2
sVdont
p7287
I2
sVas
p7288
I3
sVim
p7289
I2
sVare
p7290
I5
sVwere
p7291
I2
sVcan
p7292
I2
ss(g2176
tp7293
(dp7294
Vsome
p7295
I2
sVit
p7296
I2
ss(g79
tp7297
(dp7298
Vand
p7299
I2
sVto
p7300
I2
sVmoney
p7301
I2
ss(g5870
tp7302
(dp7303
Vi
p7304
I2
ss(g4372
tp7305
(dp7306
g36
I2
sVsince
p7307
I2
sVif
p7308
I2
ss(Vrandom
p7309
tp7310
(dp7311
g3854
I2
sg5423
I2
ss(Vproblems
p7312
tp7313
(dp7314
Vmen
p7315
I2
sVbut
p7316
I2
sVto
p7317
I2
sVexist
p7318
I2
sVthose
p7319
I2
sVif
p7320
I2
ss(g1839
tp7321
(dp7322
Vi
p7323
I3
ss(Vinternal
p7324
tp7325
(dp7326
Vpatriarchy
p7327
I2
ss(g6323
tp7328
(dp7329
Vprofiles
p7330
I2
ss(g5426
tp7331
(dp7332
Vto
p7333
I3
ss(g84
tp7334
(dp7335
Vmore
p7336
I2
ss(Veyes
p7337
tp7338
(dp7339
Vhas
p7340
I2
sVthose
p7341
I2
sVwould
p7342
I2
ss(g4838
tp7343
(dp7344
g3978
I2
ss(g3771
tp7345
(dp7346
Vare
p7347
I2
ss(Vsmacking
p7348
tp7349
(dp7350
Vand
p7351
I2
ss(g4280
tp7352
(dp7353
Vand
p7354
I2
ss(g1756
tp7355
(dp7356
g831
I2
ss(g6490
tp7357
(dp7358
Vlike
p7359
I2
ss(Vnobody
p7360
tp7361
(dp7362
g804
I2
sVwould
p7363
I2
sVcares
p7364
I2
ss(g7203
tp7365
(dp7366
Vagain
p7367
I2
ss(g1573
tp7368
(dp7369
g4828
I2
ss(g3263
tp7370
(dp7371
Vthanks
p7372
I2
ss(Vteach
p7373
tp7374
(dp7375
Vme
p7376
I2
ss(g1388
tp7377
(dp7378
Vbe
p7379
I4
sVwe
p7380
I2
sg6311
I2
sVget
p7381
I2
sg2306
I2
sVdouble
p7382
I2
sVmake
p7383
I2
sg4642
I2
sVbut
p7384
I2
sVaim
p7385
I2
sVfinally
p7386
I2
sg1663
I2
sVstill
p7387
I2
sVtell
p7388
I2
sVtheres
p7389
I2
ss(g1153
tp7390
(dp7391
g4406
I2
ss(g72
tp7392
(dp7393
Vbecause
p7394
I2
ss(g6890
tp7395
(dp7396
g210
I2
sg5574
I2
sg2292
I3
ss(Vdisgusts
p7397
tp7398
(dp7399
Vme
p7400
I2
ss(Vtrades
p7401
tp7402
(dp7403
g6533
I2
ss(g119
tp7404
(dp7405
Vof
p7406
I2
ss(g3525
tp7407
(dp7408
Vcomment
p7409
I2
ss(g1802
tp7410
(dp7411
Va
p7412
I4
sVbe
p7413
I2
sg3658
I2
sVsomething
p7414
I2
sVtake
p7415
I2
sVpissed
p7416
I2
sg2923
I2
ss(g4261
tp7417
(dp7418
Vas
p7419
I2
sVwith
p7420
I2
sVin
p7421
I2
ss(g643
tp7422
(dp7423
g1229
I2
ss(g90
tp7424
(dp7425
Vaboveaverage
p7426
I2
sVas
p7427
I2
sg6290
I2
ss(g4085
tp7428
(dp7429
Vis
p7430
I2
ss(g4978
tp7431
(dp7432
Vdown
p7433
I2
sVit
p7434
I2
sVlike
p7435
I2
ss(g2469
tp7436
(dp7437
Vfeel
p7438
I2
ss(Vhaha
p7439
tp7440
(dp7441
Vive
p7442
I2
ss(g3751
tp7443
(dp7444
Vand
p7445
I2
ss(Vfollicle
p7446
tp7447
(dp7448
g307
I3
ss(g1586
tp7449
(dp7450
Vyou
p7451
I2
ss(Vreddit
p7452
tp7453
(dp7454
Vhow
p7455
I2
sVwould
p7456
I2
sVto
p7457
I3
ss(Vpleasantly
p7458
tp7459
(dp7460
Vsuprised
p7461
I2
ss(g4290
tp7462
(dp7463
Vdoesnt
p7464
I2
ss(Vporn
p7465
tp7466
(dp7467
Vcameraman
p7468
I2
sVhas
p7469
I2
ss(g5987
tp7470
(dp7471
g4316
I2
sg4902
I2
sg221
I2
ss(Vstick
p7472
tp7473
(dp7474
Vto
p7475
I2
ss(g4701
tp7476
(dp7477
Vi
p7478
I2
sg36
I2
sVthe
p7479
I2
sVtoday
p7480
I2
ss(g4764
tp7481
(dp7482
g4333
I2
ss(g3553
tp7483
(dp7484
Vi
p7485
I2
ss(g3248
tp7486
(dp7487
g183
I2
ss(Varresting
p7488
tp7489
(dp7490
g4566
I2
ss(Vattention
p7491
tp7492
(dp7493
g6352
I4
ss(g509
tp7494
(dp7495
Vyou
p7496
I2
ss(g3944
tp7497
(dp7498
Vthat
p7499
I2
ss(g4099
tp7500
(dp7501
Vthen
p7502
I2
ss(Vdude
p7503
tp7504
(dp7505
Vi
p7506
I2
sVcloaks
p7507
I2
ss(g1889
tp7508
(dp7509
Vwe
p7510
I2
ss(g6007
tp7511
(dp7512
Vfashion
p7513
I2
ss(g5404
tp7514
(dp7515
Vthe
p7516
I3
ss(g1823
tp7517
(dp7518
Vour
p7519
I2
ss(g5002
tp7520
(dp7521
Vwith
p7522
I2
ss(g7141
tp7523
(dp7524
g6938
I2
ss(Venough
p7525
tp7526
(dp7527
Vi
p7528
I2
sVto
p7529
I3
sVtime
p7530
I2
ss(Vconsists
p7531
tp7532
(dp7533
Vof
p7534
I2
ss(g3350
tp7535
(dp7536
Vabout
p7537
I2
sVwhat
p7538
I2
ss(Vwhere
p7539
tp7540
(dp7541
Va
p7542
I2
sVwe
p7543
I2
sVwoman
p7544
I2
sVthese
p7545
I2
sVit
p7546
I3
sVas
p7547
I2
sVim
p7548
I2
sVyou
p7549
I2
sVthe
p7550
I2
ss(g891
tp7551
(dp7552
g5028
I2
sVlike
p7553
I2
sg3868
I2
ss(g518
tp7554
(dp7555
g5034
I2
ss(g1383
tp7556
(dp7557
Vhere
p7558
I2
ss(g5997
tp7559
(dp7560
Vi
p7561
I2
sVwith
p7562
I3
sg7539
I2
sg775
I2
sVthat
p7563
I2
ss(g6728
tp7564
(dp7565
Vmy
p7566
I2
ss(g3756
tp7567
(dp7568
Vmonths
p7569
I2
ss(g3464
tp7570
(dp7571
Vthe
p7572
I3
sg4414
I2
ss(Vme
p7573
tp7574
(dp7575
Vand
p7576
I3
sVspring
p7577
I2
sVis
p7578
I2
sVsome
p7579
I2
sVas
p7580
I2
sVsimply
p7581
I2
sVromantically
p7582
I2
sVgo
p7583
I2
sVto
p7584
I5
sVhow
p7585
I2
sVasking
p7586
I2
sVman
p7587
I2
sVof
p7588
I2
sVplz
p7589
I2
sg5783
I2
sg3974
I2
sVnot
p7590
I3
sVhe
p7591
I2
sVa
p7592
I3
sg5091
I3
sg5936
I2
sVso
p7593
I2
sVfavors
p7594
I2
ss(g3758
tp7595
(dp7596
Vi
p7597
I3
sVor
p7598
I2
ss(g3745
tp7599
(dp7600
Vwho
p7601
I2
ss(g7480
tp7602
(dp7603
Vi
p7604
I2
ss(g6082
tp7605
(dp7606
Va
p7607
I2
sVblatantly
p7608
I2
sVall
p7609
I2
sVjust
p7610
I2
sVtrue
p7611
I2
sVillegal
p7612
I2
sVbrutal
p7613
I2
sg6185
I2
sVnot
p7614
I2
sg354
I2
sVwhy
p7615
I3
ss(g3763
tp7616
(dp7617
g6603
I2
ss(g7178
tp7618
(dp7619
Vtried
p7620
I2
sVcussed
p7621
I2
sg5009
I3
sVseems
p7622
I2
sg7211
I2
sVhad
p7623
I2
sg2406
I2
sVcan
p7624
I2
sg2986
I2
sg171
I2
sg5740
I2
sVdidnt
p7625
I2
sVhas
p7626
I3
sVwas
p7627
I3
ss(g3297
tp7628
(dp7629
Vand
p7630
I2
sVof
p7631
I2
sVfor
p7632
I2
sVmoney
p7633
I2
ss(g3329
tp7634
(dp7635
g3182
I2
ss(g5811
tp7636
(dp7637
Vto
p7638
I2
ss(g18
tp7639
(dp7640
Vand
p7641
I2
ss(g890
tp7642
(dp7643
Vis
p7644
I2
ss(g6515
tp7645
(dp7646
Vmost
p7647
I2
sg6740
I2
ss(g1385
tp7648
(dp7649
Va
p7650
I2
sVit
p7651
I2
ss(g3284
tp7652
(dp7653
g1095
I2
sg2110
I2
sg1438
I2
sg3408
I2
ss(Vkoolaid
p7654
tp7655
(dp7656
g6565
I2
ss(g1061
tp7657
(dp7658
Vits
p7659
I2
sVtheyre
p7660
I2
ss(Vchance
p7661
tp7662
(dp7663
Vthe
p7664
I2
sVhe
p7665
I2
ss(g4662
tp7666
(dp7667
Vjust
p7668
I2
sVat
p7669
I2
sVhave
p7670
I2
ss(g497
tp7671
(dp7672
g5658
I2
sVa
p7673
I3
sVabout
p7674
I2
sg2959
I2
sVthinking
p7675
I2
sg4029
I2
sg6448
I2
sVable
p7676
I2
sVin
p7677
I2
ss(g7608
tp7678
(dp7679
g6075
I2
ss(Vcriminal
p7680
tp7681
(dp7682
Vwork
p7683
I2
ss(g3910
tp7684
(dp7685
g5446
I2
ss(g52
tp7686
(dp7687
Vinto
p7688
I2
ss(Vnaturally
p7689
tp7690
(dp7691
Vstronger
p7692
I2
ss(g1886
tp7693
(dp7694
g4957
I2
ss(Vmolest
p7695
tp7696
(dp7697
Vme
p7698
I2
ss(g2555
tp7699
(dp7700
g644
I2
ss(g3130
tp7701
(dp7702
Vshell
p7703
I2
ss(g4459
tp7704
(dp7705
Vwhen
p7706
I2
sVor
p7707
I4
sVcomments
p7708
I4
ss(Visnt
p7709
tp7710
(dp7711
Vthat
p7712
I2
sg452
I2
sg7525
I2
sVmuch
p7713
I2
sVworth
p7714
I2
sg3638
I2
ss(g5860
tp7715
(dp7716
Vby
p7717
I2
ss(g6523
tp7718
(dp7719
Vmy
p7720
I2
ss(g6569
tp7721
(dp7722
Vdienst
p7723
I2
ss(g4296
tp7724
(dp7725
Vsexuality
p7726
I2
sg679
I2
ss(g5213
tp7727
(dp7728
Vseries
p7729
I2
ss(g1057
tp7730
(dp7731
Vof
p7732
I2
sg371
I2
ss(g4564
tp7733
(dp7734
Vwith
p7735
I2
sVever
p7736
I2
ss(g1978
tp7737
(dp7738
g1930
I2
ss(Vwatching
p7739
tp7740
(dp7741
Vit
p7742
I2
ss(g5435
tp7743
(dp7744
Vhim
p7745
I2
ss(g4555
tp7746
(dp7747
Vare
p7748
I2
sg2058
I2
sVworks
p7749
I2
sg671
I2
sVwould
p7750
I2
sg2544
I2
sVdid
p7751
I2
sVis
p7752
I2
sVspecializes
p7753
I2
sVi
p7754
I2
sVplanted
p7755
I2
sVbrag
p7756
I2
sVcan
p7757
I2
sg6952
I2
sg1676
I2
sVwas
p7758
I2
sVlikes
p7759
I3
ss(g4142
tp7760
(dp7761
g4394
I2
sg1014
I2
ss(g5586
tp7762
(dp7763
Vup
p7764
I2
sVlike
p7765
I2
ss(g6373
tp7766
(dp7767
Vit
p7768
I2
sg2548
I2
ss(g2283
tp7769
(dp7770
Vid
p7771
I2
ss(g2853
tp7772
(dp7773
Vwould
p7774
I2
ss(g1348
tp7775
(dp7776
Vhave
p7777
I2
ss(Vyup
p7778
tp7779
(dp7780
Vi
p7781
I2
ss(Vworse
p7782
tp7783
(dp7784
Voff
p7785
I2
sVthan
p7786
I2
sVbut
p7787
I2
ss(Vjar
p7788
tp7789
(dp7790
g7397
I2
ss(Vdirt
p7791
tp7792
(dp7793
g6305
I2
ss(Vaddicted
p7794
tp7795
(dp7796
Vto
p7797
I2
ss(g3359
tp7798
(dp7799
Vthis
p7800
I2
sVfor
p7801
I2
ss(g1392
tp7802
(dp7803
Vthat
p7804
I2
ss(g7201
tp7805
(dp7806
Vyears
p7807
I2
ss(Vhes
p7808
tp7809
(dp7810
g1684
I2
sVinto
p7811
I2
sVafter
p7812
I2
sVin
p7813
I2
ss(g4753
tp7814
(dp7815
Vit
p7816
I3
ss(g115
tp7817
(dp7818
Vfor
p7819
I2
ss(g2228
tp7820
(dp7821
Vthese
p7822
I2
ss(Viin
p7823
tp7824
(dp7825
Vboaz
p7826
I2
sg4761
I2
ss(g3299
tp7827
(dp7828
Vthis
p7829
I2
sVis
p7830
I2
sVthe
p7831
I2
sVsentence
p7832
I2
ss(g5497
tp7833
(dp7834
g3662
I2
sVtinder
p7835
I2
sVis
p7836
I2
sVwould
p7837
I2
sVmens
p7838
I2
ss(g4443
tp7839
(dp7840
Vover
p7841
I2
sVyour
p7842
I2
ss(g7826
tp7843
(dp7844
g4815
I2
ss(Vpity
p7845
tp7846
(dp7847
Vparty
p7848
I2
ss(g1387
tp7849
(dp7850
Vi
p7851
I2
ss(g1125
tp7852
(dp7853
Va
p7854
I2
sVhe
p7855
I2
sg7096
I2
sg6618
I2
sVfor
p7856
I2
sVher
p7857
I2
sg7348
I2
sVin
p7858
I2
sVwell
p7859
I2
sg953
I3
sVan
p7860
I3
sVtheir
p7861
I2
sg4839
I2
sg2813
I2
sVshe
p7862
I2
sVthey
p7863
I2
sVwere
p7864
I2
sVyou
p7865
I2
sVmore
p7866
I2
sg4612
I2
sVnice
p7867
I2
ss(Vhi
p7868
tp7869
(dp7870
Vthere
p7871
I2
ss(g3381
tp7872
(dp7873
Vthat
p7874
I2
ss(Vglobalism
p7875
tp7876
(dp7877
Vand
p7878
I2
ss(g1783
tp7879
(dp7880
Vare
p7881
I2
ss(g1365
tp7882
(dp7883
Vitd
p7884
I2
ss(Vhope
p7885
tp7886
(dp7887
Vthis
p7888
I2
sVto
p7889
I2
sVsomeone
p7890
I2
sVeverything
p7891
I2
ss(Vis
p7892
tp7893
(dp7894
Vall
p7895
I2
sVjust
p7896
I2
sg6538
I3
sVmerely
p7897
I2
sVsome
p7898
I2
sVit
p7899
I2
sg2660
I3
sVdone
p7900
I2
sVin
p7901
I2
sg7324
I2
sVreally
p7902
I2
sg7222
I2
sg982
I2
sVnow
p7903
I2
sVfor
p7904
I2
sVfeminist
p7905
I2
sVcurrently
p7906
I3
sVonly
p7907
I2
sg2425
I2
sVto
p7908
I5
sg2693
I2
sVmuch
p7909
I3
sVbetter
p7910
I2
sg3982
I2
sVwas
p7911
I2
sVworth
p7912
I2
sVspeaking
p7913
I2
sVmore
p7914
I2
sVthat
p7915
I4
sVacceptable
p7916
I2
sVindicted
p7917
I2
sVcheaper
p7918
I2
sVhow
p7919
I2
sVprohibited
p7920
I2
sVno
p7921
I2
sVcoming
p7922
I2
sVsleeping
p7923
I2
sVsuper
p7924
I2
sVa
p7925
I15
sVgoing
p7926
I2
sVlower
p7927
I2
sVmade
p7928
I2
sVlike
p7929
I2
sg5331
I2
sValways
p7930
I2
sVhunter2
p7931
I2
sg5239
I2
sg7794
I2
sVabout
p7932
I2
sVthe
p7933
I4
sVargue
p7934
I2
sVmy
p7935
I2
ss(g3286
tp7936
(dp7937
Vdonor
p7938
I2
sVwife
p7939
I2
sg4197
I2
sVson
p7940
I2
ss(g2428
tp7941
(dp7942
Vand
p7943
I2
ss(g4262
tp7944
(dp7945
Vand
p7946
I2
ss(Vnot
p7947
tp7948
(dp7949
Vall
p7950
I2
sVbecause
p7951
I2
sg3373
I2
sVas
p7952
I2
sVeveryone
p7953
I2
sVsomething
p7954
I2
sVin
p7955
I3
sVgo
p7956
I2
sg7695
I2
sVany
p7957
I2
sVreally
p7958
I2
sVeven
p7959
I2
sg1283
I2
sVlong
p7960
I2
sg757
I4
sVlooking
p7961
I2
sVto
p7962
I3
sVgoing
p7963
I2
sVholding
p7964
I2
sVhe
p7965
I2
sVscrawny
p7966
I2
sVbe
p7967
I2
sVsure
p7968
I2
sVthat
p7969
I2
sVremembered
p7970
I2
sg1727
I2
sVstop
p7971
I2
sVcontradictory
p7972
I2
sVa
p7973
I2
sg6105
I2
sg5018
I2
sVwith
p7974
I2
sVthrow
p7975
I2
sg3618
I2
sg7573
I2
sVabout
p7976
I2
sg6134
I2
sg5150
I4
sVso
p7977
I2
sg6414
I2
sVhaving
p7978
I2
ss(g6961
tp7979
(dp7980
Vand
p7981
I2
ss(Vtable
p7982
tp7983
(dp7984
Vone
p7985
I2
ss(g6989
tp7986
(dp7987
Vtype
p7988
I2
ss(g199
tp7989
(dp7990
Vall
p7991
I2
sVpeople
p7992
I2
sVsome
p7993
I3
sVit
p7994
I2
sVan
p7995
I2
sVcollege
p7996
I2
sg2911
I2
sg2038
I2
sg5662
I2
sVyour
p7997
I2
sg6977
I2
sVwhat
p7998
I2
sg7110
I2
sVher
p7999
I3
sg3111
I2
sg3118
I2
sg3966
I2
sVtheir
p8000
I5
sVcnc
p8001
I2
sVyou
p8002
I2
sg3582
I2
sg2829
I2
sVthem
p8003
I2
sVhis
p8004
I2
sVthat
p8005
I5
sVgreat
p8006
I2
sg575
I3
sg4899
I2
sVa
p8007
I7
sVabout
p8008
I3
sg1655
I2
sVanything
p8009
I2
sVmaybe
p8010
I2
sVage
p8011
I2
sg7401
I2
sVexperience
p8012
I2
sVeither
p8013
I2
sVthe
p8014
I6
sVmy
p8015
I3
sg4054
I2
ss(g715
tp8016
(dp8017
Vto
p8018
I2
ss(Vpantsuits
p8019
tp8020
(dp8021
g7360
I2
ss(g7569
tp8022
(dp8023
Vof
p8024
I2
sVafter
p8025
I2
ss(g1149
tp8026
(dp8027
Vor
p8028
I2
ss(g6467
tp8029
(dp8030
g1309
I2
sVgood
p8031
I2
sg1954
I2
sg2050
I2
sVreally
p8032
I2
sVads
p8033
I2
sVaway
p8034
I2
sVthere
p8035
I2
sVto
p8036
I2
sg457
I2
sVnew
p8037
I2
sVused
p8038
I2
sVthat
p8039
I2
sVstarted
p8040
I2
sg4507
I2
sValong
p8041
I3
sVwith
p8042
I2
sVa
p8043
I3
sVnoscoped
p8044
I2
sg6710
I2
sg1765
I2
sVthe
p8045
I3
sg5178
I2
ss(g3991
tp8046
(dp8047
Va
p8048
I2
ss(g3451
tp8049
(dp8050
Von
p8051
I2
sVthat
p8052
I2
ss(Vyoga
p8053
tp8054
(dp8055
Vpants
p8056
I3
ss(g7132
tp8057
(dp8058
Vit
p8059
I3
ss(g130
tp8060
(dp8061
Vjobs
p8062
I2
sVfor
p8063
I2
ss(g3325
tp8064
(dp8065
g6018
I2
ss(g3107
tp8066
(dp8067
Vthe
p8068
I2
ss(g5927
tp8069
(dp8070
Vif
p8071
I2
ss(g6280
tp8072
(dp8073
Vin
p8074
I2
ss(g3803
tp8075
(dp8076
Vand
p8077
I2
sVtalking
p8078
I2
sVthe
p8079
I4
sVwith
p8080
I2
ss(g6248
tp8081
(dp8082
Vform
p8083
I2
ss(g1834
tp8084
(dp8085
Vhas
p8086
I2
sVdoesnt
p8087
I2
sVmoney
p8088
I2
sVfriend
p8089
I2
sVagain
p8090
I2
ss(g7209
tp8091
(dp8092
Vand
p8093
I2
sVyou
p8094
I2
sVwho
p8095
I2
sVguy
p8096
I2
ss(Vshirt
p8097
tp8098
(dp8099
Voff
p8100
I2
sVrepeat
p8101
I2
sVpulling
p8102
I3
ss(Vpresidency
p8103
tp8104
(dp8105
g7531
I2
ss(g5708
tp8106
(dp8107
Vfor
p8108
I2
ss(g4478
tp8109
(dp8110
Vworth
p8111
I2
sVcan
p8112
I2
ss(Vauthorities
p8113
tp8114
(dp8115
Vinvolved
p8116
I2
ss(g1810
tp8117
(dp8118
g4448
I2
ss(Vshadow
p8119
tp8120
(dp8121
Vof
p8122
I2
ss(g232
tp8123
(dp8124
Ventire
p8125
I2
ss(Vheavy
p8126
tp8127
(dp8128
Vand
p8129
I2
ss(g914
tp8130
(dp8131
Vturkey
p8132
I2
sVagain
p8133
I2
sVbeing
p8134
I2
sVor
p8135
I2
sVjust
p8136
I2
sg5967
I2
sVan
p8137
I2
sVi
p8138
I2
sVuses
p8139
I2
sVyes
p8140
I2
sVits
p8141
I2
sg3592
I2
ss(g1370
tp8142
(dp8143
Vfor
p8144
I2
ss(g5982
tp8145
(dp8146
g4455
I4
sg6898
I5
sVof
p8147
I3
sg6232
I2
sVhelp
p8148
I2
sVsway
p8149
I2
sg7661
I2
sVrole
p8150
I2
sVway
p8151
I2
sVtime
p8152
I2
sVman
p8153
I2
sg6778
I2
sVworse
p8154
I2
ss(g7675
tp8155
(dp8156
Vabout
p8157
I2
ss(g929
tp8158
(dp8159
Vso
p8160
I2
ss(Vconstant
p8161
tp8162
(dp8163
g7845
I2
ss(g3031
tp8164
(dp8165
Vhe
p8166
I2
ss(g6388
tp8167
(dp8168
Vive
p8169
I2
sVthat
p8170
I2
sVi
p8171
I2
sVwho
p8172
I2
sg2732
I2
sg683
I2
ss(Vmaterial
p8173
tp8174
(dp8175
Vand
p8176
I2
ss(g3279
tp8177
(dp8178
g200
I2
ss(g3147
tp8179
(dp8180
g5048
I2
ss(g7920
tp8181
(dp8182
Vyou
p8183
I2
ss(g3340
tp8184
(dp8185
Vin
p8186
I2
ss(g92
tp8187
(dp8188
Vto
p8189
I2
sVgreat
p8190
I2
ss(g7729
tp8191
(dp8192
Vthat
p8193
I2
ss(g7025
tp8194
(dp8195
Va
p8196
I4
sVruk
p8197
I2
sVwhat
p8198
I2
sVanything
p8199
I2
sg6380
I2
sg4716
I3
sVrandom
p8200
I2
sVgirls
p8201
I2
sVexperience
p8202
I2
sg7875
I2
sVanother
p8203
I2
sVonline
p8204
I2
sVmaking
p8205
I2
sVthe
p8206
I5
sVmy
p8207
I4
ss(g6336
tp8208
(dp8209
g3072
I2
ss(g3762
tp8210
(dp8211
g8053
I2
ss(g3326
tp8212
(dp8213
Vand
p8214
I2
sg1279
I2
ss(g7975
tp8215
(dp8216
Va
p8217
I2
sVhim
p8218
I2
ss(g1339
tp8219
(dp8220
Veat
p8221
I2
sVhave
p8222
I3
ss(g3348
tp8223
(dp8224
Vmaybe
p8225
I2
ss(g5661
tp8226
(dp8227
Vso
p8228
I2
ss(g1590
tp8229
(dp8230
Vtimes
p8231
I2
ss(g7581
tp8232
(dp8233
Vby
p8234
I2
ss(g1361
tp8235
(dp8236
g5451
I2
sVeyeliner
p8237
I2
sg8019
I2
sg4033
I2
sg4123
I2
sVthe
p8238
I2
sg7189
I2
sVmy
p8239
I2
sVtoday
p8240
I2
ss(Vsteel
p8241
tp8242
(dp8243
Vi
p8244
I2
ss(g5236
tp8245
(dp8246
Vbe
p8247
I2
sVsaid
p8248
I2
sVso
p8249
I2
ss(g2820
tp8250
(dp8251
g1950
I2
ss(g5774
tp8252
(dp8253
g36
I2
ss(g3369
tp8254
(dp8255
Vthat
p8256
I2
ss(Vconvicts
p8257
tp8258
(dp8259
Vbrother
p8260
I2
ss(g7416
tp8261
(dp8262
Vaway
p8263
I2
ss(g7594
tp8264
(dp8265
Vuntil
p8266
I2
ss(g633
tp8267
(dp8268
Vattraction
p8269
I2
sVstature
p8270
I2
ss(g6461
tp8271
(dp8272
Vthe
p8273
I2
ss(g4279
tp8274
(dp8275
Vbecause
p8276
I2
ss(g2807
tp8277
(dp8278
g4757
I2
ss(Vtext
p8279
tp8280
(dp8281
Vbox
p8282
I3
ss(Vsymbol
p8283
tp8284
(dp8285
Vso
p8286
I2
ss(g1504
tp8287
(dp8288
g7823
I2
ss(g1791
tp8289
(dp8290
Vjitsu
p8291
I2
ss(g651
tp8292
(dp8293
V
p8294
I2
sVasking
p8295
I2
sVshit
p8296
I2
sVin
p8297
I2
ss(g2758
tp8298
(dp8299
Vyou
p8300
I2
sVwhere
p8301
I2
ss(g3780
tp8302
(dp8303
Vas
p8304
I2
ss(g3324
tp8305
(dp8306
Vof
p8307
I2
ss(g6517
tp8308
(dp8309
Vor
p8310
I2
ss(g6475
tp8311
(dp8312
Vof
p8313
I2
sVup
p8314
I4
sVto
p8315
I2
ss(Vphrasing
p8316
tp8317
(dp8318
Vof
p8319
I2
sVisnt
p8320
I2
ss(g6244
tp8321
(dp8322
Vwith
p8323
I2
ss(g8291
tp8324
(dp8325
Vat
p8326
I2
ss(g5989
tp8327
(dp8328
Vthe
p8329
I2
ss(g1344
tp8330
(dp8331
Va
p8332
I2
sVwhat
p8333
I3
sVfrom
p8334
I2
sVpeople
p8335
I2
sVi
p8336
I3
sVof
p8337
I2
sg4175
I3
sVsome
p8338
I2
sVabout
p8339
I3
sg2888
I4
sVare
p8340
I2
sVmy
p8341
I2
sVits
p8342
I3
sVif
p8343
I2
ss(g1874
tp8344
(dp8345
Voff
p8346
I2
ss(g2198
tp8347
(dp8348
g5876
I2
sVi
p8349
I2
sVhere
p8350
I2
sVtime
p8351
I2
sVyou
p8352
I2
sg2031
I2
ss(g1792
tp8353
(dp8354
g5479
I4
ss(g4268
tp8355
(dp8356
Vby
p8357
I2
ss(g4069
tp8358
(dp8359
g2540
I2
sVother
p8360
I3
ss(Vsure
p8361
tp8362
(dp8363
Vi
p8364
I2
sVthey
p8365
I3
sVif
p8366
I2
ss(Vfault
p8367
tp8368
(dp8369
g4246
I2
sVhes
p8370
I2
ss(g996
tp8371
(dp8372
Vjust
p8373
I2
sg3573
I2
ss(g6314
tp8374
(dp8375
Vin
p8376
I2
ss(g1850
tp8377
(dp8378
Vmy
p8379
I2
ss(g8340
tp8380
(dp8381
g6586
I2
sVright
p8382
I2
sg510
I2
sg1913
I2
sVfucking
p8383
I2
sVin
p8384
I2
sVhigh
p8385
I2
sVas
p8386
I2
sg1127
I2
sg4975
I2
sVstill
p8387
I2
sg4860
I2
sVthere
p8388
I2
sg3562
I3
sVactually
p8389
I2
sVlooking
p8390
I2
sVtoo
p8391
I2
sVway
p8392
I2
sVyou
p8393
I3
sVmore
p8394
I4
sVbrothers
p8395
I2
sVvery
p8396
I2
sg6331
I2
sg1219
I2
sVnot
p8397
I8
sg6409
I2
sVwhite
p8398
I2
sVlike
p8399
I2
sVa
p8400
I2
sg4341
I2
sVaverage
p8401
I2
sg1981
I2
sg7689
I2
ss(g5985
tp8402
(dp8403
g4004
I2
sVoutfits
p8404
I2
sVarea
p8405
I2
ss(g8111
tp8406
(dp8407
Vi
p8408
I2
sVlots
p8409
I2
sVthe
p8410
I3
sg3724
I2
ss(g4315
tp8411
(dp8412
g36
I2
ss(g5327
tp8413
(dp8414
Vthey
p8415
I2
ss(Vyeah
p8416
tp8417
(dp8418
Vi
p8419
I2
sg3922
I2
sVbut
p8420
I2
sVim
p8421
I2
sVthey
p8422
I2
sVid
p8423
I2
ss(g2217
tp8424
(dp8425
Vup
p8426
I2
ss(g2497
tp8427
(dp8428
Vto
p8429
I5
ss(g7751
tp8430
(dp8431
g1322
I2
sVand
p8432
I2
sVnotice
p8433
I2
sVthat
p8434
I2
sVi
p8435
I2
sVan
p8436
I2
sVnot
p8437
I2
sVmeet
p8438
I2
sVyou
p8439
I3
sg4058
I2
sg2963
I3
ss(g1542
tp8440
(dp8441
Vfriends
p8442
I2
sVsexual
p8443
I3
ss(Vokay
p8444
tp8445
(dp8446
Vi
p8447
I2
ss(g6743
tp8448
(dp8449
Vand
p8450
I2
ss(g6288
tp8451
(dp8452
Vand
p8453
I2
sg959
I2
sVany
p8454
I2
sVbut
p8455
I2
ss(Vderim
p8456
tp8457
(dp8458
Velektronik
p8459
I2
ss(Vnights
p8460
tp8461
(dp8462
g2167
I2
ss(g3316
tp8463
(dp8464
g8283
I2
ss(g3935
tp8465
(dp8466
Vtoo
p8467
I2
ss(g4502
tp8468
(dp8469
Vfor
p8470
I2
ss(g4740
tp8471
(dp8472
Vcomments
p8473
I4
ss(g4096
tp8474
(dp8475
g5916
I2
sVwas
p8476
I2
sVup
p8477
I2
ss(g5027
tp8478
(dp8479
Vgo
p8480
I2
ss(Veventually
p8481
tp8482
(dp8483
Vdie
p8484
I2
ss(g6502
tp8485
(dp8486
Vmy
p8487
I2
ss(g6400
tp8488
(dp8489
Vgreat
p8490
I2
ss(g3233
tp8491
(dp8492
g4918
I2
ss(Vhospital
p8493
tp8494
(dp8495
g5881
I2
ss(g3288
tp8496
(dp8497
g7078
I2
ss(g3646
tp8498
(dp8499
g3510
I2
sg2842
I2
sVtotally
p8500
I2
sVit
p8501
I2
sVi
p8502
I2
sVwhere
p8503
I2
ss(g5698
tp8504
(dp8505
Vno
p8506
I2
ss(g7972
tp8507
(dp8508
Vthey
p8509
I2
ss(g6735
tp8510
(dp8511
Vand
p8512
I3
sVoff
p8513
I2
sVfriends
p8514
I2
sVwho
p8515
I2
sVfucks
p8516
I2
sVbut
p8517
I2
sVtries
p8518
I2
sVwas
p8519
I2
ss(g6032
tp8520
(dp8521
Vin
p8522
I2
ss(g2044
tp8523
(dp8524
g1958
I2
sg5411
I2
ss(g1899
tp8525
(dp8526
Vlittle
p8527
I2
sg6880
I2
sVoften
p8528
I2
sg6046
I2
sVearly
p8529
I2
sVpretty
p8530
I2
sg4783
I2
ss(g6679
tp8531
(dp8532
Vgrpahics
p8533
I2
ss(g2080
tp8534
(dp8535
Vand
p8536
I3
ss(g7755
tp8537
(dp8538
Vthe
p8539
I2
ss(Vpictures
p8540
tp8541
(dp8542
Vand
p8543
I2
ss(g6140
tp8544
(dp8545
g312
I2
ss(g4760
tp8546
(dp8547
Vwant
p8548
I2
ss(Vfrantic
p8549
tp8550
(dp8551
Vbeeping
p8552
I2
ss(g7749
tp8553
(dp8554
Vin
p8555
I2
ss(g4551
tp8556
(dp8557
g1505
I2
sVthere
p8558
I2
ss(Vtype
p8559
tp8560
(dp8561
Vthis
p8562
I2
sVof
p8563
I3
sg4398
I2
ss(g6062
tp8564
(dp8565
g1313
I2
ss(g7162
tp8566
(dp8567
g8241
I2
sg4667
I2
sVsmart
p8568
I2
sVcool
p8569
I2
ss(g5840
tp8570
(dp8571
g6870
I2
ss(g7897
tp8572
(dp8573
Va
p8574
I2
ss(g901
tp8575
(dp8576
Vi
p8577
I2
sVweather
p8578
I2
sg5593
I2
sVthan
p8579
I4
sVafterwards
p8580
I2
ss(g815
tp8581
(dp8582
Vwhen
p8583
I2
sVwho
p8584
I2
sg3702
I2
sVhoped
p8585
I2
sVthan
p8586
I2
sVmust
p8587
I2
ss(g4032
tp8588
(dp8589
Vtimes
p8590
I2
ss(g7905
tp8591
(dp8592
g6365
I2
sVwork
p8593
I2
sg1254
I2
ss(Vreposting
p8594
tp8595
(dp8596
Vintensifies
p8597
I2
ss(g8270
tp8598
(dp8599
Vof
p8600
I2
ss(g8578
tp8601
(dp8602
Vat
p8603
I2
sVwould
p8604
I2
sVits
p8605
I2
ss(g5146
tp8606
(dp8607
Vbe
p8608
I4
sVlike
p8609
I2
sVget
p8610
I2
sVdrink
p8611
I2
sVsay
p8612
I2
sVhope
p8613
I2
sg2199
I2
sg5628
I2
ss(g6482
tp8614
(dp8615
g2372
I2
ss(g4104
tp8616
(dp8617
g8460
I2
ss(Vaccording
p8618
tp8619
(dp8620
Vto
p8621
I2
ss(g6474
tp8622
(dp8623
Vtheir
p8624
I2
sVthere
p8625
I2
ss(Vthe
p8626
tp8627
(dp8628
Vall
p8629
I2
sVbomb
p8630
I2
sg6981
I2
sg6570
I2
sVmoney
p8631
I4
sg4937
I2
sg5200
I2
sg2945
I2
sg7218
I2
sVshape
p8632
I2
sg367
I2
sg5613
I2
sg2118
I2
sVcaptain
p8633
I2
sg5182
I2
sVground
p8634
I2
sg6196
I2
sg7788
I2
sg519
I2
sg1448
I2
sVattraction
p8635
I2
sg5900
I4
sVbike
p8636
I2
sg8279
I3
sg2877
I2
sg6666
I2
sg7042
I2
sg4984
I2
sVreturn
p8637
I2
sg7782
I2
sVget
p8638
I2
sVlast
p8639
I3
sg3959
I2
sg1583
I2
sVfridge
p8640
I2
sg6994
I2
sVwords
p8641
I2
sg8119
I2
sVone
p8642
I2
sg2833
I3
sVday
p8643
I2
sVroom
p8644
I2
sg2514
I2
sg4325
I2
sg5894
I4
sVlike
p8645
I2
sg2973
I2
sVlist
p8646
I2
sVbad
p8647
I3
sg3554
I2
sVguy
p8648
I4
sg6079
I2
sVclothes
p8649
I4
sVright
p8650
I2
sVfemale
p8651
I2
sVpeople
p8652
I2
sVhouse
p8653
I4
sg4063
I2
sVidea
p8654
I2
sg5277
I3
sVxmen
p8655
I2
sVusefulness
p8656
I2
sVsurgery
p8657
I2
sVmurders
p8658
I3
sVabsurdity
p8659
I2
sVmovie
p8660
I2
sg5504
I2
sVreader
p8661
I2
sVnew
p8662
I3
sg978
I2
sg3911
I2
sg1562
I2
sVreg
p8663
I2
sg7074
I2
sVfull
p8664
I2
sVpower
p8665
I3
sg1109
I2
sg5098
I2
sVmen
p8666
I2
sg1529
I2
sVlittle
p8667
I2
sVprotagonist
p8668
I2
sVpost
p8669
I2
sVlawsuit
p8670
I2
sg4167
I2
sVhormones
p8671
I2
sg3843
I2
sVaccident
p8672
I2
sg6907
I2
sg8367
I2
sVlistings
p8673
I2
sg6173
I5
sVsocial
p8674
I2
sg4879
I2
sg7257
I2
sVwhole
p8675
I2
sVtop
p8676
I2
sg810
I8
sVussa
p8677
I2
sVdivide
p8678
I2
sVfamily
p8679
I2
sVpoint
p8680
I2
sg8097
I3
sVyoung
p8681
I2
sVweather
p8682
I3
sg3970
I2
sg7982
I2
sVmafia
p8683
I2
sVgateway
p8684
I2
sg7488
I2
sg602
I2
sVgif
p8685
I2
sg8493
I2
sg1430
I2
sVgirls
p8686
I2
sg4437
I2
sg2288
I2
sg4888
I3
sVgardenerhttpsenwikipediaorgwikibeingthereplot
p8687
I2
sVstart
p8688
I2
sVdifference
p8689
I3
sV2
p8690
I2
sg6056
I2
sg8559
I2
sg5764
I2
sg6022
I2
sVusername
p8691
I2
sVeyes
p8692
I2
sg4638
I2
sg2394
I2
sg4337
I2
sVconverse
p8693
I2
sg191
I2
sg7654
I2
sg4948
I2
sVridiculous
p8694
I2
sVwake
p8695
I2
sVgoals
p8696
I2
sVchild
p8697
I2
sVblindness
p8698
I2
sg2481
I2
sg564
I3
sVwomen
p8699
I2
sg1538
I2
sg541
I2
sVtarget
p8700
I4
sVcar
p8701
I3
sg8316
I2
sVus
p8702
I2
sVmatter
p8703
I2
sg5317
I2
sVcountry
p8704
I3
sg5283
I2
sVoutcome
p8705
I2
sg652
I2
sg660
I2
sg4383
I2
sg3412
I2
sVargument
p8706
I2
sg7180
I2
sg7281
I2
sVstroke
p8707
I2
sg8549
I2
sVsense
p8708
I2
sg7446
I2
sVgirl
p8709
I2
sVshit
p8710
I2
sg630
I2
sg4145
I2
sg8257
I2
sVend
p8711
I2
sg4587
I3
sg5313
I2
sg2332
I2
sg6697
I4
sg6891
I2
sg5744
I11
sg2244
I2
sg6042
I2
sVother
p8712
I3
sVnegotiations
p8713
I2
sg1470
I2
sVgrand
p8714
I2
sVtrash
p8715
I2
sg3837
I2
sg2266
I2
sg1497
I2
sVeggs
p8716
I2
sg2556
I2
sVproblems
p8717
I2
sg1462
I2
sg3520
I2
sg2270
I2
sVbirthday
p8718
I2
sg8113
I2
sg6050
I3
sg2137
I2
sVsurgeons
p8719
I2
sVaverage
p8720
I2
sg2163
I2
sVthought
p8721
I2
sg5779
I2
sg6200
I2
sg6253
I5
sVserious
p8722
I4
sVthe
p8723
I2
sg5014
I2
sg6674
I4
sVfact
p8724
I3
sVvirtue
p8725
I2
ss(g1108
tp8726
(dp8727
Vto
p8728
I2
ss(g5053
tp8729
(dp8730
g2755
I2
sVwould
p8731
I2
sVdo
p8732
I3
sVi
p8733
I4
sVis
p8734
I4
sg7808
I2
sVam
p8735
I2
sVyou
p8736
I3
sVto
p8737
I3
sg3930
I2
sVare
p8738
I2
sg400
I2
sVthe
p8739
I2
sVmy
p8740
I2
sVits
p8741
I2
sVshes
p8742
I2
ss(g5760
tp8743
(dp8744
g866
I5
ss(g2350
tp8745
(dp8746
Vright
p8747
I2
ss(Vyesterday
p8748
tp8749
(dp8750
Vand
p8751
I2
ss(g3334
tp8752
(dp8753
Vperfectly
p8754
I2
ss(g3234
tp8755
(dp8756
Vago
p8757
I2
sg239
I2
sVor
p8758
I2
ss(Vthem
p8759
tp8760
(dp8761
Von
p8762
I2
sVall
p8763
I2
sVthat
p8764
I2
sVrather
p8765
I2
sVis
p8766
I2
sVsince
p8767
I2
sVup
p8768
I2
sVbut
p8769
I2
sVto
p8770
I5
sVbad
p8771
I2
sg266
I2
sVthe
p8772
I2
sVwanted
p8773
I2
sVwas
p8774
I2
sVany
p8775
I3
ss(g2172
tp8776
(dp8777
g3456
I2
ss(Vadults
p8778
tp8779
(dp8780
g7739
I2
ss(g5907
tp8781
(dp8782
Vcan
p8783
I2
sVfor
p8784
I2
ss(g8083
tp8785
(dp8786
Vof
p8787
I3
ss(g8646
tp8788
(dp8789
Vof
p8790
I2
ss(g4641
tp8791
(dp8792
Vlots
p8793
I2
sVand
p8794
I2
sVis
p8795
I2
sVwas
p8796
I2
ss(g5717
tp8797
(dp8798
Vthe
p8799
I2
sVsomeone
p8800
I2
sVyour
p8801
I2
ss(g1395
tp8802
(dp8803
Vto
p8804
I7
sVthe
p8805
I3
sVyou
p8806
I3
sg8759
I2
sg3416
I2
ss(g911
tp8807
(dp8808
g5288
I2
ss(g5983
tp8809
(dp8810
Vthat
p8811
I2
ss(g6466
tp8812
(dp8813
Vanother
p8814
I2
ss(g8552
tp8815
(dp8816
Vof
p8817
I2
ss(g3740
tp8818
(dp8819
Vin
p8820
I2
ss(g4998
tp8821
(dp8822
g4631
I2
sVout
p8823
I3
ss(g5456
tp8824
(dp8825
Vfriends
p8826
I2
ss(g4773
tp8827
(dp8828
Vhas
p8829
I2
ss(Vunnecessary
p8830
tp8831
(dp8832
Vto
p8833
I2
ss(g3942
tp8834
(dp8835
Vand
p8836
I2
ss(g2806
tp8837
(dp8838
Vbut
p8839
I2
ss(g948
tp8840
(dp8841
Vme
p8842
I3
sVto
p8843
I2
sVthe
p8844
I2
sVor
p8845
I2
ss(g3341
tp8846
(dp8847
Vof
p8848
I2
ss(g3110
tp8849
(dp8850
Vreticileri
p8851
I2
ss(g7999
tp8852
(dp8853
Vand
p8854
I3
sVlittle
p8855
I2
sg6037
I2
sVfamily
p8856
I2
sVthat
p8857
I3
sVremains
p8858
I2
sg8540
I2
sVdown
p8859
I3
sVgender
p8860
I2
sg2124
I3
ss(g6041
tp8861
(dp8862
Vwith
p8863
I2
ss(g140
tp8864
(dp8865
Vthese
p8866
I2
sg1587
I2
sVmy
p8867
I2
sVkilled
p8868
I2
ss(g349
tp8869
(dp8870
Veating
p8871
I2
sVpeople
p8872
I2
sVthese
p8873
I2
sVsome
p8874
I2
sVat
p8875
I2
sVin
p8876
I2
sVthe
p8877
I2
sVuntil
p8878
I2
ss(g5600
tp8879
(dp8880
Van
p8881
I2
ss(g5060
tp8882
(dp8883
Vmy
p8884
I2
sg5291
I2
sVwith
p8885
I2
ss(g8001
tp8886
(dp8887
g6680
I2
ss(g8691
tp8888
(dp8889
Vudemonburritocat
p8890
I2
ss(g6696
tp8891
(dp8892
Vhe
p8893
I2
sVin
p8894
I2
ss(Vearly
p8895
tp8896
(dp8897
g2767
I2
sVage
p8898
I2
sg2452
I2
ss(g417
tp8899
(dp8900
Vit
p8901
I2
ss(g4818
tp8902
(dp8903
g2318
I2
ss(g817
tp8904
(dp8905
Vand
p8906
I2
sVwas
p8907
I2
sVwhen
p8908
I2
ss(g2672
tp8909
(dp8910
Vexplaining
p8911
I2
sg5121
I2
sVof
p8912
I2
ss(g3440
tp8913
(dp8914
Vbut
p8915
I2
ss(g8658
tp8916
(dp8917
Vshe
p8918
I2
sVthough
p8919
I2
ss(g3321
tp8920
(dp8921
g2444
I2
sVfight
p8922
I3
ss(g1496
tp8923
(dp8924
Vto
p8925
I2
ss(g3738
tp8926
(dp8927
Vand
p8928
I2
ss(g5687
tp8929
(dp8930
Va
p8931
I2
sVevery
p8932
I2
ss(Vrealising
p8933
tp8934
(dp8935
Vthat
p8936
I2
ss(g411
tp8937
(dp8938
Voff
p8939
I2
sg3796
I2
ss(g2671
tp8940
(dp8941
Von
p8942
I2
ss(Vsifting
p8943
tp8944
(dp8945
Vthrough
p8946
I2
ss(g3041
tp8947
(dp8948
g6932
I2
ss(g6948
tp8949
(dp8950
Vthe
p8951
I2
ss(g7753
tp8952
(dp8953
Vin
p8954
I2
ss(Vmiddle
p8955
tp8956
(dp8957
g3505
I2
sVschool
p8958
I2
ss(g3445
tp8959
(dp8960
g1033
I2
ss(Vpopular
p8961
tp8962
(dp8963
Vright
p8964
I2
ss(g2321
tp8965
(dp8966
g2935
I2
ss(g7426
tp8967
(dp8968
g3850
I2
ss(g6956
tp8969
(dp8970
g7247
I3
sVparties
p8971
I2
ss(g7582
tp8972
(dp8973
Vi
p8974
I2
ss(g8056
tp8975
(dp8976
Vis
p8977
I2
sVfor
p8978
I2
sg5666
I2
ss(g7364
tp8979
(dp8980
Vif
p8981
I2
ss(g1408
tp8982
(dp8983
Vbeing
p8984
I2
sVall
p8985
I2
sg1509
I2
sVwaking
p8986
I2
ss(g1818
tp8987
(dp8988
Vmy
p8989
I2
ss(g7835
tp8990
(dp8991
g7892
I2
ss(g7940
tp8992
(dp8993
Vor
p8994
I2
ss(g2543
tp8995
(dp8996
g6828
I2
sVtimes
p8997
I2
ss(g3093
tp8998
(dp8999
Va
p9000
I2
sVand
p9001
I2
sVoffline
p9002
I2
sVthat
p9003
I2
ss(g8527
tp9004
(dp9005
g4893
I2
sg2858
I2
sg7791
I2
sg7045
I2
sVmy
p9006
I2
sg571
I2
ss(g1812
tp9007
(dp9008
Vup
p9009
I2
ss(g7272
tp9010
(dp9011
Vthe
p9012
I2
sVlaw
p9013
I2
sg5349
I2
sVuntil
p9014
I2
ss(g1805
tp9015
(dp9016
Vtip
p9017
I2
ss(g4426
tp9018
(dp9019
Valmost
p9020
I2
sVbeing
p9021
I2
ss(g5999
tp9022
(dp9023
Vi
p9024
I2
ss(g4968
tp9025
(dp9026
Vsince
p9027
I2
ss(g2576
tp9028
(dp9029
g6394
I2
sVway
p9030
I2
sVpeople
p9031
I2
ss(g4747
tp9032
(dp9033
Vshe
p9034
I2
sVin
p9035
I2
ss(g3361
tp9036
(dp9037
g3104
I2
ss(g6811
tp9038
(dp9039
g7709
I2
ss(g1872
tp9040
(dp9041
Vof
p9042
I2
ss(g1819
tp9043
(dp9044
Vme
p9045
I2
ss(g6501
tp9046
(dp9047
Vdrugs
p9048
I2
sVa
p9049
I2
sVan
p9050
I2
ss(g6321
tp9051
(dp9052
Vout
p9053
I2
ss(g494
tp9054
(dp9055
Veverything
p9056
I2
sVpeople
p9057
I2
sg4593
I2
sg2744
I2
ss(g8673
tp9058
(dp9059
Vhttpswwwgrouponcombrowseseattlelat47621lng122347addressseattlequerylaserhairremovallocaleenus
p9060
I2
ss(Vthankful
p9061
tp9062
(dp9063
Vfor
p9064
I2
ss(g6014
tp9065
(dp9066
Vsad
p9067
I2
ss(g6356
tp9068
(dp9069
Vwill
p9070
I4
sg5132
I4
ss(g3446
tp9071
(dp9072
Vas
p9073
I2
ss(g3089
tp9074
(dp9075
Vto
p9076
I3
sVmaybe
p9077
I2
ss(g6789
tp9078
(dp9079
Vyou
p9080
I2
sVbut
p9081
I2
sVjust
p9082
I2
ss(g1482
tp9083
(dp9084
Vnot
p9085
I2
sVshow
p9086
I2
ss(g8700
tp9087
(dp9088
g428
I4
ss(g7507
tp9089
(dp9090
g7136
I2
ss(g3711
tp9091
(dp9092
Vof
p9093
I2
sVor
p9094
I3
sVyears
p9095
I2
ss(g6262
tp9096
(dp9097
g3036
I2
ss(g897
tp9098
(dp9099
Vlike
p9100
I2
ss(Vconversely
p9101
tp9102
(dp9103
Vnobody
p9104
I2
ss(g5534
tp9105
(dp9106
g5932
I2
ss(g4336
tp9107
(dp9108
g8456
I2
ss(g7756
tp9109
(dp9110
Vabout
p9111
I2
ss(g4756
tp9112
(dp9113
g36
I2
ss(g3018
tp9114
(dp9115
Vwith
p9116
I2
ss(g8696
tp9117
(dp9118
Vof
p9119
I2
sVwe
p9120
I2
sg8830
I2
ss(Vcoming
p9121
tp9122
(dp9123
Vinto
p9124
I2
sVup
p9125
I2
ss(g1369
tp9126
(dp9127
Vabout
p9128
I2
sVyour
p9129
I2
sVthis
p9130
I2
sVitd
p9131
I2
sg7309
I2
sVit
p9132
I3
sVone
p9133
I2
sVmovies
p9134
I2
sVim
p9135
I2
sVhell
p9136
I2
sg8626
I2
sVits
p9137
I3
ss(g3333
tp9138
(dp9139
Vof
p9140
I2
ss(g5893
tp9141
(dp9142
g7337
I2
sVservice
p9143
I2
sg28
I2
sg2096
I2
sg1719
I2
sg5775
I2
ss(g4736
tp9144
(dp9145
V3
p9146
I2
sVthat
p9147
I2
ss(g6488
tp9148
(dp9149
Vtogether
p9150
I3
ss(Vcharlie
p9151
tp9152
(dp9153
Vand
p9154
I2
ss(Vwow
p9155
tp9156
(dp9157
Vi
p9158
I2
sg8444
I2
ss(g2850
tp9159
(dp9160
Vthought
p9161
I2
sVto
p9162
I2
ss(g5943
tp9163
(dp9164
Vso
p9165
I2
ss(g6732
tp9166
(dp9167
Vthe
p9168
I2
sVsomeone
p9169
I2
sVnow
p9170
I2
sVim
p9171
I2
sg8933
I2
ss(g7577
tp9172
(dp9173
Vand
p9174
I2
ss(g5455
tp9175
(dp9176
Vand
p9177
I2
sVham
p9178
I2
ss(g8706
tp9179
(dp9180
g6910
I2
ss(g6478
tp9181
(dp9182
Vthe
p9183
I2
ss(g1691
tp9184
(dp9185
Vi
p9186
I2
ss(g6297
tp9187
(dp9188
Vago
p9189
I2
sVive
p9190
I2
sVand
p9191
I2
sg1700
I2
sVaround
p9192
I2
sVwas
p9193
I2
sVi
p9194
I2
sg5674
I2
sVis
p9195
I2
sVlater
p9196
I3
sVback
p9197
I2
sg3690
I2
sVnow
p9198
I2
sVwith
p9199
I2
ss(g6275
tp9200
(dp9201
Vas
p9202
I2
ss(g8689
tp9203
(dp9204
Vto
p9205
I2
ss(g8671
tp9206
(dp9207
Vthat
p9208
I2
ss(Vpeanut
p9209
tp9210
(dp9211
g4579
I2
ss(g7327
tp9212
(dp9213
Vor
p9214
I2
ss(g2668
tp9215
(dp9216
Vof
p9217
I2
sVwhite
p9218
I2
sVkids
p9219
I2
sVso
p9220
I2
ss(g7621
tp9221
(dp9222
Veveryone
p9223
I2
ss(Vhave
p9224
tp9225
(dp9226
Vevidence
p9227
I2
sVspent
p9228
I2
sVsome
p9229
I2
sVit
p9230
I2
sVan
p9231
I2
sg732
I2
sg5971
I2
sVseen
p9232
I2
sVany
p9233
I5
sVdeeper
p9234
I2
sVone
p9235
I2
sVdifferent
p9236
I2
sVfor
p9237
I2
sVno
p9238
I2
sg4545
I2
sVthishttpiimgurcom5hbli7rjpg
p9239
I2
sVtwo
p9240
I2
sVbeen
p9241
I4
sVyour
p9242
I2
sVfew
p9243
I4
sVpassed
p9244
I2
sVyou
p9245
I2
sVmore
p9246
I2
sVto
p9247
I7
sVthat
p9248
I2
sg4431
I2
sg6791
I2
sVnot
p9249
I2
sVwanted
p9250
I2
sVa
p9251
I11
sVlike
p9252
I2
sg5341
I2
sVthe
p9253
I3
sg3537
I2
ss(Vabc
p9254
tp9255
(dp9256
g4112
I2
ss(g5627
tp9257
(dp9258
Vbir
p9259
I2
ss(g3010
tp9260
(dp9261
g1771
I2
ss(g3441
tp9262
(dp9263
Vit
p9264
I2
ss(g7386
tp9265
(dp9266
Vstart
p9267
I2
ss(g3271
tp9268
(dp9269
Valso
p9270
I2
ss(g2354
tp9271
(dp9272
Vi
p9273
I2
sVthere
p9274
I2
sVfor
p9275
I3
ss(g865
tp9276
(dp9277
Vthe
p9278
I2
ss(g3094
tp9279
(dp9280
Vup
p9281
I2
ss(g6090
tp9282
(dp9283
Vgo
p9284
I2
sg1275
I4
ss(g8851
tp9285
(dp9286
g6687
I2
ss(g6972
tp9287
(dp9288
g8778
I2
ss(g8685
tp9289
(dp9290
Vi
p9291
I2
ss(g2357
tp9292
(dp9293
g3019
I2
ss(Vland
p9294
tp9295
(dp9296
Vbongo
p9297
I2
ss(g544
tp9298
(dp9299
Vmeans
p9300
I2
ss(g8716
tp9301
(dp9302
g8481
I2
sVshes
p9303
I2
ss(Vd
p9304
tp9305
(dp9306
Vi
p9307
I2
ss(g6960
tp9308
(dp9309
g3791
I2
ss(g5220
tp9310
(dp9311
Vwinter
p9312
I2
ss(g4659
tp9313
(dp9314
Vto
p9315
I4
sVbe
p9316
I2
ss(g7913
tp9317
(dp9318
Vas
p9319
I2
ss(g3346
tp9320
(dp9321
g6590
I2
sVthat
p9322
I2
ss(g6108
tp9323
(dp9324
Vi
p9325
I2
ss(g3304
tp9326
(dp9327
Vof
p9328
I2
ss(g6004
tp9329
(dp9330
g7239
I2
ss(Vyou
p9331
tp9332
(dp9333
Vdont
p9334
I5
sVjust
p9335
I2
sg4116
I2
sVis
p9336
I2
sg753
I2
sg391
I2
sVsee
p9337
I2
sVare
p9338
I7
sg9224
I15
sg4703
I2
sVif
p9339
I2
sVfrom
p9340
I2
sg2535
I2
sVwould
p9341
I3
sVno
p9342
I3
sVmake
p9343
I3
sVthat
p9344
I2
sVshould
p9345
I3
sVto
p9346
I3
sVread
p9347
I2
sVtoo
p9348
I2
sVfor
p9349
I2
sg7885
I2
sVwant
p9350
I3
sVreddit
p9351
I2
sVget
p9352
I2
sg7105
I2
sg4908
I2
sg466
I2
sg7472
I2
sg4451
I2
sVwanted
p9353
I2
sVthrow
p9354
I2
sg5221
I2
sg2728
I2
sg6875
I2
sVcould
p9355
I3
sVthigh
p9356
I2
sVcant
p9357
I2
sVcan
p9358
I5
sVwere
p9359
I2
sVat
p9360
I2
sg4040
I2
sg2603
I2
sVthink
p9361
I2
sVmean
p9362
I6
ss(g6660
tp9363
(dp9364
Vof
p9365
I3
ss(g4355
tp9366
(dp9367
Va
p9368
I2
ss(g7785
tp9369
(dp9370
Va
p9371
I2
sVon
p9372
I2
sVand
p9373
I3
sVsome
p9374
I2
sVits
p9375
I2
sVim
p9376
I2
sg2715
I2
sVthe
p9377
I3
sVwith
p9378
I2
sg4080
I2
sVthose
p9379
I2
ss(g4
tp9380
(dp9381
Valso
p9382
I2
ss(g8405
tp9383
(dp9384
Vthe
p9385
I2
sVcodes
p9386
I2
ss(g3275
tp9387
(dp9388
Vbut
p9389
I2
ss(g7726
tp9390
(dp9391
Vthere
p9392
I2
ss(g3969
tp9393
(dp9394
g8895
I2
ss(g8633
tp9395
(dp9396
g2027
I2
ss(g1892
tp9397
(dp9398
g8961
I2
sg8126
I2
ss(g8858
tp9399
(dp9400
g8748
I2
ss(g3565
tp9401
(dp9402
Vin
p9403
I2
ss(g7275
tp9404
(dp9405
Vhas
p9406
I2
ss(g8719
tp9407
(dp9408
Vwere
p9409
I2
ss(g3068
tp9410
(dp9411
g7452
I2
sg2854
I2
sg6767
I2
sVthis
p9412
I3
sg505
I2
sVfathers
p9413
I2
sVthat
p9414
I2
sVwhat
p9415
I3
sVhere
p9416
I2
sVit
p9417
I3
sVmens
p9418
I2
sVtheir
p9419
I3
sg6771
I2
sg724
I2
sg2779
I2
sVthe
p9420
I9
sVdating
p9421
I2
sVmy
p9422
I3
sg5854
I2
ss(g3254
tp9423
(dp9424
Videa
p9425
I2
ss(g3241
tp9426
(dp9427
g7312
I2
sg346
I2
ss(Vremoved
p9428
tp9429
(dp9430
g2041
I4
sVbecause
p9431
I2
sg3214
I4
ss(g6000
tp9432
(dp9433
Vthem
p9434
I3
ss(g9017
tp9435
(dp9436
Vor
p9437
I2
ss(g2754
tp9438
(dp9439
Vit
p9440
I2
ss(g1788
tp9441
(dp9442
Vand
p9443
I2
sVfor
p9444
I2
ss(g917
tp9445
(dp9446
g8955
I2
ss(g4754
tp9447
(dp9448
g4537
I4
ss(g4093
tp9449
(dp9450
g3342
I2
ss(g7918
tp9451
(dp9452
Vbecause
p9453
I2
ss(g8677
tp9454
(dp9455
Vwhere
p9456
I2
ss(Vsits
p9457
tp9458
(dp9459
Vup
p9460
I2
ss(g6483
tp9461
(dp9462
Vtired
p9463
I2
sg4423
I2
sVone
p9464
I2
sg9061
I2
sVat
p9465
I2
sVin
p9466
I2
sVbuilt
p9467
I2
sg1258
I4
sg7004
I2
sg3672
I4
sVmuch
p9468
I2
sVtoo
p9469
I2
sVpretty
p9470
I2
sg1025
I2
sVnice
p9471
I2
sg4854
I2
sg8361
I2
sg2938
I2
sg1918
I2
sg5550
I2
sVscrewed
p9472
I2
sg5117
I2
sg9428
I7
sg7458
I2
sVa
p9473
I4
sVclear
p9474
I2
sVhaving
p9475
I2
sg2296
I2
sVthought
p9476
I2
sg7159
I2
sVcolour
p9477
I2
ss(g4515
tp9478
(dp9479
Vis
p9480
I2
ss(g4257
tp9481
(dp9482
Vhair
p9483
I2
ss(g6160
tp9484
(dp9485
Vthe
p9486
I3
ss(Vlululemon
p9487
tp9488
(dp9489
g9254
I2
ss(g882
tp9490
(dp9491
Vhave
p9492
I2
ss(g6066
tp9493
(dp9494
g6402
I2
ss(g2922
tp9495
(dp9496
g6941
I2
ss(g1477
tp9497
(dp9498
Vwould
p9499
I2
ss(g6139
tp9500
(dp9501
Vto
p9502
I2
sVdont
p9503
I2
ss(g8125
tp9504
(dp9505
g8103
I2
ss(g5545
tp9506
(dp9507
Vhow
p9508
I2
sVthe
p9509
I2
sVup
p9510
I2
ss(g7038
tp9511
(dp9512
Vhas
p9513
I2
ss(g6459
tp9514
(dp9515
Von
p9516
I2
ss(g903
tp9517
(dp9518
g2248
I2
sg7465
I2
sg8173
I2
sg5297
I2
sVbetter
p9519
I2
sVonly
p9520
I2
sVin
p9521
I2
sg2719
I2
sVmore
p9522
I5
ss(g818
tp9523
(dp9524
Vbut
p9525
I2
ss(g3766
tp9526
(dp9527
Vi
p9528
I2
sg2517
I2
sVwas
p9529
I2
ss(g3244
tp9530
(dp9531
Vofficer
p9532
I2
ss(g5875
tp9533
(dp9534
Vwe
p9535
I2
sVyou
p9536
I2
ss(g9463
tp9537
(dp9538
Vof
p9539
I2
sg1001
I2
ss(g1399
tp9540
(dp9541
Vmy
p9542
I2
ss(g7330
tp9543
(dp9544
Vand
p9545
I2
sVserious
p9546
I2
ss(g8102
tp9547
(dp9548
Vme
p9549
I3
ss(g57
tp9550
(dp9551
Vnot
p9552
I2
sg9294
I2
sVjust
p9553
I2
ss(g4043
tp9554
(dp9555
Vive
p9556
I2
sVjust
p9557
I2
ss(g8725
tp9558
(dp9559
Vthat
p9560
I2
ss(g1169
tp9561
(dp9562
Vinterest
p9563
I2
ss(g4574
tp9564
(dp9565
Vme
p9566
I2
sVjust
p9567
I2
sVthat
p9568
I2
sVawesome
p9569
I2
sVan
p9570
I4
sg949
I2
sg5511
I2
sVsomething
p9571
I2
sVnothing
p9572
I2
sg7680
I2
sVreally
p9573
I2
ss(g3772
tp9574
(dp9575
Vcrying
p9576
I2
ss(g5834
tp9577
(dp9578
Vthat
p9579
I2
ss(g9467
tp9580
(dp9581
Vin
p9582
I2
ss(g934
tp9583
(dp9584
Van
p9585
I2
ss(g6630
tp9586
(dp9587
Vout
p9588
I2
ss(g8237
tp9589
(dp9590
Vthen
p9591
I2
ss(g5688
tp9592
(dp9593
Vour
p9594
I2
sVthough
p9595
I2
ss(g7924
tp9596
(dp9597
Vcool
p9598
I2
ss(g67
tp9599
(dp9600
Vyou
p9601
I2
sg5164
I2
ss(g4089
tp9602
(dp9603
g5125
I2
ss.