(dp1
(S'another'
p2
S'woman'
p3
tp4
(dp5
S'for'
p6
I2
ss(S'space'
p7
S'ice'
p8
tp9
(dp10
S'occupied'
p11
I2
ss(S'confessed'
p12
S'to'
p13
tp14
(dp15
S'him'
p16
I2
ss(S'background'
p17
S'music'
p18
tp19
(dp20
S'and'
p21
I2
ss(S'whats'
p22
S'underneath'
p23
tp24
(dp25
S'the'
p26
I2
ss(S'traded'
p27
S'stories'
p28
tp29
(dp30
S'with'
p31
I2
ss(S'it'
p32
S'contained'
p33
tp34
(dp35
S'a'
I2
ss(S'as'
p36
S'being'
p37
tp38
(dp39
S'in'
p40
I2
ss(S'on'
p41
S'a'
tp42
(dp43
S'trip'
p44
I2
sS'legal'
p45
I2
sS'night'
p46
I2
ss(S'could'
p47
S'have'
p48
tp49
(dp50
S'endured'
p51
I2
ss(S'be'
S'loved'
p52
tp53
(dp54
S'in'
p55
I2
ss(S'me'
p56
S'was'
p57
tp58
(dp59
S'his'
p60
I2
ss(S'bare'
p61
S'hands'
p62
tp63
(dp64
S'how'
p65
I2
ss(S'he'
p66
S'fittingly'
p67
tp68
(dp69
S'said'
p70
I2
ss(S'want'
p71
S'you'
p72
tp73
(dp74
S'to'
p75
I2
ss(S'womanizing'
p76
S'and'
p77
tp78
(dp79
S'megalomania'
p80
I2
ss(S'he'
p81
S'entered'
p82
tp83
(dp84
S'them'
p85
I2
ss(S'and'
S'no'
p86
tp87
(dp88
S'desire'
p89
I2
ss(S'way'
p90
S'just'
p91
tp92
(dp93
S'as'
p94
I2
ss(S'him'
p95
S'alive'
p96
tp97
(dp98
S'as'
p99
I2
ss(S'i'
S'finally'
p100
tp101
(dp102
S'asked'
p103
I2
ss(S'remained'
p104
S'unchanged'
p105
tp106
(dp107
S'i'
I2
ss(S'and'
p108
S'she'
p109
tp110
(dp111
S'shouldnt'
p112
I2
ss(S'bouncing'
p113
S'off'
p114
tp115
(dp116
S'the'
p117
I2
ss(S'bottom'
p118
S'line'
p119
tp120
(dp121
S'i'
I2
sS'is'
p122
I2
ss(S'in'
p123
S'its'
p124
tp125
(dp126
S'pages'
p127
I2
ss(S'and'
p128
S'that'
p129
tp130
(dp131
S'i'
I2
sS'he'
p132
I3
ss(S'paying'
p133
S'attention'
p134
tp135
(dp136
S'to'
p137
I2
ss(S'be'
p138
S'ashamed'
p139
tp140
(dp141
S'for'
p142
I2
ss(S'smashed'
p143
S'a'
tp144
(dp145
S'fivepound'
p146
I2
ss(S'peoplerevulsion'
p147
S'fix'
p148
tp149
(dp150
S'bolger'
p151
I2
ss(S'of'
p152
S'impression'
p153
tp154
(dp155
S'on'
p156
I2
ss(S'given'
p157
S'moment'
p158
tp159
(dp160
S'to'
p161
I2
ss(S'hed'
p162
S'intimidated'
p163
tp164
(dp165
S'with'
p166
I2
ss(S'bar'
S'as'
p167
tp168
(dp169
S'if'
p170
I2
ss(S'a'
S'version'
p171
tp172
(dp173
S'of'
p174
I2
ss(S'where'
p175
S'his'
p176
tp177
(dp178
S'spirit'
p179
I2
ss(S'in'
p180
S'virtual'
p181
tp182
(dp183
S'seclusion'
p184
I2
ss(S'his'
p185
S'thunder'
p186
tp187
(dp188
S'for'
p189
I2
ss(S'parachute'
p190
S'had'
p191
tp192
(dp193
S'tangled'
p194
I2
ss(S'drinks'
p195
S'could'
p196
tp197
(dp198
S'he'
p199
I2
ss(S'women'
p200
S'was'
p201
tp202
(dp203
S'selfevident'
p204
I2
sS'an'
p205
I2
ss(S'version'
p206
S'would'
p207
tp208
(dp209
S'be'
p210
I2
ss(S'his'
p211
S'way'
p212
tp213
(dp214
S'on'
p215
I2
ss(S'i'
S'know'
p216
tp217
(dp218
S'she'
p219
I2
ss(S'nothing'
p220
S'had'
p221
tp222
(dp223
S'happened'
p224
I2
ss(S'out'
p225
S'wives'
p226
tp227
(dp228
S'of'
p229
I2
ss(S'be'
p230
S'bothered'
p231
tp232
(dp233
S'bolger'
p234
I2
ss(S'and'
p235
S'over'
p236
tp237
(dp238
S'that'
p239
I2
ss(S'the'
p240
S'crook'
p241
tp242
(dp243
S'of'
p244
I2
ss(S'on'
p245
S'that'
p246
tp247
(dp248
S'one'
p249
I2
ss(S'that'
p250
S'sound'
p251
tp252
(dp253
S'familiar'
p254
I2
ss(S'no'
p255
S'interest'
p256
tp257
(dp258
S'in'
p259
I2
ss(S'hospitality'
p260
S'though'
p261
tp262
(dp263
S'i'
I2
ss(S'list'
p264
S'of'
p265
tp266
(dp267
S'female'
p268
I2
ss(S'he'
p269
S'told'
p270
tp271
(dp272
S'me'
p273
I5
ss(S'he'
p274
S'saw'
p275
tp276
(dp277
S'me'
p278
I3
sS'as'
p279
I2
sS'my'
p280
I2
sS'it'
p281
I2
sS'people'
p282
I2
ss(S'visit'
p283
S'with'
p284
tp285
(dp286
S'some'
p287
I2
ss(S'had'
p288
S'the'
p289
tp290
(dp291
S'guts'
p292
I2
sS'vendor'
p293
I2
ss(S'curiosity'
p294
S'the'
p295
tp296
(dp297
S'food'
p298
I2
ss(S'with'
p299
S'one'
p300
tp301
(dp302
S'of'
p303
I2
ss(S'came'
p304
S'into'
p305
tp306
(dp307
S'the'
p308
I2
sS'his'
p309
I2
ss(S'we'
p310
S'had'
p311
tp312
(dp313
S'known'
p314
I2
ss(S'from'
p315
S'me'
p316
tp317
(dp318
S'man'
p319
I2
ss(S'didnt'
p320
S'need'
p321
tp322
(dp323
S'the'
p324
I2
ss(S'me'
p325
S'from'
p326
tp327
(dp328
S'growing'
p329
I2
ss(S'to'
p330
S'perform'
p331
tp332
(dp333
S'but'
p334
I2
ss(S'did'
p335
S'not'
p336
tp337
(dp338
S'like'
p339
I2
sS'sit'
p340
I2
sS'escalate'
p341
I2
sS'interfere'
p342
I2
sS'understand'
p343
I2
sS'want'
p344
I3
ss(S'example'
p345
S'of'
p346
tp347
(dp348
S'how'
p349
I2
sS'them'
p350
I2
ss(S'realized'
p351
S'bolger'
p352
tp353
(dp354
S'his'
p355
I2
ss(S'woman'
p356
S'i'
tp357
(dp358
S'wondered'
p359
I2
ss(S'workers'
p360
S'whod'
p361
tp362
(dp363
S'tried'
p364
I2
ss(S'but'
p365
S'bottom'
p366
tp367
(dp368
S'line'
p369
I2
ss(S'flesh'
p370
S'how'
p371
tp372
(dp373
S'when'
p374
I2
ss(S'woman'
p375
S'hed'
p376
tp377
(dp378
S'slept'
p379
I2
sS'ever'
p380
I2
ss(S'without'
p381
S'answering'
p382
tp383
(dp384
S'him'
p385
I2
ss(S'and'
p386
S'in'
p387
tp388
(dp389
S'my'
p390
I2
ss(S'the'
p391
S'attack'
p392
tp393
(dp394
S'i'
I2
ss(S'at'
p395
S'you'
p396
tp397
(dp398
S'without'
p399
I2
ss(g246
g249
tp400
(dp401
S'without'
p402
I2
ss(S'wouldnt'
p403
S'lie'
p404
tp405
(dp406
S'to'
p407
I2
ss(S'of'
p408
S'himself'
p409
tp410
(dp411
S'bolger'
p412
I2
ss(S'table'
p413
S'just'
p414
tp415
(dp416
S'inside'
p417
I2
ss(S'like'
p418
S'it'
p419
tp420
(dp421
S'one'
p422
I2
sS'or'
p423
I2
sS'that'
p424
I2
ss(S'moles'
p425
S'and'
p426
tp427
(dp428
S'birthmarks'
p429
I2
ss(S'her'
p430
S'aggression'
p431
tp432
(dp433
S'by'
p434
I2
ss(S'his'
S'mounting'
p435
tp436
(dp437
S'characterization'
p438
I2
ss(S'my'
p439
S'voice'
p440
tp441
(dp442
S'or'
p443
I2
ss(S'i'
S'saw'
p444
tp445
(dp446
S'myself'
p447
I2
sS'the'
p448
I2
sS'when'
p449
I2
sS'at'
p450
I2
ss(S'air'
p451
S'but'
p452
tp453
(dp454
S'too'
p455
I2
ss(S'i'
S'dont'
p456
tp457
(dp458
S'follow'
p459
I2
sS'think'
p460
I2
sS'know'
p461
I2
ss(S'your'
p462
S'worst'
p463
tp464
(dp465
S'fears'
p466
I2
ss(S'wont'
p467
S'be'
p468
tp469
(dp470
S'because'
p471
I2
ss(S'a'
S'hundred'
p472
tp473
(dp474
S'other'
p475
I2
ss(S'threat'
p476
S'an'
p477
tp478
(dp479
S'expression'
p480
I2
ss(S'in'
p481
S'fact'
p482
tp483
(dp484
S'we'
p485
I2
ss(S'details'
p486
S'or'
p487
tp488
(dp489
S'embellish'
p490
I2
ss(S'and'
p491
S'to'
p492
tp493
(dp494
S'feel'
p495
I2
sS'be'
p496
I2
ss(S'his'
p497
S'nickname'
p498
tp499
(dp500
S'for'
p501
I2
ss(S'my'
p502
S'status'
p503
tp504
(dp505
S'in'
p506
I2
ss(S'powerful'
p507
S'bolger'
p508
tp509
(dp510
S'informed'
p511
I2
ss(S'i'
S'accepted'
p512
tp513
(dp514
S'being'
p515
I2
ss(S'his'
p516
S'voice'
p517
tp518
(dp519
S'booming'
p520
I2
sg491
I4
sS'still'
p521
I2
sS'overwhelmed'
p522
I2
sS'immediately'
p523
I2
ss(S'been'
p524
S'with'
p525
tp526
(dp527
S'a'
I2
sS'i'
I2
sg2
I2
ss(S'bar'
p528
S'though'
p529
tp530
(dp531
S'i'
I2
ss(S'im'
p532
S'some'
p533
tp534
(dp535
S'kind'
p536
I2
ss(g124
g127
tp537
(dp538
S'maybe'
p539
I2
ss(S'people'
p540
S'again'
p541
tp542
(dp543
S'you'
p544
I2
ss(S'a'
S'corner'
p545
tp546
(dp547
S'to'
p548
I2
ss(S'things'
p549
g211
tp550
(dp551
g212
I2
ss(S'urge'
p552
S'to'
p553
tp554
(dp555
S'hear'
p556
I2
ss(S'hed'
p557
S'forced'
p558
tp559
(dp560
S'the'
p561
I2
ss(S'of'
p562
S'married'
p563
tp564
(dp565
S'women'
p566
I2
ss(S'and'
p567
S'he'
p568
tp569
(dp570
S'saw'
p571
I2
sS'knew'
p572
I2
sS'thought'
p573
I2
sS'didnt'
p574
I2
sS'trusted'
p575
I2
sS'must'
p576
I2
ss(S'stood'
p577
S'and'
p578
tp579
(dp580
S'walked'
p581
I2
ss(S'much'
p582
S'as'
p583
tp584
(dp585
S'they'
p586
I2
ss(S'as'
S'members'
p587
tp588
(dp589
S'of'
p590
I2
ss(S'through'
p591
S'his'
p592
tp593
(dp594
S'eyes'
p595
I2
sS'trousers'
p596
I2
ss(S'conquest'
p597
S'but'
p598
tp599
(dp600
S'i'
I2
ss(S'mark'
p601
S'and'
p602
tp603
(dp604
S'subdued'
p605
I2
ss(S'minutes'
S'he'
p606
tp607
(dp608
S'noticed'
p609
I2
ss(S'bad'
p610
S'for'
p611
tp612
(dp613
S'business'
p614
I2
ss(S'an'
p615
S'undermining'
p616
tp617
(dp618
S'desire'
p619
I2
ss(S'customershow'
p620
S'his'
p621
tp622
(dp623
S'shirt'
p624
I2
ss(S'his'
p625
S'designated'
p626
tp627
(dp628
g413
I4
ss(S'case'
p629
S'you'
p630
tp631
(dp632
S'dont'
p633
I2
ss(S'him'
p634
S'feel'
p635
tp636
(dp637
S'more'
p638
I2
ss(S'have'
p639
S'to'
p640
tp641
(dp642
S'do'
p643
I2
sS'worry'
p644
I2
ss(g460
S'you'
p645
tp646
(dp647
S'even'
p648
I2
sS'come'
p649
I2
ss(S'a'
S'young'
p650
tp651
(dp652
g356
I2
ss(S'the'
p653
S'conversation'
p654
tp655
(dp656
S'she'
p657
I2
ss(S'body'
p658
g113
tp659
(dp660
g114
I2
ss(S'write'
p661
S'you'
p662
tp663
(dp664
S'dont'
p665
I2
ss(S'he'
p666
S'confessed'
p667
tp668
(dp669
S'and'
p670
I2
ss(S'suggested'
p671
S'a'
tp672
(dp673
S'question'
p674
I2
ss(S'annoyed'
p675
S'him'
p676
tp677
(dp678
S'that'
p679
I2
ss(S'seat'
p680
S'of'
p681
tp682
(dp683
S'our'
p684
I2
ss(S'was'
p685
S'forming'
p686
tp687
(dp688
S'a'
I2
ss(S'for'
p689
S'his'
p690
tp691
(dp692
S'dominance'
p693
I2
ss(S'a'
S'confession'
p694
tp695
(dp696
S'to'
p697
I2
sS'about'
p698
I2
ss(S'to'
S'sag'
p699
tp700
(dp701
S'but'
p702
I2
ss(g417
S'the'
p703
tp704
(dp705
S'front'
p706
I2
sS'head'
p707
I2
ss(g45
S'pad'
p708
tp709
(dp710
S'or'
p711
I2
ss(S'on'
p712
S'me'
p713
tp714
(dp715
S'in'
p716
I2
ss(S'though'
p717
S'we'
p718
tp719
(dp720
S'were'
p721
I2
ss(S'hed'
p722
S'had'
p723
tp724
(dp725
S'fistfights'
p726
I2
ss(S'was'
p727
S'consistently'
p728
tp729
(dp730
S'rude'
p731
I2
ss(S'i'
S'listen'
p732
tp733
(dp734
S'to'
p735
I2
ss(g343
S'about'
p736
tp737
(dp738
S'his'
p739
I2
ss(S'hope'
p740
S'to'
p741
tp742
(dp743
S'control'
p744
I2
ss(S'swollen'
p745
S'nose'
p746
tp747
(dp748
S'after'
p749
I2
ss(S'listened'
p750
S'to'
p751
tp752
(dp753
g185
I2
sS'bolger'
p754
I2
ss(S'biography'
p755
S'a'
tp756
(dp757
S'book'
p758
I2
ss(S'wife'
S'not'
p759
tp760
(dp761
S'while'
p762
I2
ss(S'preferred'
p763
S'not'
p764
tp765
(dp766
S'to'
p767
I2
ss(S'time'
S'so'
p768
tp769
(dp770
S'you'
p771
I2
ss(S'bolger'
p772
S'said'
p773
tp774
(dp775
S'hed'
p776
I2
sS'what'
p777
I2
sS'his'
p778
I3
sS'verbally'
p779
I2
sS'that'
p780
I2
ss(S'with'
p781
S'two'
p782
tp783
(dp784
S'of'
p785
I2
sS'black'
p786
I2
ss(S'fill'
p787
S'me'
p788
tp789
(dp790
S'in'
p791
I2
ss(S'the'
p792
S'most'
p793
tp794
(dp795
S'important'
p796
I2
ss(g466
S'about'
p797
tp798
(dp799
S'people'
p800
I2
ss(S'the'
p801
S'actualized'
p802
tp803
(dp804
S'man'
p805
I2
ss(S'ask'
S'him'
p806
tp807
(dp808
S'to'
p809
I2
ss(S'swaggering'
p810
S'bolger'
p811
tp812
(dp813
S'told'
p814
I2
ss(S'bolger'
p815
S'on'
p816
tp817
(dp818
S'a'
I2
ss(S'and'
p819
S'not'
p820
tp821
(dp822
S'me'
p823
I2
ss(S'he'
p824
S'wrote'
p825
tp826
(dp827
S'their'
p828
I2
ss(S'memory'
p829
S'though'
p830
tp831
(dp832
S'in'
p833
I2
ss(S'doubt'
p834
S'if'
p835
tp836
(dp837
S'you'
p838
I2
ss(S'held'
p839
S'forth'
p840
tp841
(dp842
S'in'
p843
I2
ss(g331
g334
tp844
(dp845
S'that'
p846
I2
ss(S'entering'
p847
S'bolgers'
p848
tp849
(dp850
S'bar'
p851
I2
ss(S'entitled'
p852
S'to'
p853
tp854
(dp855
S'have'
p856
I2
ss(S'the'
p857
S'days'
p858
tp859
(dp860
S'drinks'
p861
I2
ss(S'tasty'
p862
S'and'
p863
tp864
(dp865
S'i'
I2
ss(S'for'
p866
S'the'
p867
tp868
(dp869
S'noise'
p870
I2
ss(S'and'
p871
S'had'
p872
tp873
(dp874
g289
I2
sS'never'
p875
I2
sS'used'
p876
I2
ss(S'order'
p877
S'both'
p878
tp879
(dp880
S'of'
p881
I2
ss(S'to'
p882
S'retaliate'
p883
tp884
(dp885
S'as'
p886
I2
ss(S'noticing'
p887
S'that'
p888
tp889
(dp890
S'i'
I2
ss(S'that'
p891
S'hed'
p892
tp893
(dp894
S'made'
p895
I2
sS'decide'
p896
I2
sS'bedded'
p897
I2
ss(S'mine'
p898
S'he'
p899
tp900
(dp901
S'fantasized'
p902
I2
ss(S'staff'
p903
S'he'
p904
tp905
(dp906
S'needed'
p907
I2
sS'told'
p908
I2
ss(S'question'
p909
S'i'
tp910
(dp911
S'denied'
p912
I2
ss(S'felt'
p913
S'no'
p914
tp915
(dp916
S'inclination'
p917
I2
ss(g324
S'drug'
p918
tp919
(dp920
g330
I2
ss(S'his'
p921
S'favorite'
p922
tp923
(dp924
S'stories'
p925
I2
ss(S'for'
p926
S'your'
p927
tp928
(dp929
g147
I2
ss(S'interrupted'
p930
S'himself'
p931
tp932
(dp933
S'to'
p934
I2
ss(S'think'
p935
S'of'
p936
tp937
(dp938
S'it'
p939
I2
ss(S'hed'
p940
S'beat'
p941
tp942
(dp943
S'the'
p944
I2
ss(S'known'
p945
S'one'
p946
tp947
(dp948
S'another'
p949
I2
ss(S'i'
S'ever'
p950
tp951
(dp952
S'had'
p953
I2
ss(S'best'
p954
S'reason'
p955
tp956
(dp957
S'i'
I2
ss(g886
S'soon'
p958
tp959
(dp960
S'as'
p961
I2
ss(S'acquaintances'
p962
S'at'
p963
tp964
(dp965
S'the'
p966
I2
ss(S'differently'
p967
S'but'
p968
tp969
(dp970
S'he'
p971
I2
ss(S'or'
p972
S'otherwise'
p973
tp974
(dp975
S'he'
p976
I2
ss(S'truth'
p977
S'of'
p978
tp979
(dp980
S'his'
p981
I2
ss(g927
g147
tp982
(dp983
g148
I2
ss(S'invariably'
p984
S'felt'
p985
tp986
(dp987
S'relieved'
p988
I2
ss(S'catalyst'
p989
S'for'
p990
tp991
(dp992
S'our'
p993
I2
ss(S'town'
p994
S'square'
p995
tp996
(dp997
S'that'
p998
I2
ss(S'think'
p999
S'the'
p1000
tp1001
(dp1002
S'reason'
p1003
I2
ss(g281
S'and'
p1004
tp1005
(dp1006
S'when'
p1007
I2
ss(S'caf'
p1008
S'was'
p1009
tp1010
(dp1011
S'widely'
p1012
I2
ss(S'to'
p1013
S'unpack'
p1014
tp1015
(dp1016
S'it'
p1017
I2
ss(S'avoid'
p1018
S'that'
p1019
tp1020
(dp1021
S'result'
p1022
I2
ss(S'pouring'
p1023
S'two'
p1024
tp1025
(dp1026
S'or'
p1027
I2
ss(S'his'
p1028
S'apparent'
p1029
tp1030
(dp1031
g260
I2
ss(S'more'
p1032
S'to'
p1033
tp1034
(dp1035
S'drink'
p1036
I2
ss(S'come'
p1037
S'up'
p1038
tp1039
(dp1040
S'with'
p1041
I2
ss(S'said'
p1042
S'as'
p1043
tp1044
(dp1045
S'we'
p1046
I2
ss(S'i'
S'left'
p1047
tp1048
(dp1049
S'his'
p1050
I2
sS'some'
p1051
I2
ss(g293
S'cut'
p1052
tp1053
(dp1054
S'it'
p1055
I2
ss(S'surrounding'
p1056
S'the'
p1057
tp1058
(dp1059
S'end'
p1060
I2
ss(S'make'
p1061
S'any'
p1062
tp1063
(dp1064
S'sort'
p1065
I2
ss(S'i'
S'abandoned'
p1066
tp1067
(dp1068
S'his'
p1069
I2
ss(S'id'
p1070
g750
tp1071
(dp1072
g751
I2
ss(S'the'
p1073
S'names'
p1074
tp1075
(dp1076
S'of'
p1077
I2
ss(g224
S'i'
tp1078
(dp1079
S'waited'
p1080
I2
ss(S'also'
p1081
S'didnt'
p1082
tp1083
(dp1084
S'want'
p1085
I2
ss(S'any'
p1086
S'of'
p1087
tp1088
(dp1089
S'the'
p1090
I2
sS'his'
p1091
I2
sg250
I2
ss(S'anyone'
p1092
S'or'
p1093
tp1094
(dp1095
S'anything'
p1096
I2
ss(S'opportunity'
p1097
S'to'
p1098
tp1099
(dp1100
S'flee'
p1101
I2
ss(S'in'
p1102
S'mexico'
p1103
tp1104
(dp1105
S'a'
I2
sS'as'
p1106
I2
sS'bolger'
p1107
I2
sS'he'
p1108
I2
ss(S'with'
p1109
S'stories'
p1110
tp1111
(dp1112
S'from'
p1113
I2
ss(S'or'
p1114
S'all'
p1115
tp1116
(dp1117
S'hell'
p1118
I2
ss(S'man'
p1119
S'shed'
p1120
tp1121
(dp1122
S'said'
p1123
I2
ss(S'could'
p1124
S'tell'
p1125
tp1126
(dp1127
S'hed'
p1128
I2
ss(g907
S'to'
p1129
tp1130
(dp1131
S'make'
p1132
I2
ss(S'all'
p1133
S'to'
p1134
tp1135
(dp1136
S'write'
p1137
I2
ss(g583
g586
tp1138
(dp1139
S'should'
p1140
I2
ss(S'environment'
p1141
S'he'
p1142
tp1143
(dp1144
S'wanted'
p1145
I2
ss(S'me'
p1146
S'if'
p1147
tp1148
(dp1149
S'i'
I2
ss(g443
S'his'
p1150
tp1151
(dp1152
S'and'
p1153
I2
ss(S'id'
S'respect'
p1154
tp1155
(dp1156
S'his'
p1157
I2
ss(S'went'
p1158
S'three'
p1159
tp1160
(dp1161
S'months'
p1162
I2
ss(S'skin'
p1163
S'on'
p1164
tp1165
(dp1166
S'his'
p1167
I2
ss(S'a'
S'loud'
p1168
tp1169
(dp1170
S'voice'
p1171
I2
ss(S'toss'
p1172
S'it'
p1173
tp1174
(dp1175
S'up'
p1176
I2
ss(S'i'
S'shook'
p1177
tp1178
(dp1179
S'my'
p1180
I2
ss(S'a'
S'worker'
p1181
tp1182
(dp1183
S'back'
p1184
I2
ss(S'would'
p1185
S'not'
p1186
tp1187
(dp1188
S'release'
p1189
I2
ss(S'this'
p1190
S'hed'
p1191
tp1192
(dp1193
S'scold'
p1194
I2
ss(S'didnt'
p1195
S'ask'
p1196
tp1197
(dp1198
S'i'
I2
sS'how'
p1199
I2
sg806
I2
ss(S'them'
p1200
S'by'
p1201
tp1202
(dp1203
S'heart'
p1204
I2
ss(S'asked'
p1205
S'as'
p1206
tp1207
(dp1208
S'i'
I2
ss(S'resented'
p1209
S'it'
p1210
tp1211
(dp1212
S'he'
p1213
I2
ss(S'the'
p1214
g17
tp1215
(dp1216
g18
I2
ss(S'provoked'
p1217
g391
tp1218
(dp1219
g392
I2
ss(g431
g434
tp1220
(dp1221
S'assaulting'
p1222
I2
ss(S'married'
p1223
S'bolger'
p1224
tp1225
(dp1226
S'that'
p1227
I2
ss(S'back'
p1228
S'with'
p1229
tp1230
(dp1231
S'my'
p1232
I2
ss(g1184
S'down'
p1233
tp1234
(dp1235
S'in'
p1236
I2
ss(S'taking'
p1237
S'the'
p1238
tp1239
(dp1240
g1097
I2
ss(S'if'
p1241
S'someone'
p1242
tp1243
(dp1244
S'brought'
p1245
I2
ss(S'to'
p1246
S'man'
p1247
tp1248
(dp1249
S'i'
I2
ss(S'accept'
p1250
S'this'
p1251
tp1252
(dp1253
S'part'
p1254
I2
ss(S'the'
p1255
S'tinkle'
p1256
tp1257
(dp1258
S'of'
p1259
I2
ss(S'ease'
p1260
S'speaking'
p1261
tp1262
(dp1263
S'or'
p1264
I2
ss(S'for'
p1265
S'example'
p1266
tp1267
(dp1268
S'and'
p1269
I2
ss(S'material'
p1270
S'almost'
p1271
tp1272
(dp1273
S'no'
p1274
I2
ss(g485
S'are'
p1275
tp1276
(dp1277
S'all'
p1278
I2
ss(S'his'
p1279
S'back'
p1280
tp1281
(dp1282
S'had'
p1283
I2
ss(S'your'
p1284
S'journal'
p1285
tp1286
(dp1287
S'waiting'
p1288
I2
ss(g640
g643
tp1289
(dp1290
S'with'
p1291
I3
sS'that'
p1292
I2
ss(S'staff'
p1293
S'to'
p1294
tp1295
(dp1296
S'know'
p1297
I2
ss(S'back'
p1298
S'to'
p1299
tp1300
(dp1301
S'the'
p1302
I4
ss(S'dog'
p1303
S'or'
p1304
tp1305
(dp1306
S'a'
I2
ss(S'even'
p1307
S'those'
p1308
tp1309
(dp1310
S'who'
p1311
I2
ss(S'over'
p1312
S'him'
p1313
tp1314
(dp1315
S'there'
p1316
I2
ss(S'force'
S'seeing'
p1317
tp1318
(dp1319
S'it'
p1320
I2
ss(S'or'
p1321
S'how'
p1322
tp1323
(dp1324
S'they'
p1325
I2
ss(S'sink'
p1326
S'in'
p1327
tp1328
(dp1329
S'ive'
p1330
I2
ss(S'hed'
p1331
S'bedded'
p1332
tp1333
(dp1334
S'over'
p1335
I2
sg1265
I2
ss(S'done'
p1336
g967
tp1337
(dp1338
g968
I2
ss(S'would'
p1339
S'cause'
p1340
tp1341
(dp1342
S'him'
p1343
I2
ss(S'something'
p1344
S'meaningful'
p1345
tp1346
(dp1347
S'to'
p1348
I2
ss(S'if'
p1349
S'anyone'
p1350
tp1351
(dp1352
S'did'
p1353
I2
ss(g404
g407
tp1354
(dp1355
S'me'
p1356
I2
ss(S'hed'
p1357
S'ever'
p1358
tp1359
(dp1360
S'imagined'
p1361
I2
sS'been'
p1362
I2
ss(S'untouched'
p1363
S'on'
p1364
tp1365
(dp1366
S'the'
p1367
I2
ss(S'it'
p1368
S'most'
p1369
tp1370
(dp1371
S'of'
p1372
I2
ss(S'something'
p1373
S'more'
p1374
tp1375
(dp1376
S'than'
p1377
I2
ss(g259
S'writing'
p1378
tp1379
(dp1380
S'the'
p1381
I2
ss(S'spoken'
p1382
S'with'
p1383
tp1384
(dp1385
S'showing'
p1386
I2
ss(S'principle'
p1387
S'would'
p1388
tp1389
(dp1390
S'apply'
p1391
I2
ss(S'howled'
p1392
g717
tp1393
(dp1394
g718
I2
ss(g946
g949
tp1395
(dp1396
S'and'
p1397
I2
ss(S'passing'
p1398
S'server'
p1399
tp1400
(dp1401
S'or'
p1402
I2
ss(S'wife'
S'because'
p1403
tp1404
(dp1405
S'he'
p1406
I2
ss(S'mind'
p1407
S'one'
p1408
tp1409
(dp1410
S'night'
p1411
I2
ss(S'up'
p1412
S'more'
p1413
tp1414
(dp1415
S'bolger'
p1416
I2
ss(g1080
S'a'
tp1417
(dp1418
S'few'
p1419
I2
ss(g1181
g1184
tp1420
(dp1421
g1233
I2
ss(S'leaving'
p1422
S'me'
p1423
tp1424
(dp1425
S'alone'
p1426
I2
ss(S'to'
p1427
S'understand'
p1428
tp1429
(dp1430
S'him'
p1431
I2
ss(S'feel'
p1432
S'lingering'
p1433
tp1434
(dp1435
S'loyalty'
p1436
I2
ss(S'time'
p1437
S'but'
p1438
tp1439
(dp1440
S'you'
p1441
I2
sS'youre'
p1442
I2
ss(S'he'
p1443
g930
tp1444
(dp1445
g931
I2
ss(g1320
S'as'
p1446
tp1447
(dp1448
S'their'
p1449
I2
sS'his'
p1450
I2
sS'symptomatic'
p1451
I2
ss(S'the'
p1452
S'door'
p1453
tp1454
(dp1455
S'locked'
p1456
I2
ss(S'sizzling'
p1457
g370
tp1458
(dp1459
g371
I2
ss(S'he'
p1460
S'might'
p1461
tp1462
(dp1463
S'behave'
p1464
I2
ss(S'steal'
p1465
S'from'
p1466
tp1467
(dp1468
S'him'
p1469
I2
ss(g1345
g1348
tp1470
(dp1471
S'show'
p1472
I2
ss(S'importance'
p1473
g104
tp1474
(dp1475
g105
I2
ss(g912
S'having'
p1476
tp1477
(dp1478
S'a'
I2
ss(S'some'
p1479
S'wild'
p1480
tp1481
(dp1482
g1303
I2
ss(S'their'
p1483
S'services'
p1484
tp1485
(dp1486
S'he'
p1487
I2
ss(S'sat'
p1488
S'in'
p1489
tp1490
(dp1491
g1228
I2
ss(S'concern'
p1492
S'about'
p1493
tp1494
(dp1495
S'me'
p1496
I2
ss(S'more'
p1497
S'frequently'
p1498
tp1499
(dp1500
S'near'
p1501
I2
ss(S'another'
p1502
S'drink'
p1503
tp1504
(dp1505
g1241
I2
ss(S'even'
p1506
g1023
tp1507
(dp1508
g1024
I2
ss(g434
g1222
tp1509
(dp1510
S'him'
p1511
I2
ss(S'them'
p1512
S'and'
p1513
tp1514
(dp1515
S'you'
p1516
I2
sS'id'
p1517
I2
ss(g1186
g1189
tp1518
(dp1519
S'me'
p1520
I2
ss(g1378
g1381
tp1521
(dp1522
S'book'
p1523
I2
ss(S'appreciated'
p1524
g1028
tp1525
(dp1526
g1029
I2
ss(S'keep'
p1527
S'from'
p1528
tp1529
(dp1530
S'crashing'
p1531
I2
ss(S'won'
p1532
S'both'
p1533
tp1534
(dp1535
S'fights'
p1536
I2
ss(S'like'
S'about'
p1537
tp1538
(dp1539
S'bolger'
p1540
I2
ss(S'for'
p1541
S'hed'
p1542
tp1543
(dp1544
g1532
I2
ss(S'half'
p1545
S'eat'
p1546
tp1547
(dp1548
S'it'
p1549
I2
ss(S'stand'
p1550
S'the'
p1551
tp1552
(dp1553
S'sound'
p1554
I2
ss(S'yourself'
p1555
S'over'
p1556
tp1557
(dp1558
g235
I2
ss(S'all'
p1559
g1312
tp1560
(dp1561
g1313
I2
ss(S'people'
p1562
S'from'
p1563
tp1564
(dp1565
S'time'
p1566
I2
ss(S'when'
p1567
S'id'
p1568
tp1569
(dp1570
S'had'
p1571
I2
ss(S'put'
p1572
S'it'
p1573
tp1574
(dp1575
S'in'
p1576
I2
ss(S'here'
p1577
S'either'
p1578
tp1579
(dp1580
S'you'
p1581
I2
ss(S'improve'
p1582
S'himself'
p1583
tp1584
(dp1585
S'she'
p1586
I2
ss(S'been'
p1587
S'in'
p1588
tp1589
(dp1590
S'the'
p1591
I2
ss(S'knew'
p1592
g940
tp1593
(dp1594
g941
I2
ss(S'where'
p1595
S'he'
p1596
tp1597
(dp1598
S'claimed'
p1599
I2
ss(S'holidays'
p1600
S'according'
p1601
tp1602
(dp1603
S'to'
p1604
I2
ss(S's'
S'sex'
p1605
tp1606
(dp1607
S'life'
p1608
I2
ss(S'until'
p1609
S'you'
p1610
tp1611
(dp1612
S'get'
p1613
I2
ss(S'i'
S'began'
p1614
tp1615
(dp1616
S'to'
p1617
I2
ss(S'wished'
p1618
S'hed'
p1619
tp1620
(dp1621
g1336
I2
ss(S'to'
p1622
S'expose'
p1623
tp1624
(dp1625
S'the'
p1626
I2
ss(S'late'
p1627
S'and'
p1628
tp1629
(dp1630
S'bolgers'
p1631
I2
ss(S'me'
p1632
S'more'
p1633
tp1634
(dp1635
S'than'
p1636
I2
ss(S'would'
p1637
S'happen'
p1638
tp1639
(dp1640
S'i'
I2
ss(S'life'
p1641
S'the'
p1642
tp1643
(dp1644
S'way'
p1645
I2
sg1163
I2
ss(S'bolger'
p1646
S'held'
p1647
tp1648
(dp1649
S'firm'
p1650
I2
ss(S'me'
p1651
S'several'
p1652
tp1653
(dp1654
S'stories'
p1655
I2
ss(S'silence'
p1656
S'you'
p1657
tp1658
(dp1659
S'sit'
p1660
I2
ss(S'not'
p1661
g340
tp1662
(dp1663
S'down'
p1664
I2
ss(S'increasingly'
p1665
S'gray'
p1666
tp1667
(dp1668
S'and'
p1669
I2
ss(S'id'
p1670
S'ask'
p1671
tp1672
(dp1673
S'you'
p1674
I2
ss(S'saying'
p1675
S'i'
tp1676
(dp1677
S'saw'
p1678
I2
ss(g480
S'of'
p1679
tp1680
(dp1681
g615
I2
ss(g1090
S'sources'
p1682
tp1683
(dp1684
S'of'
p1685
I2
ss(g690
g693
tp1686
(dp1687
g1307
I2
ss(S'a'
g44
tp1688
(dp1689
S'the'
p1690
I2
ss(S'extending'
p1691
S'to'
p1692
tp1693
(dp1694
S'the'
p1695
I2
ss(S'he'
p1696
S'changed'
p1697
tp1698
(dp1699
S'his'
p1700
I2
ss(S'a'
S'convoluted'
p1701
tp1702
(dp1703
g476
I2
ss(S'but'
p1704
S'did'
p1705
tp1706
(dp1707
g1661
I2
ss(S'to'
S'push'
p1708
tp1709
(dp1710
S'me'
p1711
I2
ss(S'wives'
p1712
S'or'
p1713
tp1714
(dp1715
S'exwives'
p1716
I2
ss(S'than'
p1717
S'about'
p1718
tp1719
(dp1720
S'whether'
p1721
I2
ss(g341
S'to'
p1722
tp1723
(dp1724
S'blows'
p1725
I2
ss(S'story'
p1726
g315
tp1727
(dp1728
g316
I2
ss(g993
S'time'
p1729
tp1730
(dp1731
S'together'
p1732
I2
ss(g936
g939
tp1733
(dp1734
S'melting'
p1735
I2
ss(S'another'
p1736
S'occasion'
p1737
tp1738
(dp1739
S'shed'
p1740
I2
ss(S'you'
p1741
S'sure'
p1742
tp1743
(dp1744
S'you'
p1745
I2
ss(S'contact'
p1746
S'to'
p1747
tp1748
(dp1749
S'trips'
p1750
I2
ss(S'not'
p1751
g342
tp1752
(dp1753
S'with'
p1754
I2
ss(S'you'
p1755
S'slept'
p1756
tp1757
(dp1758
S'with'
p1759
I2
ss(S'and'
S'laughter'
p1760
tp1761
(dp1762
S'filling'
p1763
I2
ss(S'occasionally'
p1764
S'a'
tp1765
(dp1766
S'woman'
p1767
I2
ss(S'that'
p1768
S'i'
tp1769
(dp1770
S'existed'
p1771
I2
sS'said'
p1772
I2
sS'did'
p1773
I2
sS'was'
p1774
I2
sg1124
I2
sg12
I2
sS'hadnt'
p1775
I2
sS'wanted'
p1776
I2
sS'didnt'
p1777
I2
sS'asked'
p1778
I2
ss(S'have'
p1779
S'seen'
p1780
tp1781
(dp1782
S'my'
p1783
I2
ss(S'often'
p1784
S'said'
p1785
tp1786
(dp1787
S'at'
p1788
I2
ss(S'eating'
p1789
S'street'
p1790
tp1791
(dp1792
S'food'
p1793
I2
ss(S'were'
p1794
S'also'
p1795
tp1796
(dp1797
S'customers'
p1798
I2
ss(S'mentioned'
p1799
S'to'
p1800
tp1801
(dp1802
S'him'
p1803
I2
ss(g122
S'that'
p1804
tp1805
(dp1806
S'you'
p1807
I3
ss(S'them'
p1808
S'in'
p1809
tp1810
(dp1811
S'front'
p1812
I2
ss(S'how'
p1813
S'his'
p1814
tp1815
(dp1816
S'body'
p1817
I2
ss(S'me'
S'off'
p1818
tp1819
(dp1820
S'to'
p1821
I2
ss(S'not'
p1822
S'a'
tp1823
(dp1824
S'friend'
p1825
I2
ss(S'over'
p1826
S'he'
p1827
tp1828
(dp1829
S'shook'
p1830
I2
ss(g105
S'i'
tp1831
(dp1832
S'thought'
p1833
I2
ss(S'confronted'
p1834
S'men'
p1835
tp1836
(dp1837
S'with'
p1838
I2
ss(S'terrible'
p1839
S'but'
p1840
tp1841
(dp1842
S'his'
p1843
I2
ss(S'see'
p1844
S'it'
p1845
tp1846
(dp1847
S'as'
p1848
I2
ss(S'animal'
p1849
S'dont'
p1850
tp1851
(dp1852
S'you'
p1853
I2
ss(S'listen'
p1854
S'to'
p1855
tp1856
(dp1857
S'me'
p1858
I4
sS'him'
p1859
I3
ss(S'as'
p1860
g557
tp1861
(dp1862
g558
I2
ss(S'a'
S'hamburger'
p1863
tp1864
(dp1865
S'and'
p1866
I2
ss(S'all'
p1867
S'times'
p1868
tp1869
(dp1870
S'and'
p1871
I2
ss(S'as'
p1872
S'an'
p1873
tp1874
(dp1875
S'example'
p1876
I2
ss(S'listening'
p1877
S'for'
p1878
tp1879
(dp1880
S'footsteps'
p1881
I2
ss(g674
g601
tp1882
(dp1883
g602
I2
ss(S'business'
p1884
S'but'
p1885
tp1886
(dp1887
S'you'
p1888
I2
ss(S'sat'
p1889
S'there'
p1890
tp1891
(dp1892
S'considering'
p1893
I2
ss(S'watched'
p1894
S'his'
p1895
tp1896
(dp1897
S'words'
p1898
I2
ss(S'couldnt'
p1899
S'embrace'
p1900
tp1901
(dp1902
S'what'
p1903
I2
ss(g1501
g1600
tp1904
(dp1905
g1601
I2
ss(S'might'
p1906
S'cause'
p1907
tp1908
(dp1909
S'social'
p1910
I2
ss(S'you'
p1911
S'did'
p1912
tp1913
(dp1914
S'have'
p1915
I2
ss(S'body'
p1916
S'seemed'
p1917
tp1918
(dp1919
S'to'
p1920
I2
ss(S'of'
p1921
g903
tp1922
(dp1923
g904
I2
ss(S'the'
p1924
g7
tp1925
(dp1926
g8
I2
ss(S'two'
p1927
g786
tp1928
(dp1929
S'eyes'
p1930
I2
ss(S'grip'
p1931
S'they'
p1932
tp1933
(dp1934
S'had'
p1935
I2
ss(S'and'
S'hold'
p1936
tp1937
(dp1938
S'the'
p1939
I2
ss(S'to'
p1940
S'convince'
p1941
tp1942
(dp1943
S'me'
p1944
I2
sg1555
I2
ss(S'wife'
p1945
S'couldnt'
p1946
tp1947
(dp1948
g1250
I2
ss(g786
g1930
tp1949
(dp1950
S'and'
p1951
I2
sS'myself'
p1952
I2
ss(S'book'
p1953
S'to'
p1954
tp1955
(dp1956
S'me'
p1957
I2
ss(g1009
g1012
tp1958
(dp1959
S'known'
p1960
I2
ss(S'did'
p1961
S'speak'
p1962
tp1963
(dp1964
S'he'
p1965
I2
ss(S'sleep'
p1966
S'bolger'
p1967
tp1968
(dp1969
S'walked'
p1970
I2
ss(g1952
S'and'
p1971
tp1972
(dp1973
S'i'
I2
ss(g508
g511
tp1974
(dp1975
g1632
I2
ss(S'mexico'
p1976
g1107
tp1977
(dp1978
S'kept'
p1979
I2
ss(S'my'
p1980
S'table'
p1981
tp1982
(dp1983
S'he'
p1984
I2
ss(S'stared'
p1985
S'at'
p1986
tp1987
(dp1988
S'me'
p1989
I2
ss(S'whatever'
p1990
S'id'
p1991
tp1992
(dp1993
S'been'
p1994
I2
ss(S'bolger'
p1995
S'as'
p1996
tp1997
(dp1998
S'if'
p1999
I2
ss(S'her'
p2000
S'i'
tp2001
(dp2002
S'didnt'
p2003
I2
sS'dont'
p2004
I2
ss(S'i'
g1080
tp2005
(dp2006
S'a'
I2
ss(g1586
S'liked'
p2007
tp2008
(dp2009
S'being'
p2010
I2
ss(S'or'
p2011
S'selfimage'
p2012
tp2013
(dp2014
S'or'
p2015
I2
ss(g85
S'on'
p2016
tp2017
(dp2018
S'some'
p2019
I2
ss(g1678
g450
tp2020
(dp2021
S'once'
p2022
I2
ss(S'heard'
p2023
S'his'
p2024
tp2025
(dp2026
S'voice'
p2027
I2
ss(g529
S'i'
tp2028
(dp2029
S'suspected'
p2030
I2
sg1047
I2
ss(S'the'
p2031
S'impression'
p2032
tp2033
(dp2034
S'that'
p2035
I2
ss(S'into'
p2036
S'the'
p2037
tp2038
(dp2039
S'burger'
p2040
I2
sS'bar'
p2041
I4
sg802
I2
ss(S'his'
p2042
g190
tp2043
(dp2044
g191
I2
ss(S'were'
p2045
S'known'
p2046
tp2047
(dp2048
S'to'
p2049
I2
ss(S'i'
g12
tp2050
(dp2051
g13
I2
ss(g944
S'hell'
p2052
tp2053
(dp2054
S'out'
p2055
I2
ss(S'outrageous'
p2056
S'to'
p2057
tp2058
(dp2059
S'others'
p2060
I2
ss(g336
g341
tp2061
(dp2062
g1722
I2
ss(S'could'
p2063
S'i'
tp2064
(dp2065
g1061
I2
sg740
I2
ss(S'it'
p2066
S'made'
p2067
tp2068
(dp2069
g634
I2
ss(S'he'
p2070
g1779
tp2071
(dp2072
g1780
I2
ss(S'to'
p2073
S'express'
p2074
tp2075
(dp2076
g430
I2
ss(S'his'
p2077
S'superiority'
p2078
tp2079
(dp2080
S'a'
I2
ss(S'mouth'
p2081
S'that'
p2082
tp2083
(dp2084
S'you'
p2085
I2
ss(g452
g455
tp2086
(dp2087
S'late'
p2088
I2
ss(S'written'
p2089
g269
tp2090
(dp2091
g270
I2
ss(S'said'
p2092
S'are'
p2093
tp2094
(dp2095
g1741
I2
ss(g723
g726
tp2096
(dp2097
g781
I2
ss(g1863
g1866
tp2098
(dp2099
g288
I2
ss(S'her'
p2100
S'or'
p2101
tp2102
(dp2103
S'ask'
p2104
I2
ss(S'around'
p2105
S'about'
p2106
tp2107
(dp2108
S'her'
p2109
I2
ss(g2104
g2105
tp2110
(dp2111
g2106
I2
ss(g1563
g1566
tp2112
(dp2113
S'to'
p2114
I2
ss(S'eyes'
p2115
S'could'
p2116
tp2117
(dp2118
S'pry'
p2119
I2
ss(g114
g117
tp2120
(dp2121
S'ground'
p2122
I2
ss(S'mass'
p2123
S'of'
p2124
tp2125
(dp2126
S'people'
p2127
I2
ss(S'have'
p2128
S'too'
p2129
tp2130
(dp2131
S'he'
p2132
I2
ss(S'who'
p2133
S'im'
p2134
tp2135
(dp2136
S'drinking'
p2137
I2
ss(S'me'
p2138
S'being'
p2139
tp2140
(dp2141
S'sold'
p2142
I2
ss(S'to'
p2143
S'greet'
p2144
tp2145
(dp2146
S'an'
p2147
I2
sS'people'
p2148
I2
ss(S'threats'
p2149
S'and'
p2150
tp2151
(dp2152
S'hed'
p2153
I2
ss(g475
S'women'
p2154
tp2155
(dp2156
S'what'
p2157
I2
sg201
I2
sS'she'
p2158
I2
sg1717
I2
ss(g848
g851
tp2159
(dp2160
S'but'
p2161
I2
ss(S'same'
p2162
S'age'
p2163
tp2164
(dp2165
S'and'
p2166
I2
ss(S'he'
p2167
g1618
tp2168
(dp2169
g1619
I2
ss(S'too'
p2170
S'limited'
p2171
tp2172
(dp2173
S'to'
p2174
I2
ss(g1763
S'the'
p2175
tp2176
(dp2177
S'air'
p2178
I2
ss(S'probably'
p2179
S'seem'
p2180
tp2181
(dp2182
S'more'
p2183
I2
ss(g990
g993
tp2184
(dp2185
g1729
I2
ss(S'eyes'
p2186
g1185
tp2187
(dp2188
g1186
I2
ss(S'drinks'
p2189
S'at'
p2190
tp2191
(dp2192
S'me'
p2193
I2
sg1980
I2
ss(S'had'
p2194
S'something'
p2195
tp2196
(dp2197
S'to'
p2198
I2
ss(g768
g771
tp2199
(dp2200
S'come'
p2201
I2
ss(S'been'
p2202
S'over'
p2203
tp2204
(dp2205
S'a'
I2
ss(g2148
S'and'
p2206
tp2207
(dp2208
S'hug'
p2209
I2
ss(S'come'
p2210
S'in'
p2211
tp2212
(dp2213
S'here'
p2214
I2
ss(g796
S'thing'
p2215
tp2216
(dp2217
S'he'
p2218
I2
ss(S'thing'
p2219
S'im'
p2220
tp2221
(dp2222
g1675
I2
ss(S'loose'
p2223
S'bolger'
p2224
tp2225
(dp2226
S'believed'
p2227
I2
ss(S'admirers'
p2228
S'the'
p2229
tp2230
(dp2231
S'release'
p2232
I2
ss(S'chose'
p2233
S'to'
p2234
tp2235
(dp2236
g1582
I2
ss(g1690
S'four'
p2237
tp2238
(dp2239
S'of'
p2240
I2
ss(S'wife'
S'liked'
p2241
tp2242
(dp2243
g2073
I2
ss(S'an'
p2244
S'utterly'
p2245
tp2246
(dp2247
S'straight'
p2248
I2
ss(S'nearby'
p2249
S'plant'
p2250
tp2251
(dp2252
S'just'
p2253
I2
ss(g1760
g1763
tp2254
(dp2255
g2175
I2
ss(S'thought'
p2256
g1321
tp2257
(dp2258
g1322
I2
ss(g1453
g1456
tp2259
(dp2260
S'did'
p2261
I2
ss(S'wed'
p2262
g945
tp2263
(dp2264
g946
I2
ss(S'before'
p2265
g1422
tp2266
(dp2267
g1423
I2
ss(g878
g881
tp2268
(dp2269
S'us'
p2270
I2
ss(S'out'
p2271
S'about'
p2272
tp2273
(dp2274
S'when'
p2275
I2
ss(g392
S'i'
tp2276
(dp2277
S'was'
p2278
I2
ss(S'sometimes'
p2279
S'asked'
p2280
tp2281
(dp2282
g1146
I2
ss(g1402
S'hostess'
p2283
tp2284
(dp2285
S'and'
p2286
I2
ss(S'drunkenness'
p2287
g76
tp2288
(dp2289
g77
I2
ss(S'as'
p2290
S'his'
p2291
tp2292
(dp2293
g2228
I2
sS'fame'
p2294
I2
ss(S'reach'
p2295
S'and'
p2296
tp2297
(dp2298
S'perhaps'
p2299
I2
ss(g892
g895
tp2300
(dp2301
S'a'
I2
ss(S'any'
p2302
g2189
tp2303
(dp2304
g2190
I2
ss(S'suspicion'
p2305
S'that'
p2306
tp2307
(dp2308
S'id'
p2309
I2
ss(S'a'
S'disparaging'
p2310
tp2311
(dp2312
S'way'
p2313
I2
ss(g1191
g1194
tp2314
(dp2315
S'no'
p2316
I2
ss(g399
S'really'
p2317
tp2318
(dp2319
S'seeing'
p2320
I2
ss(S'said'
p2321
S'even'
p2322
tp2323
(dp2324
S'though'
p2325
I2
ss(S'was'
p2326
S'in'
p2327
tp2328
(dp2329
S'his'
p2330
I2
ss(S'as'
p2331
S'long'
p2332
tp2333
(dp2334
S'as'
p2335
I2
ss(S'didnt'
p2336
S'speak'
p2337
tp2338
(dp2339
S'up'
p2340
I2
ss(S'replied'
p2341
S'that'
p2342
tp2343
(dp2344
S'i'
I2
ss(S'biography'
p2345
S'is'
p2346
tp2347
(dp2348
S'that'
p2349
I2
ss(S'interruption'
p2350
S'and'
p2351
tp2352
(dp2353
g787
I2
ss(S'and'
p2354
S'turned'
p2355
tp2356
(dp2357
S'to'
p2358
I2
ss(g1742
g1745
tp2359
(dp2360
S'want'
p2361
I2
ss(S'his'
p2362
S'face'
p2363
tp2364
(dp2365
S'while'
p2366
I2
sS'had'
p2367
I2
sS'what'
p2368
I2
ss(S'that'
S'on'
p2369
tp2370
(dp2371
g1736
I2
ss(S'rid'
p2372
S'of'
p2373
tp2374
(dp2375
S'them'
p2376
I2
ss(g1283
S'begun'
p2377
tp2378
(dp2379
S'to'
p2380
I3
ss(g694
g697
tp2381
(dp2382
S'make'
p2383
I2
ss(S'with'
p2384
S'locations'
p2385
tp2386
(dp2387
S'of'
p2388
I2
ss(S'with'
p2389
S'the'
p2390
tp2391
(dp2392
g1453
I2
sS'letters'
p2393
I2
sS'title'
p2394
I2
ss(S'saw'
p2395
g449
tp2396
(dp2397
S'i'
I2
ss(S'unworthy'
p2398
S'of'
p2399
tp2400
(dp2401
S'my'
p2402
I2
ss(g1302
S'table'
p2403
tp2404
(dp2405
g1506
I2
sS'and'
p2406
I2
sS'without'
p2407
I2
sS'he'
p2408
I2
ss(S'strut'
p2409
S'how'
p2410
tp2411
(dp2412
S'many'
p2413
I2
ss(S'ever'
p2414
g2233
tp2415
(dp2416
g2234
I2
ss(S'car'
p2417
S'and'
p2418
tp2419
(dp2420
S'handed'
p2421
I2
ss(S'me'
p2422
S'a'
tp2423
(dp2424
S'look'
p2425
I2
ss(S'to'
p2426
S'explain'
p2427
tp2428
(dp2429
S'he'
p2430
I2
ss(S'of'
p2431
S'this'
p2432
tp2433
(dp2434
S'side'
p2435
I2
ss(S'chute'
p2436
S'tangled'
p2437
tp2438
(dp2439
S'in'
p2440
I2
ss(g635
g638
tp2441
(dp2442
g507
I2
ss(S'like'
S'asking'
p2443
tp2444
(dp2445
S'questions'
p2446
I2
ss(S'forthcoming'
p2447
S'whenever'
p2448
tp2449
(dp2450
S'he'
p2451
I2
ss(S'inside'
p2452
S'and'
p2453
tp2454
(dp2455
S'outside'
p2456
I2
ss(S'wife'
S'until'
p2457
tp2458
(dp2459
g1696
I2
ss(S'he'
p2460
S'roared'
p2461
tp2462
(dp2463
S'with'
p2464
I2
ss(g1970
g2036
tp2465
(dp2466
g2037
I2
ss(S'bag'
p2467
S'of'
p2468
tp2469
(dp2470
S'ice'
p2471
I2
ss(S'argued'
p2472
S'that'
p2473
tp2474
(dp2475
S'the'
p2476
I2
ss(S'weeks'
p2477
S'i'
tp2478
(dp2479
S'sat'
p2480
I2
ss(S'look'
p2481
S'when'
p2482
tp2483
(dp2484
S'he'
p2485
I2
ss(S'the'
p2486
S'fundamental'
p2487
tp2488
(dp2489
S'difference'
p2490
I2
ss(g2309
S'slept'
p2491
tp2492
(dp2493
S'with'
p2494
I2
ss(g971
S'still'
p2495
tp2496
(dp2497
S'failed'
p2498
I2
ss(g2471
S'on'
p2499
tp2500
(dp2501
g2362
I2
ss(S'wanted'
p2502
S'to'
p2503
tp2504
(dp2505
g1708
I2
sS'be'
p2506
I4
sS'see'
p2507
I2
sS'hear'
p2508
I2
sg1428
I2
ss(S'place'
p2509
S'of'
p2510
tp2511
(dp2512
S'honor'
p2513
I2
ss(S'the'
p2514
g2393
tp2515
(dp2516
S'in'
p2517
I2
ss(S'reserve'
p2518
S'chute'
p2519
tp2520
(dp2521
S'failed'
p2522
I2
ss(S'had'
p2523
S'bolger'
p2524
tp2525
(dp2526
S'told'
p2527
I2
ss(S'had'
p2528
S'caught'
p2529
tp2530
(dp2531
S'fire'
p2532
I2
ss(g797
g800
tp2533
(dp2534
S'when'
p2535
I2
ss(g1176
S'in'
p2536
tp2537
(dp2538
S'the'
p2539
I2
ss(S'food'
p2540
S'in'
p2541
tp2542
(dp2543
S'his'
p2544
I2
sS'mexico'
p2545
I3
ss(g350
S'he'
p2546
tp2547
(dp2548
S'said'
p2549
I2
ss(g1932
g1935
tp2550
(dp2551
S'to'
p2552
I2
ss(S'which'
p2553
S'tended'
p2554
tp2555
(dp2556
S'to'
p2557
I2
ss(S'envisaged'
p2558
g2389
tp2559
(dp2560
g2390
I2
ss(S'intimate'
p2561
S'with'
p2562
tp2563
(dp2564
S'hed'
p2565
I2
ss(g1729
g1732
tp2566
(dp2567
S'as'
p2568
I2
ss(g648
S'like'
p2569
tp2570
(dp2571
S'to'
p2572
I2
ss(g1991
g1994
tp2573
(dp2574
S'saying'
p2575
I2
sg1588
I2
ss(S'that'
p2576
S'id'
p2577
tp2578
(dp2579
g1432
I2
sg2491
I2
ss(S'to'
p2580
S'rip'
p2581
tp2582
(dp2583
S'it'
p2584
I2
ss(S'not'
p2585
S'wanting'
p2586
tp2587
(dp2588
S'to'
p2589
I2
ss(S'off'
p2590
S'with'
p2591
tp2592
(dp2593
S'his'
p2594
I2
ss(S'another'
p2595
S'time'
p2596
tp2597
(dp2598
S'with'
p2599
I2
ss(S'act'
p2600
S'out'
p2601
tp2602
(dp2603
S'my'
p2604
I2
ss(g1642
g1163
tp2605
(dp2606
g1164
I2
ss(S'he'
p2607
S'regularly'
p2608
tp2609
(dp2610
g839
I2
ss(g2491
g2494
tp2611
(dp2612
S''
I2
sS'as'
p2613
I2
sS'his'
p2614
I2
sS'any'
p2615
I2
ss(g657
S'asked'
p2616
tp2617
(dp2618
S'what'
p2619
I2
ss(S'rent'
p2620
S'car'
p2621
tp2622
(dp2623
S'with'
p2624
I2
ss(S'that'
p2625
S'gets'
p2626
tp2627
(dp2628
S'in'
p2629
I2
ss(S'i'
g359
tp2630
(dp2631
S'but'
p2632
I2
ss(g785
g1808
tp2633
(dp2634
S'i'
I2
sg1363
I2
sS'talking'
p2635
I2
sg1809
I2
sg1201
I2
sg2546
I2
ss(S'a'
S'thorough'
p2636
tp2637
(dp2638
S'account'
p2639
I2
ss(g482
g485
tp2640
(dp2641
g1275
I2
ss(S'written'
p2642
S'for'
p2643
tp2644
(dp2645
S'publication'
p2646
I2
ss(S'was'
p2647
S'on'
p2648
tp2649
(dp2650
S'his'
p2651
I2
ss(S'learn'
p2652
S'information'
p2653
tp2654
(dp2655
S'about'
p2656
I2
ss(S'divorce'
p2657
S'not'
p2658
tp2659
(dp2660
S'to'
p2661
I2
ss(g1809
g1812
tp2662
(dp2663
g1921
I2
sS'their'
p2664
I2
ss(g1623
g1626
tp2665
(dp2666
S'dozens'
p2667
I2
ss(g2473
g2476
tp2668
(dp2669
S'totalcontrol'
p2670
I2
ss(S'thought'
p2671
S'i'
tp2672
(dp2673
S'had'
p2674
I2
ss(S'read'
p2675
S'details'
p2676
tp2677
(dp2678
S'about'
p2679
I2
ss(g2456
g1114
tp2680
(dp2681
g1115
I2
ss(g1685
S'my'
p2682
tp2683
(dp2684
g440
I2
sS'distaste'
p2685
I2
sS'deficiencies'
p2686
I2
sg2081
I2
sS'gender'
p2687
I2
ss(g1655
S'of'
p2688
tp2689
(dp2690
g360
I2
ss(S'he'
p2691
S'could'
p2692
tp2693
(dp2694
S'know'
p2695
I3
ss(S'man'
p2696
S'just'
p2697
tp2698
(dp2699
S'as'
p2700
I2
ss(S'motive'
p2701
S'perhaps'
p2702
tp2703
(dp2704
S'to'
p2705
I2
ss(S'voice'
p2706
g521
tp2707
(dp2708
S'boomed'
p2709
I2
ss(g2041
S'one'
p2710
tp2711
(dp2712
S'day'
p2713
I2
ss(S'idea'
p2714
S'asking'
p2715
tp2716
(dp2717
S'you'
p2718
I2
ss(S'a'
S'period'
p2719
tp2720
(dp2721
S'of'
p2722
I2
ss(g2015
S'a'
tp2723
(dp2724
g171
I2
sS'deepseated'
p2725
I2
sS'bull'
p2726
I2
ss(g1411
S'when'
p2727
tp2728
(dp2729
g1568
I2
sS'he'
p2730
I2
ss(S'him'
p2731
S'using'
p2732
tp2733
(dp2734
g497
I2
ss(g950
g953
tp2735
(dp2736
S'any'
p2737
I2
ss(g44
g1690
tp2738
(dp2739
g2237
I2
ss(S'in'
p2740
S'that'
p2741
tp2742
(dp2743
S'chair'
p2744
I2
ss(g2586
g2589
tp2745
(dp2746
S'leave'
p2747
I2
ss(g1858
S'although'
p2748
tp2749
(dp2750
S'i'
I2
ss(g1419
S'minutes'
p2751
tp2752
(dp2753
g2585
I2
sg606
I2
ss(S'buy'
p2754
S'a'
tp2755
(dp2756
g1863
I2
ss(S'like'
S'what'
p2757
tp2758
(dp2759
S'i'
I2
ss(S'his'
p2760
S'nondrink'
p2761
tp2762
(dp2763
S'hand'
p2764
I2
ss(S'one'
p2765
S'would'
p2766
tp2767
(dp2768
S'want'
p2769
I2
ss(S'gradually'
p2770
S'be'
p2771
tp2772
(dp2773
S'forgotten'
p2774
I2
ss(S'of'
p2775
S'your'
p2776
tp2777
(dp2778
S'hole'
p2779
I2
ss(g1850
g1853
tp2780
(dp2781
S'you'
p2782
I2
ss(S'his'
p2783
S'office'
p2784
tp2785
(dp2786
S'screwing'
p2787
I2
sS'with'
p2788
I2
ss(S'somewhat'
p2789
S'proud'
p2790
tp2791
(dp2792
S'of'
p2793
I2
ss(S'face'
p2794
S'hed'
p2795
tp2796
(dp2797
S'tried'
p2798
I2
ss(g681
g684
tp2799
(dp2800
g2620
I2
ss(S'ground'
p2801
g1595
tp2802
(dp2803
g1596
I2
ss(g2250
g2253
tp2804
(dp2805
S'to'
p2806
I2
ss(g728
g731
tp2807
(dp2808
S'to'
p2809
I2
ss(S'with'
p2810
S'him'
p2811
tp2812
(dp2813
S'when'
p2814
I2
sS'every'
p2815
I2
sS'why'
p2816
I2
sS'talking'
p2817
I2
ss(S'said'
p2818
g1995
tp2819
(dp2820
g1996
I2
ss(S'things'
p2821
S'in'
p2822
tp2823
(dp2824
S'people'
p2825
I2
ss(g2335
g2262
tp2826
(dp2827
g945
I2
ss(S'around'
p2828
S'a'
tp2829
(dp2830
S'quiet'
p2831
I2
ss(S'reasons'
p2832
S'for'
p2833
tp2834
(dp2835
S'withholding'
p2836
I2
ss(S'affair'
p2837
S'shed'
p2838
tp2839
(dp2840
S'found'
p2841
I2
ss(S'on'
p2842
S'his'
p2843
tp2844
(dp2845
S'legs'
p2846
I2
sS'mind'
p2847
I2
sg2363
I3
ss(S'wives'
p2848
S'anger'
p2849
tp2850
(dp2851
S'over'
p2852
I2
ss(S'either'
p2853
S'which'
p2854
tp2855
(dp2856
S'didnt'
p2857
I2
ss(S'that'
p2858
S'represented'
p2859
tp2860
(dp2861
g2486
I2
ss(g2283
g2286
tp2862
(dp2863
g877
I2
ss(g429
S'i'
tp2864
(dp2865
S'didnt'
p2866
I2
ss(g1785
g1788
tp2867
(dp2868
S'his'
p2869
I2
ss(S'good'
p2870
S'he'
p2871
tp2872
(dp2873
g1205
I2
ss(S'fed'
p2874
S'up'
p2875
tp2876
(dp2877
S'with'
p2878
I2
ss(g2432
g2435
tp2879
(dp2880
S'of'
p2881
I2
ss(S'landing'
p2882
S'him'
p2883
tp2884
(dp2885
S'in'
p2886
I2
ss(g782
g785
tp2887
(dp2888
g1808
I3
ss(S'hear'
p2889
S'yourself'
p2890
tp2891
(dp2892
S'talk'
p2893
I2
ss(S'sticking'
p2894
S'with'
p2895
tp2896
(dp2897
S'his'
p2898
I2
ss(S'based'
p2899
S'on'
p2900
tp2901
(dp2902
S'conjecture'
p2903
I2
ss(S'street'
p2904
g2540
tp2905
(dp2906
g2541
I3
ss(S'told'
p2907
S'her'
p2908
tp2909
(dp2910
S'bolger'
p2911
I2
sS'that'
p2912
I2
ss(g1638
S'i'
tp2913
(dp2914
S'told'
p2915
I2
ss(S'in'
p2916
S'your'
p2917
tp2918
(dp2919
g629
I2
ss(S'only'
p2920
S'rarely'
p2921
tp2922
(dp2923
S'took'
p2924
I2
ss(g1771
S'how'
p2925
tp2926
(dp2927
S'could'
p2928
I2
ss(S'feet'
p2929
S'in'
p2930
tp2931
(dp2932
S'the'
p2933
I2
ss(g2893
S'youd'
p2934
tp2935
(dp2936
S'rather'
p2937
I2
ss(g2310
g2313
tp2938
(dp2939
S'i'
I2
ss(S'his'
p2940
S'own'
p2941
tp2942
(dp2943
S'voice'
p2944
I2
sS'lawyers'
p2945
I2
sS'if'
p2946
I2
ss(g1708
g1711
tp2947
(dp2948
S'into'
p2949
I2
ss(S'separate'
p2950
S'these'
p2951
tp2952
(dp2953
g2821
I2
ss(S'ice'
p2954
S'or'
p2955
tp2956
(dp2957
S'to'
p2958
I2
ss(S'force'
p2959
S'id'
p2960
tp2961
(dp2962
S'told'
p2963
I2
ss(S'other'
p2964
S'things'
p2965
tp2966
(dp2967
S'i'
I2
ss(g153
g156
tp2968
(dp2969
g1092
I2
ss(S'suggest'
p2970
S'she'
p2971
tp2972
(dp2973
S'was'
p2974
I2
ss(S'want'
p2975
S'to'
p2976
tp2977
(dp2978
S'be'
p2979
I2
sS'confess'
p2980
I2
sS'read'
p2981
I3
sS'leave'
p2982
I2
sg1018
I2
sS'sit'
p2983
I2
sS'eat'
p2984
I2
sS'write'
p2985
I5
sS'see'
p2986
I3
sS'hear'
p2987
I2
sS'know'
p2988
I2
sg1623
I2
sS'listen'
p2989
I2
ss(S'nerve'
p2990
S'to'
p2991
tp2992
(dp2993
S'write'
p2994
I2
ss(g776
S'dictate'
p2995
tp2996
(dp2997
S'the'
p2998
I2
ss(S'life'
p2999
S'in'
p3000
tp3001
(dp3002
S'italics'
p3003
I2
ss(g2875
g2878
tp3004
(dp3005
g1110
I2
sS'him'
p3006
I2
sS'for'
p3007
I2
ss(S'ever'
p3008
S'go'
p3009
tp3010
(dp3011
S'back'
p3012
I2
ss(g1168
g1171
tp3013
(dp3014
S'repeating'
p3015
I2
ss(g1107
g1979
tp3016
(dp3017
S'pushing'
p3018
I2
ss(S'three'
p3019
S'into'
p3020
tp3021
(dp3022
S'a'
I2
ss(S'a'
g2726
tp3023
(dp3024
S'trampling'
p3025
I2
ss(S'of'
p3026
g620
tp3027
(dp3028
g621
I2
ss(S'force'
S'or'
p3029
tp3030
(dp3031
S'as'
p3032
I2
ss(S'everyone'
p3033
S'around'
p3034
tp3035
(dp3036
S'him'
p3037
I2
ss(S'line'
p3038
S'and'
p3039
tp3040
(dp3041
S'his'
p3042
I2
ss(g616
g619
tp3043
(dp3044
S'that'
p3045
I2
ss(g644
S'about'
p3046
tp3047
(dp3048
S'what'
p3049
I2
ss(S'enough'
p3050
S'people'
p3051
tp3052
(dp3053
S'wouldnt'
p3054
I2
ss(g369
S'i'
tp3055
(dp3056
g216
I2
ss(S'idea'
p3057
g2011
tp3058
(dp3059
g2012
I2
ss(g319
g1246
tp3060
(dp3061
g1247
I2
ss(g1957
g567
tp3062
(dp3063
g22
I2
sS'i'
I2
sS'had'
p3064
I2
sS'you'
p3065
I3
sg568
I3
sS'why'
p3066
I2
sS'if'
p3067
I2
ss(S'do'
p3068
S'you'
p3069
tp3070
(dp3071
S'want'
p3072
I2
sS'really'
p3073
I2
ss(g268
S'staff'
p3074
tp3075
(dp3076
S'he'
p3077
I2
ss(S'a'
g2831
tp3078
(dp3079
g1119
I2
ss(g2503
g2506
tp3080
(dp3081
g52
I2
sS'around'
p3082
I2
sS'remembered'
p3083
I2
sS'inside'
p3084
I2
sS'responsible'
p3085
I2
sg1839
I2
sg231
I2
sS'asking'
p3086
I2
sg862
I2
sS'at'
p3087
I2
sS'alone'
p3088
I2
sS'with'
p3089
I2
ss(g1162
S'without'
p3090
tp3091
(dp3092
g847
I2
ss(S'came'
p3093
g1826
tp3094
(dp3095
g1827
I2
ss(S'would'
p3096
g3008
tp3097
(dp3098
g3009
I2
ss(S'over'
p3099
S'and'
p3100
tp3101
(dp3102
S'went'
p3103
I2
sg236
I2
ss(S'or'
p3104
S'you'
p3105
tp3106
(dp3107
S'want'
p3108
I2
ss(g788
g791
tp3109
(dp3110
S'on'
p3111
I2
sS'the'
p3112
I2
sS'his'
p3113
I2
sg1976
I2
ss(g2900
g2903
tp3114
(dp3115
S'and'
p3116
I2
ss(g2621
g2624
tp3117
(dp3118
S'bolger'
p3119
I2
ss(S'driving'
p3120
S'while'
p3121
tp3122
(dp3123
S'his'
p3124
I2
ss(S'take'
p3125
S'you'
p3126
tp3127
(dp3128
S'to'
p3129
I2
ss(g2984
g2904
tp3130
(dp3131
g2540
I2
ss(g563
g566
tp3132
(dp3133
g1331
I2
ss(g2464
S'laughter'
p3134
tp3135
(dp3136
S'and'
p3137
I2
ss(S'everyone'
p3138
S'who'
p3139
tp3140
(dp3141
S'worked'
p3142
I2
ss(g693
g1307
tp3143
(dp3144
g1308
I2
ss(S'a'
g674
tp3145
(dp3146
g601
I2
ss(g843
S'a'
tp3147
(dp3148
g2657
I2
sS'journal'
p3149
I2
sS'drink'
p3150
I2
sg2310
I2
sS'way'
p3151
I2
sS'chair'
p3152
I2
sg1168
I2
sS'hospital'
p3153
I2
ss(S'i'
g2023
tp3154
(dp3155
g2024
I2
ss(g2507
S'something'
p3156
tp3157
(dp3158
S'redeeming'
p3159
I2
ss(S'their'
p3160
S'divorce'
p3161
tp3162
(dp3163
S'and'
p3164
I2
ss(g2232
S'of'
p3165
tp3166
(dp3167
S'a'
I2
ss(g3150
S'irked'
p3168
tp3169
(dp3170
S'him'
p3171
I2
ss(S'virility'
p3172
S'with'
p3173
tp3174
(dp3175
S'a'
I2
ss(S'to'
g2984
tp3176
(dp3177
g2904
I2
ss(S'opinion'
S'he'
p3178
tp3179
(dp3180
S'wasnt'
p3181
I2
ss(S'know'
S'what'
p3182
tp3183
(dp3184
S'you'
p3185
I2
sS'should'
p3186
I2
ss(S'long'
p3187
g264
tp3188
(dp3189
g265
I2
ss(S'took'
p3190
S'my'
p3191
tp3192
(dp3193
S'first'
p3194
I2
ss(g958
g961
tp3195
(dp3196
S'i'
I2
ss(S'there'
p3197
S'for'
p3198
tp3199
(dp3200
S'almost'
p3201
I2
ss(g1780
g1783
tp3202
(dp3203
S'sleeping'
p3204
I2
ss(S'refused'
p3205
S'to'
p3206
tp3207
(dp3208
S'divorce'
p3209
I2
ss(S'that'
p3210
S'his'
p3211
tp3212
(dp3213
g2186
I2
sS'first'
p3214
I2
ss(S'exhausted'
p3215
S'and'
p3216
tp3217
(dp3218
S'wanting'
p3219
I2
ss(S'hed'
p3220
g1834
tp3221
(dp3222
g1835
I2
ss(S'with'
p3223
S'a'
tp3224
(dp3225
S'loudmouth'
p3226
I2
sS'prescription'
p3227
I2
sS'siege'
p3228
I2
sg3187
I2
sg2219
I2
sS'knife'
p3229
I2
ss(g1451
S'of'
p3230
tp3231
(dp3232
S'a'
I2
sS'my'
p3233
I2
ss(g548
S'dominate'
p3234
tp3235
(dp3236
S'me'
p3237
I2
ss(g256
g259
tp3238
(dp3239
g1378
I2
ss(S'i'
g1124
tp3240
(dp3241
S'only'
p3242
I2
sg1125
I2
ss(S'she'
p3243
S'said'
p3244
tp3245
(dp3246
S'you'
p3247
I2
ss(S'car'
p3248
g3099
tp3249
(dp3250
g3100
I2
ss(S'he'
p3251
S'smiled'
p3252
tp3253
(dp3254
S'as'
p3255
I2
ss(S'yourself'
p3256
g36
tp3257
(dp3258
g37
I2
ss(g2007
g2010
tp3259
(dp3260
g2828
I2
ss(g1442
S'not'
p3261
tp3262
(dp3263
S'at'
p3264
I2
ss(g731
g2809
tp3265
(dp3266
S'his'
p3267
I2
ss(S'presented'
p3268
S'him'
p3269
tp3270
(dp3271
S'in'
p3272
I2
ss(S'his'
p3273
S'eyes'
p3274
tp3275
(dp3276
S'and'
p3277
I2
sg2116
I2
sS'his'
p3278
I2
sg1185
I2
ss(g1019
g1022
tp3279
(dp3280
g2460
I2
ss(S'his'
p3281
S'death'
p3282
tp3283
(dp3284
S'hed'
p3285
I2
ss(S'does'
p3286
S'any'
p3287
tp3288
(dp3289
S'of'
p3290
I2
ss(S'couldnt'
p3291
S'imagine'
p3292
tp3293
(dp3294
g1813
I2
ss(g2890
g2893
tp3295
(dp3296
g2934
I2
ss(g811
g814
tp3297
(dp3298
S'me'
p3299
I3
ss(S'line'
S'once'
p3300
tp3301
(dp3302
S'again'
p3303
I2
ss(S'i'
S'drank'
p3304
tp3305
(dp3306
g2810
I2
ss(S'me'
g3243
tp3307
(dp3308
g3244
I2
ss(S'for'
S'speaking'
p3309
tp3310
(dp3311
S'his'
p3312
I2
ss(S'a'
g2725
tp3313
(dp3314
S'need'
p3315
I2
ss(S'else'
p3316
S'he'
p3317
tp3318
(dp3319
S'did'
p3320
I2
ss(S'fazed'
p3321
S'he'
p3322
tp3323
(dp3324
S'would'
p3325
I2
ss(g1626
g2667
tp3326
(dp3327
g562
I2
ss(S'become'
p3328
S'how'
p3329
tp3330
(dp3331
g2063
I2
ss(g3309
g3312
tp3332
(dp3333
S'mind'
p3334
I2
ss(g2376
S'i'
tp3335
(dp3336
g3291
I2
ss(S'his'
p3337
S'image'
p3338
tp3339
(dp3340
g408
I2
ss(g2608
g839
tp3341
(dp3342
g840
I2
ss(S'less'
p3343
S'about'
p3344
tp3345
(dp3346
S'his'
p3347
I2
ss(g2380
S'curve'
p3348
tp3349
(dp3350
S'in'
p3351
I2
ss(S'left'
p3352
S'his'
p3353
tp3354
(dp3355
S'body'
p3356
I2
sS'company'
p3357
I2
sS'bar'
p3358
I2
ss(S'slugged'
p3359
S'him'
p3360
tp3361
(dp3362
S'with'
p3363
I2
ss(S'of'
p3364
S'the'
p3365
tp3366
(dp3367
S'sound'
p3368
I2
sS'bar'
p3369
I2
sg858
I2
sS'sales'
p3370
I4
sg1682
I2
sg2123
I2
sS'time'
p3371
I3
ss(g2201
S'to'
p3372
tp3373
(dp3374
S'me'
p3375
I2
ss(S'why'
p3376
S'did'
p3377
tp3378
(dp3379
S'i'
I2
sS'he'
p3380
I2
ss(g626
g413
tp3381
(dp3382
g1237
I2
sg414
I2
sS'he'
p3383
I2
ss(S'spoke'
p3384
g1412
tp3385
(dp3386
g1413
I2
ss(g419
g423
tp3387
(dp3388
S'not'
p3389
I2
ss(S'the'
p3390
g2040
tp3391
(dp3392
S'its'
p3393
I2
ss(S'control'
p3394
S'of'
p3395
tp3396
(dp3397
S'everything'
p3398
I2
sS'everyone'
p3399
I2
ss(S'imaginary'
p3400
S'book'
p3401
tp3402
(dp3403
S'about'
p3404
I2
ss(g2643
g2646
tp3405
(dp3406
S'but'
p3407
I2
ss(S'each'
p3408
S'other'
p3409
tp3410
(dp3411
S'for'
p3412
I2
ss(g492
g495
tp3413
(dp3414
S'his'
p3415
I2
sS'him'
p3416
I2
sS'comfortable'
p3417
I2
ss(S'time'
p3418
S'he'
p3419
tp3420
(dp3421
g3205
I2
ss(g578
g581
tp3422
(dp3423
S'away'
p3424
I2
ss(g2122
g2882
tp3425
(dp3426
g2883
I2
ss(S'me'
S'though'
p3427
tp3428
(dp3429
S'id'
p3430
I2
ss(S'sex'
p3431
S'with'
p3432
tp3433
(dp3434
S'any'
p3435
I2
ss(S'is'
p3436
g2170
tp3437
(dp3438
g2171
I2
ss(S'the'
p3439
S'drink'
p3440
tp3441
(dp3442
S'away'
p3443
I2
ss(g3368
S'of'
p3444
tp3445
(dp3446
S'his'
p3447
I2
sg439
I2
sS'people'
p3448
I2
ss(S'he'
g572
tp3449
(dp3450
S'i'
I2
sg1073
I2
sS'id'
p3451
I3
sS'that'
p3452
I2
ss(S'table'
g2408
tp3453
(dp3454
S'didnt'
p3455
I3
sS'would'
p3456
I2
ss(S'i'
S'then'
p3457
tp3458
(dp3459
S'confessed'
p3460
I2
ss(g867
g870
tp3461
(dp3462
S'of'
p3463
I2
ss(g2332
g2335
tp3464
(dp3465
g2262
I2
ss(g2030
S'that'
p3466
tp3467
(dp3468
S'like'
p3469
I2
ss(S'spoke'
p3470
S'and'
p3471
tp3472
(dp3473
S'when'
p3474
I2
ss(S'the'
p3475
g3371
tp3476
(dp3477
g768
I2
sS'but'
p3478
I2
ss(S'curtly'
p3479
S'or'
p3480
tp3481
(dp3482
S'snapped'
p3483
I2
ss(g21
S'ambient'
p3484
tp3485
(dp3486
S'bar'
p3487
I2
ss(g1778
S'her'
p3488
tp3489
(dp3490
S'and'
p3491
I2
ss(g2584
g2590
tp3492
(dp3493
g2591
I2
ss(S'force'
S'i'
tp3494
(dp3495
S'didnt'
p3496
I2
ss(S'and'
p3497
S'it'
p3498
tp3499
(dp3500
S'was'
p3501
I2
ss(S'awoke'
p3502
S'with'
p3503
tp3504
(dp3505
S'a'
I2
ss(S'this'
p3506
S'bar'
p3507
tp3508
(dp3509
S'and'
p3510
I2
ss(S'cared'
p3511
S'enough'
p3512
tp3513
(dp3514
S'at'
p3515
I2
ss(g1979
g3018
tp3516
(dp3517
S'drinks'
p3518
I2
ss(g1247
S'i'
tp3519
(dp3520
g2341
I2
ss(S'confess'
p3521
S'to'
p3522
tp3523
(dp3524
S'him'
p3525
I2
ss(S'squeezed'
p3526
S'my'
p3527
tp3528
(dp3529
S'shoulder'
p3530
I2
sS'head'
p3531
I2
ss(S'sales'
p3532
g2959
tp3533
(dp3534
g1317
I2
sS'would'
p3535
I2
sS'i'
I2
sg2960
I2
sg3029
I2
sS'those'
p3536
I2
sS'he'
p3537
I3
ss(S'id'
p3538
S'never'
p3539
tp3540
(dp3541
g2642
I2
sS'had'
p3542
I2
ss(S'his'
p3543
S'first'
p3544
tp3545
(dp3546
S'wife'
p3547
I9
ss(g201
g205
tp3548
(dp3549
S'essential'
p3550
I2
ss(g2682
g2685
tp3551
(dp3552
S'and'
p3553
I2
ss(g2917
g629
tp3554
(dp3555
g630
I2
ss(g3480
g3483
tp3556
(dp3557
S'his'
p3558
I2
ss(S'learned'
p3559
S'hed'
p3560
tp3561
(dp3562
g524
I2
ss(S'his'
p3563
g1457
tp3564
(dp3565
g370
I2
ss(g1003
S'you'
p3566
tp3567
(dp3568
S'dont'
p3569
I2
ss(S'my'
p3570
g2345
tp3571
(dp3572
g2346
I2
ss(S'for'
p3573
S'whichever'
p3574
tp3575
(dp3576
g206
I2
ss(S'nothing'
p3577
S'to'
p3578
tp3579
(dp3580
g2970
I2
sS'confess'
p3581
I2
sS'tell'
p3582
I2
sS'reveal'
p3583
I2
ss(g1647
g1650
tp3584
(dp3585
S'on'
p3586
I2
ss(S'take'
p3587
S'having'
p3588
tp3589
(dp3590
S'his'
p3591
I2
ss(g1199
S'he'
p3592
tp3593
(dp3594
g1461
I2
sS'counted'
p3595
I2
sS'would'
p3596
I2
ss(g89
S'to'
p3597
tp3598
(dp3599
S'be'
p3600
I2
ss(S'wife'
S'had'
p3601
tp3602
(dp3603
S'said'
p3604
I2
sS'been'
p3605
I2
ss(g1885
g1888
tp3606
(dp3607
S'prefer'
p3608
I2
sg2210
I2
ss(S'since'
p3609
S'he'
p3610
tp3611
(dp3612
S'seemed'
p3613
I2
ss(S'retreat'
p3614
S'into'
p3615
tp3616
(dp3617
S'a'
I2
ss(S'was'
p3618
g2576
tp3619
(dp3620
S'i'
I2
sg2577
I2
sS'she'
p3621
I2
ss(g2508
S'the'
p3622
tp3623
(dp3624
S'true'
p3625
I2
ss(g194
S'in'
p3626
tp3627
(dp3628
S'the'
p3629
I3
ss(g1732
g2568
tp3630
(dp3631
S'couples'
p3632
I2
ss(g881
g2270
tp3633
(dp3634
S'took'
p3635
I2
sg1502
I2
ss(S'to'
p3636
S'open'
p3637
tp3638
(dp3639
S'forcing'
p3640
I2
ss(S'deal'
p3641
g3223
tp3642
(dp3643
S'a'
I2
ss(g1118
S'would'
p3644
tp3645
(dp3646
S'break'
p3647
I2
ss(S'hesitate'
p3648
S'to'
p3649
tp3650
(dp3651
S'interrupt'
p3652
I2
ss(g1601
g1604
tp3653
(dp3654
S'bolger'
p3655
I2
ss(S'to'
p3656
S'surprise'
p3657
tp3658
(dp3659
S'him'
p3660
I2
ss(g2695
S'how'
p3661
tp3662
(dp3663
S'the'
p3664
I2
ss(g456
g460
tp3665
(dp3666
g645
I2
ss(S'didnt'
p3667
S'like'
p3668
tp3669
(dp3670
g2757
I2
sg1537
I2
sS'it'
p3671
I3
sg2443
I2
sS'hearing'
p3672
I2
sg2731
I2
ss(S'last'
p3673
S'maybe'
p3674
tp3675
(dp3676
S'two'
p3677
I2
ss(S'the'
p3678
g2123
tp3679
(dp3680
g2124
I2
ss(g280
S'aversion'
p3681
tp3682
(dp3683
S'to'
p3684
I2
ss(S'injuries'
p3685
S'he'
p3686
tp3687
(dp3688
S'said'
p3689
I2
ss(g3393
S'goodeat'
p3690
tp3691
(dp3692
S'it'
p3693
I2
ss(S'could'
p3694
g3242
tp3695
(dp3696
S'listen'
p3697
I2
ss(g3315
S'to'
p3698
tp3699
(dp3700
S'sell'
p3701
I2
ss(S'and'
p3702
S'hed'
p3703
tp3704
(dp3705
S'stare'
p3706
I2
sS'confided'
p3707
I2
sS'rather'
p3708
I2
sS'collapsed'
p3709
I2
sg723
I2
sg2179
I2
ss(g2937
g1854
tp3710
(dp3711
g1855
I2
ss(S'had'
p3712
S'spilled'
p3713
tp3714
(dp3715
g2842
I2
ss(g3632
S'it'
p3716
tp3717
(dp3718
g675
I2
ss(g3380
S'care'
p3719
tp3720
(dp3721
S'now'
p3722
I2
ss(g359
g2632
tp3723
(dp3724
S'didnt'
p3725
I2
ss(S'him'
p3726
S'for'
p3727
tp3728
(dp3729
g1483
I2
sg690
I2
sS'so'
p3730
I2
sg3309
I2
sS'years'
p3731
I2
ss(g1438
g1442
tp3732
(dp3733
g3261
I2
ss(S'anyone'
p3734
g2256
tp3735
(dp3736
g1321
I2
ss(S'quickly'
p3737
S'to'
p3738
tp3739
(dp3740
g2600
I2
ss(S'lamented'
p3741
S'and'
p3742
tp3743
(dp3744
S'i'
I2
ss(g2367
S'become'
p3745
tp3746
(dp3747
S'increasingly'
p3748
I2
ss(S'the'
p3749
g292
tp3750
(dp3751
S'to'
p3752
I2
ss(g1266
g1269
tp3753
(dp3754
S'besides'
p3755
I2
ss(S'sign'
p3756
S'of'
p3757
tp3758
(dp3759
S'cravenness'
p3760
I2
ss(S'you'
S'leave'
p3761
tp3762
(dp3763
g3215
I2
ss(S'whether'
p3764
S'you'
p3765
tp3766
(dp3767
g418
I2
ss(S'he'
p3768
S'chuckled'
p3769
tp3770
(dp3771
S'son'
p3772
I2
ss(g1177
g1180
tp3773
(dp3774
S'head'
p3775
I2
sS'hand'
p3776
I2
ss(S'agree'
p3777
S'with'
p3778
tp3779
(dp3780
S'a'
I2
ss(S'an'
p3781
S'effort'
p3782
tp3783
(dp3784
S'to'
p3785
I2
ss(S'me'
p3786
S'there'
p3787
tp3788
(dp3789
S'and'
p3790
I2
sS'were'
p3791
I2
ss(S'greet'
p3792
g2147
tp3793
(dp3794
S'incoming'
p3795
I2
ss(S'media'
p3796
S'to'
p3797
tp3798
(dp3799
S'light'
p3800
I2
ss(g3300
g3303
tp3801
(dp3802
S'his'
p3803
I2
ss(S'told'
p3804
g1651
tp3805
(dp3806
g1818
I2
sg3427
I2
sS'sometimes'
p3807
I2
sS'only'
p3808
I2
sg3243
I2
sg1652
I2
sS'he'
p3809
I2
ss(S'again'
p3810
S'he'
p3811
tp3812
(dp3813
g2321
I2
sS'contended'
p3814
I2
ss(S'there'
p3815
S'that'
p3816
tp3817
(dp3818
g2607
I2
ss(g3761
g3215
tp3819
(dp3820
g3216
I2
ss(S'existence'
p3821
S'he'
p3822
tp3823
(dp3824
S'saw'
p3825
I2
ss(g2981
S'and'
p3826
tp3827
(dp3828
S'did'
p3829
I2
ss(S'her'
p3830
S'he'
p3831
tp3832
(dp3833
S'told'
p3834
I2
ss(g2166
S'though'
p3835
tp3836
(dp3837
S'he'
p3838
I2
ss(g3527
g3531
tp3839
(dp3840
S'eat'
p3841
I2
sS'in'
p3842
I2
ss(g2383
S'but'
p3843
tp3844
(dp3845
S'he'
p3846
I2
ss(g3274
g3278
tp3847
(dp3848
S'mustache'
p3849
I2
ss(g3
g6
tp3850
(dp3851
S'a'
I2
ss(g2636
g2639
tp3852
(dp3853
g2431
I2
ss(g186
g189
tp3854
(dp3855
S'twentyplus'
p3856
I2
ss(S'ask'
p3857
S'i'
tp3858
(dp3859
S'didnt'
p3860
I2
ss(S'i'
g834
tp3861
(dp3862
g835
I2
ss(S'to'
p3863
g3543
tp3864
(dp3865
S'life'
p3866
I2
sg186
I2
sS'audience'
p3867
I2
sg2078
I2
sg3544
I2
sg755
I2
sS'staff'
p3868
I2
ss(g2351
g787
tp3869
(dp3870
g788
I2
ss(g2513
S'reserved'
p3871
tp3872
(dp3873
S'for'
p3874
I2
ss(S'did'
p3875
S'hed'
p3876
tp3877
(dp3878
S'end'
p3879
I2
ss(g2270
g1502
tp3880
(dp3881
g1503
I2
ss(S'part'
p3882
S'of'
p3883
tp3884
(dp3885
S'his'
p3886
I3
ss(S'and'
p3887
g1924
tp3888
(dp3889
g552
I2
sS'inevitable'
p3890
I2
sg7
I2
ss(g1327
g1330
tp3891
(dp3892
S'spent'
p3893
I2
ss(S'controlled'
p3894
S'everything'
p3895
tp3896
(dp3897
S'about'
p3898
I2
ss(S'been'
p3899
S'trying'
p3900
tp3901
(dp3902
g1940
I2
ss(g3054
S'respect'
p3903
tp3904
(dp3905
S'me'
p3906
I2
ss(g2838
g2841
tp3907
(dp3908
g2271
I2
ss(g2299
S'beyond'
p3909
tp3910
(dp3911
S'his'
p3912
I2
ss(g2427
g2430
tp3913
(dp3914
S'said'
p3915
I2
ss(g2744
S'he'
p3916
tp3917
(dp3918
g2092
I2
ss(S'admit'
p3919
S'it'
p3920
tp3921
(dp3922
S'bolger'
p3923
I2
ss(S'i'
g912
tp3924
(dp3925
g1476
I2
ss(g3542
S'a'
tp3926
(dp3927
S'serious'
p3928
I2
ss(S'speech'
p3929
S'he'
p3930
tp3931
(dp3932
S'asked'
p3933
I2
ss(S'dark'
p3934
S'particularly'
p3935
tp3936
(dp3937
S'around'
p3938
I2
ss(g1944
S'to'
p3939
tp3940
(dp3941
S'write'
p3942
I2
sS'portray'
p3943
I2
sg2144
I2
sS'speak'
p3944
I2
ss(g3399
S'and'
p3945
tp3946
(dp3947
S'everything'
p3948
I2
ss(g512
g515
tp3949
(dp3950
S'in'
p3951
I2
ss(S'would'
p3952
S'serve'
p3953
tp3954
(dp3955
S'as'
p3956
I2
ss(S'a'
g1767
tp3957
(dp3958
g304
I2
ss(S'to'
p3959
S'tell'
p3960
tp3961
(dp3962
S'me'
p3963
I2
sS'him'
p3964
I2
ss(g2032
g2035
tp3965
(dp3966
S'his'
p3967
I2
ss(g382
g385
tp3968
(dp3969
g1070
I2
ss(g1469
g2553
tp3970
(dp3971
g2554
I2
ss(g3671
g424
tp3972
(dp3973
S'he'
p3974
I2
ss(S'became'
p3975
S'tedious'
p3976
tp3977
(dp3978
S'and'
p3979
I2
ss(S'to'
g2989
tp3980
(dp3981
S'to'
p3982
I3
ss(S'will'
p3983
S'it'
p3984
tp3985
(dp3986
g3125
I2
ss(S'admitting'
p3987
S'why'
p3988
tp3989
(dp3990
S'i'
I2
ss(S'total'
p3991
g3394
tp3992
(dp3993
g3395
I2
ss(g3237
S'through'
p3994
tp3995
(dp3996
S'provocation'
p3997
I2
ss(g1340
g1343
tp3998
(dp3999
S'to'
p4000
I2
ss(g1818
g1821
tp4001
(dp4002
S'trigger'
p4003
I2
ss(g1772
S'i'
tp4004
(dp4005
g763
I2
sg1177
I2
ss(S'people'
p4006
S'hed'
p4007
tp4008
(dp4009
g1382
I2
sg163
I2
ss(g746
g749
tp4010
(dp4011
S'his'
p4012
I2
ss(g953
g2737
tp4013
(dp4014
S'inkling'
p4015
I2
ss(S'its'
p4016
S'face'
p4017
tp4018
(dp4019
g1609
I2
ss(S'he'
p4020
S'was'
p4021
tp4022
(dp4023
S'taking'
p4024
I2
sS'married'
p4025
I3
sg852
I2
sg2327
I2
ss(S'didnt'
p4026
S'flinch'
p4027
tp4028
(dp4029
S'once'
p4030
I2
ss(g3591
S'skin'
p4031
tp4032
(dp4033
S'ripped'
p4034
I2
ss(g4007
g1382
tp4035
(dp4036
g1383
I2
ss(g2003
S'have'
p4037
tp4038
(dp4039
S'had'
p4040
I2
ss(g630
g633
tp4041
(dp4042
S'have'
p4043
I3
sS'want'
p4044
I6
ss(g1288
S'for'
p4045
tp4046
(dp4047
S'me'
p4048
I2
sg867
I2
sg1344
I2
ss(S'a'
S'hostile'
p4049
tp4050
(dp4051
g2481
I2
ss(S'dont'
p4052
g461
tp4053
(dp4054
S'what'
p4055
I2
ss(g2195
g2198
tp4056
(dp4057
g3521
I3
ss(g2142
S'in'
p4058
tp4059
(dp4060
g3506
I2
ss(S'or'
p4061
g2149
tp4062
(dp4063
g2150
I2
ss(S'me'
p4064
S'this'
p4065
tp4066
(dp4067
g909
I2
ss(g1893
S'why'
p4068
tp4069
(dp4070
S'he'
p4071
I2
ss(S'giving'
p4072
g2031
tp4073
(dp4074
g2032
I2
ss(g2632
g3725
tp4075
(dp4076
g3857
I2
ss(g448
S'black'
p4077
tp4078
(dp4079
S'eyes'
p4080
I2
ss(g2771
g2774
tp4081
(dp4082
S'bolger'
p4083
I2
ss(S'and'
p4084
S'fighting'
p4085
tp4086
(dp4087
S'were'
p4088
I2
ss(g1825
S'of'
p4089
tp4090
(dp4091
S'mine'
p4092
I2
ss(S'of'
p4093
g3033
tp4094
(dp4095
g3945
I2
sg3139
I2
sg3034
I2
ss(S'less'
p4096
S'expressionless'
p4097
tp4098
(dp4099
S'face'
p4100
I2
ss(S'cant'
p4101
g2950
tp4102
(dp4103
g2951
I2
ss(g1423
g1426
tp4104
(dp4105
S'at'
p4106
I2
ss(g561
S'hamburger'
p4107
tp4108
(dp4109
g712
I2
ss(g1713
g1716
tp4110
(dp4111
S'or'
p4112
I2
ss(S'hed'
p4113
g3328
tp4114
(dp4115
g3329
I2
ss(g2946
S'he'
p4116
tp4117
(dp4118
g3875
I2
sS'knew'
p4119
I2
sg3511
I2
sg82
I2
sg2414
I2
sg825
I2
sS'ruled'
p4120
I2
ss(S'i'
g763
tp4121
(dp4122
g764
I2
ss(g1261
g1264
tp4123
(dp4124
S'listening'
p4125
I2
ss(S'barely'
p4126
g133
tp4127
(dp4128
g134
I2
ss(S'twenty'
p4129
S'years'
p4130
tp4131
(dp4132
S'starting'
p4133
I2
ss(S'number'
p4134
S'who'
p4135
tp4136
(dp4137
S'were'
p4138
I2
ss(g856
g3431
tp4139
(dp4140
g3432
I2
ss(g273
g3808
tp4141
(dp4142
S'he'
p4143
I2
ss(S'women'
p4144
S'hanging'
p4145
tp4146
(dp4147
g1559
I2
ss(S'choose'
p4148
S'to'
p4149
tp4150
(dp4151
S'write'
p4152
I2
ss(S'ever'
p4153
S'attracted'
p4154
tp4155
(dp4156
S'to'
p4157
I2
ss(S'power'
p4158
S'of'
p4159
tp4160
(dp4161
g3929
I2
ss(g2859
g2486
tp4162
(dp4163
g2487
I2
ss(S'made'
p4164
S'to'
p4165
tp4166
(dp4167
S'him'
p4168
I2
ss(g1024
g1027
tp4169
(dp4170
g3019
I2
ss(S'be'
p4171
g1839
tp4172
(dp4173
g1840
I2
ss(g3745
g3748
tp4174
(dp4175
g3934
I2
ss(S'a'
g3228
tp4176
(dp4177
S'of'
p4178
I2
ss(g520
S'above'
p4179
tp4180
(dp4181
g1214
I2
ss(g707
S'of'
p4182
tp4183
(dp4184
g3138
I2
ss(g650
g356
tp4185
(dp4186
S'i'
I2
ss(g2986
g3256
tp4187
(dp4188
g36
I2
ss(g2958
g935
tp4189
(dp4190
g936
I2
ss(S'skin'
p4191
g95
tp4192
(dp4193
g96
I2
ss(S'in'
p4194
S'me'
p4195
tp4196
(dp4197
S'and'
p4198
I2
ss(g3994
g3997
tp4199
(dp4200
S'but'
p4201
I2
ss(S'had'
p4202
g3804
tp4203
(dp4204
g1651
I2
ss(g170
g220
tp4205
(dp4206
g221
I2
ss(g487
g490
tp4207
(dp4208
S'his'
p4209
I2
ss(S'but'
p4210
g1794
tp4211
(dp4212
g1795
I2
ss(S'asked'
p4213
S'him'
p4214
tp4215
(dp4216
S'what'
p4217
I3
ss(S'see'
S'a'
tp4218
(dp4219
S'book'
p4220
I2
ss(S'group'
p4221
S'i'
tp4222
(dp4223
S'always'
p4224
I2
ss(S'own'
p4225
S'awareness'
p4226
tp4227
(dp4228
S'and'
p4229
I2
ss(g902
S'that'
p4230
tp4231
(dp4232
S'she'
p4233
I2
ss(g3964
S'about'
p4234
tp4235
(dp4236
S'sleeping'
p4237
I2
ss(g758
S'that'
p4238
tp4239
(dp4240
S'you'
p4241
I2
sg3952
I2
ss(S'force'
g3536
tp4242
(dp4243
S'who'
p4244
I2
ss(g1718
g1721
tp4245
(dp4246
S'they'
p4247
I2
ss(S'my'
g3530
tp4248
(dp4249
S'with'
p4250
I2
ss(g2994
S'what'
p4251
tp4252
(dp4253
S'i'
I2
sS'you'
p4254
I2
ss(g667
g670
tp4255
(dp4256
S'i'
I2
ss(g2619
S'it'
p4257
tp4258
(dp4259
S'had'
p4260
I2
ss(S'him'
p4261
S'in'
p4262
tp4263
(dp4264
S'a'
I3
sS'the'
p4265
I2
sS'his'
p4266
I2
sS'years'
p4267
I2
ss(S'a'
S'union'
p4268
tp4269
(dp4270
S'with'
p4271
I2
ss(g2661
S'mention'
p4272
tp4273
(dp4274
S'he'
p4275
I2
ss(S'over'
p4276
g4129
tp4277
(dp4278
g4130
I2
ss(g4251
g4254
tp4279
(dp4280
S'see'
p4281
I2
sS'want'
p4282
I2
ss(g777
S'she'
p4283
tp4284
(dp4285
S'does'
p4286
I2
ss(g2183
g2056
tp4287
(dp4288
g2057
I2
ss(g1571
g1032
tp4289
(dp4290
g1033
I2
ss(g82
g85
tp4291
(dp4292
g2016
I2
ss(S'been'
p4293
S'the'
p4294
tp4295
(dp4296
S'one'
p4297
I2
ss(S'see'
p4298
S'my'
p4299
tp4300
(dp4301
S'life'
p4302
I2
ss(g1115
g1118
tp4303
(dp4304
g3644
I2
ss(S'the'
p4305
S'words'
p4306
tp4307
(dp4308
S'that'
p4309
I2
ss(S'than'
p4310
g1357
tp4311
(dp4312
g1358
I2
ss(g2180
g2183
tp4313
(dp4314
g2056
I2
ss(g1386
S'no'
p4315
tp4316
(dp4317
S'memory'
p4318
I2
ss(g1747
g1750
tp4319
(dp4320
S'out'
p4321
I2
ss(S'saw'
g280
tp4322
(dp4323
g3681
I2
ss(S'front'
p4324
g680
tp4325
(dp4326
g681
I2
ss(g221
g224
tp4327
(dp4328
S'i'
I2
ss(S'send'
p4329
g3439
tp4330
(dp4331
g3440
I2
ss(S'fist'
p4332
g1646
tp4333
(dp4334
g1647
I2
ss(S'commented'
p4335
S'but'
p4336
tp4337
(dp4338
S'sometime'
p4339
I2
ss(S'office'
g2787
tp4340
(dp4341
S'a'
I2
ss(g2831
g1119
tp4342
(dp4343
g1120
I2
ss(g575
S'me'
p4344
tp4345
(dp4346
S'to'
p4347
I2
ss(S'gave'
p4348
S'him'
p4349
tp4350
(dp4351
S'a'
I2
ss(S'get'
p4352
g2372
tp4353
(dp4354
g2373
I2
ss(g1332
g1265
tp4355
(dp4356
g1266
I2
ss(g1960
S'to'
p4357
tp4358
(dp4359
g4171
I3
ss(g3209
S'his'
p4360
tp4361
(dp4362
S'third'
p4363
I2
ss(S'us'
p4364
g3635
tp4365
(dp4366
S'to'
p4367
I2
ss(S'cases'
p4368
S'what'
p4369
tp4370
(dp4371
S'the'
p4372
I2
ss(g1201
g1204
tp4373
(dp4374
S'along'
p4375
I2
ss(S'known'
p4376
S'about'
p4377
tp4378
(dp4379
S'till'
p4380
I2
ss(S'bolger'
p4381
g2472
tp4382
(dp4383
g2473
I2
ss(g2291
g2294
tp4384
(dp4385
S'in'
p4386
I2
ss(S'the'
p4387
g4134
tp4388
(dp4389
g4135
I2
ss(S'wife'
p4390
S'i'
tp4391
(dp4392
g3304
I2
ss(S'its'
p4393
S'content'
p4394
tp4395
(dp4396
S'to'
p4397
I2
ss(S'cant'
p4398
S'avoid'
p4399
tp4400
(dp4401
S'speaking'
p4402
I2
ss(g2982
g381
tp4403
(dp4404
g382
I2
ss(g2106
g2109
tp4405
(dp4406
g1884
I2
ss(S'and'
p4407
S'confrontations'
p4408
tp4409
(dp4410
g4084
I2
ss(g3867
g3026
tp4411
(dp4412
g620
I2
ss(g3409
g3412
tp4413
(dp4414
g4276
I2
ss(S'forward'
p4415
S'to'
p4416
tp4417
(dp4418
S'your'
p4419
I2
ss(g1912
g1915
tp4420
(dp4421
S'something'
p4422
I2
ss(g2220
g1675
tp4423
(dp4424
S'i'
I2
ss(S'charge'
p4425
S'him'
p4426
tp4427
(dp4428
S'for'
p4429
I2
ss(g4399
g4402
tp4430
(dp4431
S'to'
p4432
I2
ss(g3816
g2607
tp4433
(dp4434
g2608
I2
sS'thought'
p4435
I2
sS'supplemented'
p4436
I2
sg3894
I2
sS'would'
p4437
I2
sg2558
I2
sS'cared'
p4438
I2
sS'wanted'
p4439
I3
sg4335
I2
ss(g4275
S'added'
p4440
tp4441
(dp4442
S'what'
p4443
I2
ss(g858
g861
tp4444
(dp4445
S'did'
p4446
I2
ss(g2286
g877
tp4447
(dp4448
g878
I2
ss(S'it'
p4449
g467
tp4450
(dp4451
g468
I2
ss(S'those'
p4452
S'closest'
p4453
tp4454
(dp4455
S'to'
p4456
I2
ss(S'static'
p4457
g3038
tp4458
(dp4459
g3039
I2
sg3300
I2
ss(S'questions'
p4460
S'were'
p4461
tp4462
(dp4463
S'beyond'
p4464
I2
ss(g1895
g1898
tp4465
(dp4466
g1326
I2
ss(g1798
g3764
tp4467
(dp4468
g3765
I2
ss(S'i'
g2194
tp4469
(dp4470
S'nothing'
p4471
I2
sS'on'
p4472
I2
sg1037
I2
sg2195
I2
ss(S'i'
g1061
tp4473
(dp4474
g1062
I2
ss(g4152
S'in'
p4475
tp4476
(dp4477
S'an'
p4478
I2
ss(S'opinion'
p4479
g2858
tp4480
(dp4481
g2859
I2
ss(S'after'
p4482
S'a'
tp4483
(dp4484
S'few'
p4485
I2
ss(S'more'
p4486
S'or'
p4487
tp4488
(dp4489
g4096
I2
ss(g1817
g47
tp4490
(dp4491
g48
I2
ss(g2546
g2549
tp4492
(dp4493
g4407
I3
sg2322
I2
sS'again'
p4494
I2
sS'i'
I2
sS'that'
p4495
I3
sg2093
I2
sS'he'
p4496
I3
ss(g3512
g3515
tp4497
(dp4498
S'a'
I2
ss(g3748
g3934
tp4499
(dp4500
g3935
I2
ss(S'how'
p4501
S'long'
p4502
tp4503
(dp4504
g3983
I2
ss(g3655
g3220
tp4505
(dp4506
g1834
I2
ss(S'to'
p4507
S'see'
p4508
tp4509
(dp4510
S'a'
I2
sg3156
I2
sg4299
I2
sS'why'
p4511
I2
sg3256
I2
ss(g2529
g2532
tp4512
(dp4513
S'in'
p4514
I2
ss(g376
g379
tp4515
(dp4516
S'with'
p4517
I2
ss(S'he'
p4518
S'rushed'
p4519
tp4520
(dp4521
S'back'
p4522
I2
ss(S'i'
S'were'
p4523
tp4524
(dp4525
S'both'
p4526
I2
ss(g3086
S'him'
p4527
tp4528
(dp4529
S'but'
p4530
I2
ss(g2040
g3393
tp4531
(dp4532
g3690
I2
ss(g2715
g2718
tp4533
(dp4534
S'to'
p4535
I2
ss(g2137
S'with'
p4536
tp4537
(dp4538
S'whos'
p4539
I2
ss(g706
S'door'
p4540
tp4541
(dp4542
g3364
I2
ss(S'be'
p4543
g2089
tp4544
(dp4545
g269
I2
ss(g2388
g425
tp4546
(dp4547
g426
I2
ss(g300
g303
tp4548
(dp4549
g2940
I2
ss(S'he'
p4550
S'gave'
p4551
tp4552
(dp4553
g2422
I2
ss(S'fearing'
p4554
S'which'
p4555
tp4556
(dp4557
S'version'
p4558
I2
ss(S'answers'
p4559
S'to'
p4560
tp4561
(dp4562
S'my'
p4563
I2
ss(S'voices'
p4564
S'returned'
p4565
tp4566
(dp4567
S'the'
p4568
I2
ss(g4030
S'as'
p4569
tp4570
(dp4571
S'i'
I2
ss(g2568
g3632
tp4572
(dp4573
g3716
I2
ss(S'men'
p4574
S'he'
p4575
tp4576
(dp4577
g27
I2
ss(S'is'
p4578
S'up'
p4579
tp4580
(dp4581
S'to'
p4582
I2
ss(g2787
S'a'
tp4583
(dp4584
g650
I2
ss(g2476
g2670
tp4585
(dp4586
g1387
I2
ss(g2234
g1582
tp4587
(dp4588
g1583
I2
ss(S'like'
p4589
g3672
tp4590
(dp4591
g1255
I2
ss(S'read'
p4592
g772
tp4593
(dp4594
g773
I2
ss(g3182
g3186
tp4595
(dp4596
S'be'
p4597
I3
ss(S'in'
p4598
S'our'
p4599
tp4600
(dp4601
S'midsixties'
p4602
I2
ss(S'only'
p4603
S'in'
p4604
tp4605
(dp4606
S'a'
I2
ss(S'repeated'
p4607
S'and'
p4608
tp4609
(dp4610
S'bit'
p4611
I2
ss(g545
g548
tp4612
(dp4613
g3234
I2
ss(S'was'
p4614
S'with'
p4615
tp4616
(dp4617
S'him'
p4618
I2
ss(g3787
g3791
tp4619
(dp4620
g2964
I2
ss(g292
g3752
tp4621
(dp4622
S'do'
p4623
I2
ss(g2766
g2769
tp4624
(dp4625
S'to'
p4626
I2
ss(g698
S'sleeping'
p4627
tp4628
(dp4629
S'with'
p4630
I3
ss(g2817
S'back'
p4631
tp4632
(dp4633
S'to'
p4634
I2
ss(g4429
g1483
tp4635
(dp4636
g1484
I2
ss(S'there'
p4637
S'had'
p4638
tp4639
(dp4640
g2202
I2
ss(g3938
g3273
tp4641
(dp4642
g3274
I2
ss(g1047
g1051
tp4643
(dp4644
S'of'
p4645
I2
ss(g2562
g2565
tp4646
(dp4647
S'been'
p4648
I2
ss(S'hed'
p4649
S'come'
p4650
tp4651
(dp4652
g1298
I2
ss(S'and'
p4653
g4482
tp4654
(dp4655
S'a'
I2
ss(g2495
g2498
tp4656
(dp4657
g4507
I2
ss(S'personally'
p4658
S'you'
p4659
tp4660
(dp4661
g4398
I2
ss(S'when'
p4662
S'you'
p4663
tp4664
(dp4665
S'come'
p4666
I2
sS'look'
p4667
I2
ss(g1242
g1245
tp4668
(dp4669
S'a'
I2
ss(S'her'
p4670
S'purse'
p4671
tp4672
(dp4673
S'while'
p4674
I2
ss(g3085
g3573
tp4675
(dp4676
g3574
I2
ss(g918
g330
tp4677
(dp4678
g331
I2
ss(S'grease'
p4679
g3712
tp4680
(dp4681
g3713
I2
ss(g3229
S'at'
p4682
tp4683
(dp4684
S'his'
p4685
I2
ss(S'names'
p4686
g41
tp4687
(dp4688
S'a'
I2
ss(S'like'
p4689
g1479
tp4690
(dp4691
g1480
I2
ss(g3953
g3956
tp4692
(dp4693
S'a'
I2
ss(S'table'
p4694
g1506
tp4695
(dp4696
g1023
I2
ss(g2710
g2713
tp4697
(dp4698
S'with'
p4699
I2
ss(g3539
g2642
tp4700
(dp4701
g2643
I2
ss(g204
S'he'
p4702
tp4703
(dp4704
S'and'
p4705
I2
ss(S'been'
g3197
tp4706
(dp4707
g3198
I2
ss(S'never'
p4708
S'tired'
p4709
tp4710
(dp4711
S'of'
p4712
I2
ss(g495
g3415
tp4713
(dp4714
g1931
I2
ss(S'a'
g3226
tp4715
(dp4716
S'though'
p4717
I2
ss(g2055
S'of'
p4718
tp4719
(dp4720
S'me'
p4721
I2
sS'my'
p4722
I2
sS'him'
p4723
I2
sg2776
I2
ss(g1520
S'but'
p4724
tp4725
(dp4726
S'i'
I2
sS'hearing'
p4727
I2
ss(S'concealed'
p4728
S'under'
p4729
tp4730
(dp4731
S'their'
p4732
I2
ss(S'i'
S'seldom'
p4733
tp4734
(dp4735
g1799
I2
ss(g572
g3451
tp4736
(dp4737
g1154
I2
sg2975
I2
ss(g1930
g1951
tp4738
(dp4739
S'a'
I2
sS'i'
I2
ss(S'see'
p4740
S'fit'
p4741
tp4742
(dp4743
S'to'
p4744
I2
ss(g4611
S'into'
p4745
tp4746
(dp4747
g3390
I2
ss(g444
g448
tp4748
(dp4749
g4077
I2
ss(g1204
g4375
tp4750
(dp4751
g2384
I2
ss(g2178
S'around'
p4752
tp4753
(dp4754
S'him'
p4755
I2
ss(S'she'
p4756
g685
tp4757
(dp4758
g686
I2
sg4153
I2
ss(S'in'
p4759
g2302
tp4760
(dp4761
g2189
I2
ss(g226
g229
tp4762
(dp4763
g4574
I2
ss(g1737
g1740
tp4764
(dp4765
g3359
I2
ss(g4599
g4602
tp4766
(dp4767
S'and'
p4768
I2
ss(g4440
g4443
tp4769
(dp4770
S'his'
p4771
I2
ss(g191
g194
tp4772
(dp4773
g3626
I2
ss(S'face'
p4774
g2368
tp4775
(dp4776
S'did'
p4777
I2
ss(S'unless'
p4778
S'i'
tp4779
(dp4780
g512
I2
sg3384
I2
sS'made'
p4781
I2
ss(g2776
g2779
tp4782
(dp4783
S'to'
p4784
I2
ss(S'i'
g2341
tp4785
(dp4786
g2342
I2
ss(g2402
g2687
tp4787
(dp4788
S'as'
p4789
I2
ss(g4563
g4460
tp4790
(dp4791
g4461
I2
ss(g189
g3856
tp4792
(dp4793
S'years'
p4794
I2
ss(g1617
S'wonder'
p4795
tp4796
(dp4797
S'if'
p4798
I2
ss(g1308
g1311
tp4799
(dp4800
S'did'
p4801
I2
sS'outwardly'
p4802
I2
ss(g3807
S'in'
p4803
tp4804
(dp4805
g2783
I2
ss(g1660
S'with'
p4806
tp4807
(dp4808
g1284
I2
ss(S'comments'
p4809
S'id'
p4810
tp4811
(dp4812
g4164
I2
ss(S'loudness'
p4813
g2287
tp4814
(dp4815
g76
I2
ss(S'in'
p4816
S'it'
p4817
tp4818
(dp4819
S'to'
p4820
I2
sg4550
I2
ss(g4267
S'past'
p4821
tp4822
(dp4823
S'you'
p4824
I2
ss(g1066
g1069
tp4825
(dp4826
S'designated'
p4827
I2
ss(S'to'
p4828
g2290
tp4829
(dp4830
g2291
I2
ss(S'other'
p4831
g1293
tp4832
(dp4833
g1294
I2
ss(S'a'
g994
tp4834
(dp4835
g995
I2
ss(S'hear'
p4836
g516
tp4837
(dp4838
g517
I3
ss(g1285
g1288
tp4839
(dp4840
g4045
I2
ss(g2748
S'i'
tp4841
(dp4842
g834
I2
ss(S'i'
g3667
tp4843
(dp4844
g1196
I3
sg4037
I2
sg3668
I6
sS'want'
p4845
I3
ss(g3121
g3124
tp4846
(dp4847
S'first'
p4848
I2
ss(S'servers'
p4849
S'often'
p4850
tp4851
(dp4852
g4348
I2
ss(g329
S'into'
p4853
tp4854
(dp4855
g801
I2
ss(g1348
g1472
tp4856
(dp4857
g4016
I2
ss(g2198
g3521
tp4858
(dp4859
g1670
I2
sg3522
I2
sS'she'
p4860
I2
sS'that'
p4861
I2
ss(g1446
g1449
tp4862
(dp4863
S'mission'
p4864
I2
ss(g4336
g4339
tp4865
(dp4866
S'after'
p4867
I2
ss(g4024
S'a'
tp4868
(dp4869
S'nap'
p4870
I2
ss(S'biography'
p4871
S'though'
p4872
tp4873
(dp4874
g3538
I2
ss(g2227
S'he'
p4875
tp4876
(dp4877
S'needed'
p4878
I2
sS'was'
p4879
I2
ss(g134
g137
tp4880
(dp4881
S'us'
p4882
I2
ss(g2532
g4514
tp4883
(dp4884
S'his'
p4885
I2
ss(g3800
S'up'
p4886
tp4887
(dp4888
g1109
I2
ss(g4806
g1284
tp4889
(dp4890
g1285
I2
ss(g805
g4113
tp4891
(dp4892
g3328
I2
ss(g1614
g1617
tp4893
(dp4894
g4795
I2
ss(S'look'
p4895
g4415
tp4896
(dp4897
g4416
I2
ss(g289
g293
tp4898
(dp4899
g1052
I2
ss(S'snap'
p4900
S'his'
p4901
tp4902
(dp4903
S'fingers'
p4904
I2
ss(S'speaks'
p4905
S'to'
p4906
tp4907
(dp4908
S'me'
p4909
I2
ss(S'her'
p4910
g4332
tp4911
(dp4912
g1646
I2
ss(S'and'
p4913
S'what'
p4914
tp4915
(dp4916
S'should'
p4917
I2
ss(S'did'
p4918
S'leave'
p4919
tp4920
(dp4921
g1877
I2
ss(S'conflicts'
p4922
S'that'
p4923
tp4924
(dp4925
g335
I2
ss(g1052
g1055
tp4926
(dp4927
S'in'
p4928
I2
ss(S'i'
g1592
tp4929
(dp4930
g940
I2
sS'and'
p4931
I2
ss(g897
g1335
tp4932
(dp4933
S'a'
I2
ss(g265
g268
tp4934
(dp4935
g3074
I2
ss(S'i'
g3291
tp4936
(dp4937
g3292
I2
ss(S'his'
p4938
g1473
tp4939
(dp4940
g104
I2
ss(g3090
g847
tp4941
(dp4942
g848
I2
ss(g3912
S'bolger'
p4943
tp4944
(dp4945
S'circulated'
p4946
I2
ss(S'main'
p4947
g1492
tp4948
(dp4949
g1493
I2
ss(S'threats'
p4950
S'he'
p4951
tp4952
(dp4953
S'knew'
p4954
I2
ss(g396
g399
tp4955
(dp4956
g2317
I2
ss(g77
g80
tp4957
(dp4958
S'i'
I2
ss(g3814
S'that'
p4959
tp4960
(dp4961
S'he'
p4962
I2
ss(g3198
g3201
tp4963
(dp4964
g2331
I2
ss(g4727
S'none'
p4965
tp4966
(dp4967
S'i'
I2
ss(S'a'
g45
tp4968
(dp4969
g708
I2
ss(S'quantities'
p4970
S'of'
p4971
tp4972
(dp4973
S'beef'
p4974
I2
ss(g2294
g4386
tp4975
(dp4976
S'town'
p4977
I2
ss(S'to'
g2982
tp4978
(dp4979
g381
I2
sS'too'
p4980
I2
ss(S'had'
p4981
g1037
tp4982
(dp4983
g1038
I2
ss(S'him'
p4984
S'or'
p4985
tp4986
(dp4987
S'to'
p4988
I2
ss(g1803
g1086
tp4989
(dp4990
g1087
I2
ss(S'written'
p4991
S'about'
p4992
tp4993
(dp4994
g4984
I2
ss(S'front'
p4995
g2664
tp4996
(dp4997
S'friendship'
p4998
I2
ss(S'hed'
p4999
g3708
tp5000
(dp5001
S'not'
p5002
I2
ss(g1774
S'exhausted'
p5003
tp5004
(dp5005
S'when'
p5006
I2
ss(g3900
g1940
tp5007
(dp5008
g1941
I2
ss(g4436
S'his'
p5009
tp5010
(dp5011
g3172
I2
ss(g3064
g876
tp5012
(dp5013
S'me'
p5014
I2
ss(g2114
g1437
tp5015
(dp5016
g1438
I2
ss(S'contact'
p5017
S'but'
p5018
tp5019
(dp5020
S'he'
p5021
I2
ss(g2522
g3636
tp5022
(dp5023
S'make'
p5024
I2
sg3637
I2
sg4508
I2
ss(S'appeared'
p5025
S'unsure'
p5026
tp5027
(dp5028
S'whether'
p5029
I2
ss(g2403
g2407
tp5030
(dp5031
S'acknowledging'
p5032
I2
ss(g4638
g2202
tp5033
(dp5034
g2203
I2
sS'interested'
p5035
I2
ss(g1456
g2261
tp5036
(dp5037
S'he'
p5038
I2
ss(S'food'
p5039
S'and'
p5040
tp5041
(dp5042
S'passersby'
p5043
I2
ss(S'angered'
p5044
S'by'
p5045
tp5046
(dp5047
S'it'
p5048
I2
ss(g3760
g2398
tp5049
(dp5050
g2399
I2
ss(S'me'
p5051
S'just'
p5052
tp5053
(dp5054
g1860
I2
ss(g4419
S'stretches'
p5055
tp5056
(dp5057
S'of'
p5058
I2
ss(S'would'
p5059
S'surpass'
p5060
tp5061
(dp5062
S'me'
p5063
I2
ss(g4380
S'hed'
p5064
tp5065
(dp5066
g2907
I2
ss(S'and'
p5067
S'having'
p5068
tp5069
(dp5070
g549
I2
ss(g1461
g1464
tp5071
(dp5072
S'better'
p5073
I2
ss(S'accept'
p5074
S'their'
p5075
tp5076
(dp5077
S'salesforce'
p5078
I2
ss(S'couldnt'
p5079
S'trust'
p5080
tp5081
(dp5082
S'him'
p5083
I2
ss(S'found'
p5084
S'it'
p5085
tp5086
(dp5087
S'i'
I2
ss(S'but'
p5088
g1764
tp5089
(dp5090
S'a'
I2
ss(g4266
g1966
tp5091
(dp5092
g1967
I2
ss(g1888
g2210
tp5093
(dp5094
g3372
I2
sg1577
I3
sg2211
I2
ss(g4980
g3737
tp5095
(dp5096
g3738
I2
ss(g3483
g3558
tp5097
(dp5098
S'fingers'
p5099
I2
ss(S'as'
p5100
S'much'
p5101
tp5102
(dp5103
S'and'
p5104
I2
sg583
I2
ss(S'with'
p5105
S'ice'
p5106
tp5107
(dp5108
g4816
I2
ss(S'a'
g2657
tp5109
(dp5110
g2658
I2
ss(g2854
g2857
tp5111
(dp5112
S'seem'
p5113
I2
ss(g3652
S'me'
p5114
tp5115
(dp5116
g2143
I2
ss(S'voice'
p5117
g522
tp5118
(dp5119
S'my'
p5120
I2
ss(g3119
g3120
tp5121
(dp5122
g3121
I2
ss(S'the'
p5123
g2162
tp5124
(dp5125
g2163
I2
ss(g241
g244
tp5126
(dp5127
S'his'
p5128
I2
ss(g3006
g2817
tp5129
(dp5130
g4631
I2
ss(g2988
g2133
tp5131
(dp5132
g2134
I2
ss(S'not'
p5133
g339
tp5134
(dp5135
S'the'
p5136
I2
ss(S'question'
p5137
S'would'
p5138
tp5139
(dp5140
g2070
I2
ss(g1017
S'with'
p5141
tp5142
(dp5143
S'his'
p5144
I2
ss(S'narratives'
p5145
S'sexual'
p5146
tp5147
(dp5148
g972
I2
ss(S'thought'
p5149
g792
tp5150
(dp5151
g793
I2
ss(S'whatever'
p5152
S'came'
p5153
tp5154
(dp5155
S'into'
p5156
I2
ss(g1540
S'including'
p5157
tp5158
(dp5159
S'his'
p5160
I2
ss(S'be'
p5161
g2447
tp5162
(dp5163
g2448
I2
ss(g1671
g1674
tp5164
(dp5165
S'that'
p5166
I2
ss(g1330
g3893
tp5167
(dp5168
S'countless'
p5169
I2
ss(g3451
g2975
tp5170
(dp5171
g2976
I2
ss(S'the'
S'memory'
p5172
tp5173
(dp5174
S'of'
p5175
I2
ss(S'accept'
p5176
S'the'
p5177
tp5178
(dp5179
g2837
I2
ss(S'a'
S'mistake'
p5180
tp5181
(dp5182
g245
I2
ss(S'the'
p5183
g3532
tp5184
(dp5185
g2959
I9
ss(g3261
g3264
tp5186
(dp5187
g1260
I2
ss(g1108
S'pulled'
p5188
tp5189
(dp5190
S'the'
p5191
I2
ss(S'and'
p5192
S'have'
p5193
tp5194
(dp5195
S'a'
I2
ss(g2209
g1512
tp5196
(dp5197
g1513
I2
ss(S'that'
p5198
g671
tp5199
(dp5200
S'a'
I2
ss(S'straight'
p5201
S'into'
p5202
tp5203
(dp5204
S'his'
p5205
I2
ss(S'behind'
p5206
S'me'
p5207
tp5208
(dp5209
S'but'
p5210
I2
ss(g1383
g1386
tp5211
(dp5212
g4315
I2
ss(g2790
g2793
tp5213
(dp5214
S'his'
p5215
I2
ss(g4233
S'may'
p5216
tp5217
(dp5218
S'have'
p5219
I2
ss(g2836
S'a'
tp5220
(dp5221
g2636
I2
ss(g1057
g1060
tp5222
(dp5223
S'of'
p5224
I2
ss(g2544
g1008
tp5225
(dp5226
g1009
I2
ss(S'be'
g862
tp5227
(dp5228
g863
I2
ss(S'returned'
p5229
S'his'
p5230
tp5231
(dp5232
g2436
I2
ss(g517
g520
tp5233
(dp5234
g4179
I2
ss(S'trouble'
p5235
S'her'
p5236
tp5237
(dp5238
S'with'
p5239
I2
ss(S'to'
g2000
tp5240
(dp5241
S'i'
I3
ss(g2190
g1980
tp5242
(dp5243
g1981
I2
ss(g2109
g1884
tp5244
(dp5245
g1885
I2
ss(S'position'
p5246
g5059
tp5247
(dp5248
g5060
I2
ss(g2322
g2325
tp5249
(dp5250
S'his'
p5251
I2
ss(g2730
g3502
tp5252
(dp5253
g3503
I2
ss(g2446
S'that'
p5254
tp5255
(dp5256
g1339
I2
ss(g1898
g1326
tp5257
(dp5258
g1327
I2
ss(S'the'
p5259
g4849
tp5260
(dp5261
g4850
I2
ss(g181
g184
tp5262
(dp5263
S'limiting'
p5264
I2
ss(g4281
g4662
tp5265
(dp5266
g4663
I2
ss(S'for'
p5267
S'him'
p5268
tp5269
(dp5270
S'he'
p5271
I2
ss(g4517
g2613
tp5272
(dp5273
S'far'
p5274
I2
ss(g2980
g4861
tp5275
(dp5276
g1755
I2
ss(g2368
g4777
tp5277
(dp5278
S'i'
I3
ss(g3690
g3693
tp5279
(dp5280
S'he'
p5281
I2
ss(g614
S'and'
p5282
tp5283
(dp5284
g4999
I2
ss(g146
g2467
tp5285
(dp5286
g2468
I2
ss(g3159
S'in'
p5287
tp5288
(dp5289
S'his'
p5290
I2
ss(S'i'
g1772
tp5291
(dp5292
S'i'
I2
sS'to'
p5293
I2
sg1043
I2
sS'waiting'
p5294
I2
sg5201
I2
ss(S'me'
p5295
S'i'
tp5296
(dp5297
g100
I2
sS'told'
p5298
I2
ss(g2658
g2661
tp5299
(dp5300
g4272
I2
sS'drive'
p5301
I2
ss(g1907
g1910
tp5302
(dp5303
g3796
I2
ss(g2924
S'the'
p5304
tp5305
(dp5306
S'floor'
p5307
I2
ss(g1496
S'as'
p5308
tp5309
(dp5310
S'a'
I3
sg582
I2
sg1873
I2
sS'if'
p5311
I2
ss(S'the'
p5312
g707
tp5313
(dp5314
g4182
I2
ss(g2881
S'him'
p5315
tp5316
(dp5317
S'and'
p5318
I2
sS'bolger'
p5319
I2
ss(g1628
g1631
tp5320
(dp5321
S'face'
p5322
I2
ss(S'bit'
p5323
S'that'
p5324
tp5325
(dp5326
S'i'
I2
ss(S'off'
p5327
S'again'
p5328
tp5329
(dp5330
S'he'
p5331
I2
ss(g2774
g4083
tp5332
(dp5333
S'said'
p5334
I2
ss(S'a'
g3153
tp5335
(dp5336
S'bed'
p5337
I2
ss(S'absorb'
p5338
S'his'
p5339
tp5340
(dp5341
g1916
I2
ss(g2795
g2798
tp5342
(dp5343
g2426
I2
ss(S'i'
S'do'
p5344
tp5345
(dp5346
g3068
I2
ss(g3051
g3054
tp5347
(dp5348
g3903
I2
ss(S'as'
p5349
S'likely'
p5350
tp5351
(dp5352
S'to'
p5353
I2
ss(S'i'
g2480
tp5354
(dp5355
g1890
I2
sS'at'
p5356
I2
ss(g708
g711
tp5357
(dp5358
S'if'
p5359
I2
ss(g4241
S'wrote'
p5360
tp5361
(dp5362
S'about'
p5363
I2
ss(g4217
S'had'
p5364
tp5365
(dp5366
g1217
I2
ss(S'i'
g3190
tp5367
(dp5368
g3191
I2
ss(S'referred'
p5369
g4828
tp5370
(dp5371
g2290
I2
ss(g2951
g2821
tp5372
(dp5373
g2822
I2
ss(S'i'
g2030
tp5374
(dp5375
g3466
I2
ss(g2490
S'between'
p5376
tp5377
(dp5378
S'us'
p5379
I2
ss(S'meet'
p5380
S'their'
p5381
tp5382
(dp5383
S'look'
p5384
I2
ss(S'himself'
p5385
S'be'
p5386
tp5387
(dp5388
g3321
I2
ss(g1316
g2818
tp5389
(dp5390
g1995
I2
ss(g51
S'all'
p5391
tp5392
(dp5393
S'the'
p5394
I2
ss(g3448
S'talking'
p5395
tp5396
(dp5397
S'especially'
p5398
I2
ss(g4065
g909
tp5399
(dp5400
S'i'
I2
ss(S'and'
p5401
S'i'
tp5402
(dp5403
g456
I2
sS'was'
p5404
I2
sg3694
I2
sg984
I2
sg1524
I2
sS'thought'
p5405
I2
sg2920
I2
sS'want'
p5406
I2
sg4523
I2
sg1195
I2
sg4213
I2
sg1889
I2
ss(S'he'
g4120
tp5407
(dp5408
g225
I2
ss(g1812
g1921
tp5409
(dp5410
g903
I2
ss(S'situation'
p5411
S'called'
p5412
tp5413
(dp5414
g1541
I2
ss(S'software'
p5415
S'or'
p5416
tp5417
(dp5418
S'if'
p5419
I2
ss(g1259
g2954
tp5420
(dp5421
g2499
I2
sg2955
I2
ss(g1853
g2782
tp5422
(dp5423
S'think'
p5424
I2
ss(g3935
g3938
tp5425
(dp5426
g3273
I2
ss(g793
g796
tp5427
(dp5428
g2215
I2
ss(g4100
S'and'
p5429
tp5430
(dp5431
S'i'
I2
ss(S'enhance'
p5432
g502
tp5433
(dp5434
g503
I2
ss(S'sit'
p5435
S'at'
p5436
tp5437
(dp5438
S'his'
p5439
I2
ss(S'hed'
p5440
g3706
tp5441
(dp5442
S'at'
p5443
I2
ss(g5230
g2436
tp5444
(dp5445
g2437
I2
ss(S'wanted'
p5446
S'them'
p5447
tp5448
(dp5449
S'to'
p5450
I2
ss(g3757
g3760
tp5451
(dp5452
g2398
I2
ss(g1537
g1540
tp5453
(dp5454
g5157
I2
ss(g2737
g4015
tp5455
(dp5456
g3210
I2
ss(g216
g219
tp5457
(dp5458
g403
I2
ss(S'be'
p5459
g3082
tp5460
(dp5461
g540
I2
ss(g3608
g1368
tp5462
(dp5463
g1369
I2
ss(S'glass'
p5464
g3887
tp5465
(dp5466
g1924
I2
ss(g96
g99
tp5467
(dp5468
S'he'
p5469
I2
ss(S'believe'
p5470
S'her'
p5471
tp5472
(dp5473
g819
I2
ss(g2078
S'a'
tp5474
(dp5475
g1701
I2
ss(S'table'
p5476
g5192
tp5477
(dp5478
S'i'
I2
sS'ordered'
p5479
I2
sg5193
I2
ss(g4154
g4157
tp5480
(dp5481
S'me'
p5482
I2
ss(S'up'
p5483
S'married'
p5484
tp5485
(dp5486
S'again'
p5487
I2
ss(g1391
S'to'
p5488
tp5489
(dp5490
S'his'
p5491
I2
ss(S'coats'
p5492
S'and'
p5493
tp5494
(dp5495
g722
I2
ss(g4988
g2652
tp5496
(dp5497
g2653
I2
ss(g2635
S'nonstop'
p5498
tp5499
(dp5500
S'and'
p5501
I2
ss(g3419
g3205
tp5502
(dp5503
g3206
I2
ss(S'can'
p5504
g3673
tp5505
(dp5506
g3674
I2
ss(g1967
g1970
tp5507
(dp5508
g2036
I2
ss(g3348
g3351
tp5509
(dp5510
S'a'
I2
ss(S''
g3104
tp5511
(dp5512
S'to'
p5513
I2
sg3105
I2
ss(g778
g4947
tp5514
(dp5515
g1492
I2
ss(g3369
S'a'
tp5516
(dp5517
g2509
I2
ss(S'nature'
g2853
tp5518
(dp5519
g2854
I2
ss(g86
g89
tp5520
(dp5521
g3597
I2
ss(g3797
g3800
tp5522
(dp5523
g4886
I2
ss(g4021
g4025
tp5524
(dp5525
g3863
I4
ss(g3681
g3684
tp5526
(dp5527
g1789
I2
ss(g1740
g3359
tp5528
(dp5529
g3360
I2
ss(S'look'
p5530
S'me'
p5531
tp5532
(dp5533
S'in'
p5534
I2
ss(g4824
S'confirm'
p5535
tp5536
(dp5537
g462
I2
ss(g3435
S'number'
p5538
tp5539
(dp5540
S'of'
p5541
I2
ss(g2846
S'and'
p5542
tp5543
(dp5544
S'burned'
p5545
I2
ss(S'bolger'
p5546
S'with'
p5547
tp5548
(dp5549
g2514
I2
ss(S'picture'
p5550
S'himself'
p5551
tp5552
(dp5553
S'living'
p5554
I2
ss(g3629
g4457
tp5555
(dp5556
g3038
I3
ss(S'bolger'
p5557
S'did'
p5558
tp5559
(dp5560
S'not'
p5561
I2
ss(S'to'
p5562
S'legions'
p5563
tp5564
(dp5565
S'of'
p5566
I2
ss(g422
g5323
tp5567
(dp5568
g5324
I2
ss(S'said'
p5569
g4496
tp5570
(dp5571
g577
I2
sg320
I2
ss(g3417
g4381
tp5572
(dp5573
g2472
I2
ss(g596
g3702
tp5574
(dp5575
g3703
I2
ss(g780
S'if'
p5576
tp5577
(dp5578
S'i'
I2
sg1911
I2
sS'he'
p5579
I2
ss(S'he'
p5580
g1392
tp5581
(dp5582
g717
I2
ss(g3730
S'long'
p5583
tp5584
(dp5585
S'before'
p5586
I2
ss(g4025
g3863
tp5587
(dp5588
g3543
I2
sS'my'
p5589
I2
sg2000
I2
ss(g16
S'id'
p5590
tp5591
(dp5592
g138
I2
sg750
I2
ss(S'to'
p5593
S'sell'
p5594
tp5595
(dp5596
g3337
I2
sS'an'
p5597
I2
ss(S'out'
p5598
g4305
tp5599
(dp5600
g4306
I2
ss(g4135
g4138
tp5601
(dp5602
S'customers'
p5603
I2
ss(S'pondered'
p5604
S'a'
tp5605
(dp5606
S'reasonable'
p5607
I2
ss(g2709
S'out'
p5608
tp5609
(dp5610
S'of'
p5611
I2
ss(g496
g3085
tp5612
(dp5613
g3573
I2
ss(S'would'
p5614
S'keep'
p5615
tp5616
(dp5617
g325
I2
ss(g1965
S'didnt'
p5618
tp5619
(dp5620
g3648
I2
sg4589
I2
sS'let'
p5621
I2
sS'want'
p5622
I2
sg321
I2
sS'care'
p5623
I2
ss(S'them'
p5624
g1363
tp5625
(dp5626
g1364
I2
ss(g1171
g3015
tp5627
(dp5628
g921
I2
ss(S'read'
p5629
S'it'
p5630
tp5631
(dp5632
S'as'
p5633
I2
ss(g605
S'his'
p5634
tp5635
(dp5636
g2409
I2
ss(g2016
g2019
tp5637
(dp5638
S'computer'
p5639
I2
ss(g3432
g3435
tp5640
(dp5641
S'of'
p5642
I2
sS'woman'
p5643
I2
sg5538
I2
ss(g1229
g1232
tp5644
(dp5645
S'wife'
p5646
I2
ss(S'whenever'
p5647
S'she'
p5648
tp5649
(dp5650
g3559
I2
ss(S'she'
p5651
S'started'
p5652
tp5653
(dp5654
g653
I2
ss(g234
g4202
tp5655
(dp5656
g3804
I2
ss(g3112
S'eye'
p5657
tp5658
(dp5659
S'and'
p5660
I2
ss(g4003
S'a'
tp5661
(dp5662
S'confession'
p5663
I2
ss(g568
g575
tp5664
(dp5665
g4344
I2
ss(g3644
g3647
tp5666
(dp5667
g2223
I2
ss(g4878
g3991
tp5668
(dp5669
g3394
I2
ss(S'the'
p5670
S'weight'
p5671
tp5672
(dp5673
S'of'
p5674
I2
ss(S'the'
p5675
g2990
tp5676
(dp5677
g2991
I2
ss(S'monument'
p5678
S'to'
p5679
tp5680
(dp5681
S'his'
p5682
I2
ss(g876
g5014
tp5683
(dp5684
g1872
I2
ss(g364
S'to'
p5685
tp5686
(dp5687
g2427
I2
sg1465
I2
ss(S'violence'
p5688
g4061
tp5689
(dp5690
g2149
I2
ss(g3375
g926
tp5691
(dp5692
g927
I2
ss(g3765
g418
tp5693
(dp5694
g419
I2
ss(S'about'
p5695
S'himself'
p5696
tp5697
(dp5698
S'to'
p5699
I2
ss(g2995
g2998
tp5700
(dp5701
g1953
I2
ss(g1000
g1003
tp5702
(dp5703
g3566
I2
ss(S'he'
p5704
g576
tp5705
(dp5706
g2128
I2
ss(S'his'
p5707
S'cafbar'
p5708
tp5709
(dp5710
g3497
I2
ss(S'read'
S'a'
tp5711
(dp5712
S'book'
p5713
I2
ss(g3782
g3785
tp5714
(dp5715
g5432
I2
ss(S'why'
p5716
S'i'
tp5717
(dp5718
S'didnt'
p5719
I2
sS'think'
p5720
I2
sS'listened'
p5721
I2
ss(g3415
g1931
tp5722
(dp5723
g1932
I2
ss(S'a'
g2425
tp5724
(dp5725
g2265
I2
ss(g3365
g3369
tp5726
(dp5727
S'a'
I2
sS'his'
p5728
I2
sS'that'
p5729
I2
sg2710
I2
sg1627
I2
sg167
I2
sS'with'
p5730
I2
ss(g5623
S'what'
p5731
tp5732
(dp5733
g3734
I2
ss(g1619
g1336
tp5734
(dp5735
g967
I2
ss(S'a'
g46
tp5736
(dp5737
g1567
I2
ss(S'sat'
p5738
S'with'
p5739
tp5740
(dp5741
S'bolger'
p5742
I2
ss(S'be'
p5743
g5044
tp5744
(dp5745
g5045
I2
ss(S'he'
p5746
g4335
tp5747
(dp5748
g4336
I2
ss(g52
g55
tp5749
(dp5750
S'an'
p5751
I2
ss(g11
S'in'
p5752
tp5753
(dp5754
S'a'
I2
ss(g846
g2066
tp5755
(dp5756
g2067
I2
ss(S'who'
p5757
g2336
tp5758
(dp5759
g2337
I2
ss(g321
g324
tp5760
(dp5761
g918
I2
ss(S'i'
g2915
tp5762
(dp5763
S'bolger'
p5764
I2
sS'her'
p5765
I2
ss(g4339
g4867
tp5766
(dp5767
g3160
I2
ss(g4508
g4511
tp5768
(dp5769
S'she'
p5770
I2
ss(g3252
g3255
tp5771
(dp5772
S'he'
p5773
I2
ss(S'a'
g3149
tp5774
(dp5775
g1768
I2
ss(g3290
g250
tp5776
(dp5777
g251
I2
ss(g1210
g1213
tp5778
(dp5779
g4607
I2
sS'said'
p5780
I3
sS'would'
p5781
I2
sg4551
I2
ss(g3025
S'through'
p5782
tp5783
(dp5784
S'everything'
p5785
I2
ss(g3234
g3237
tp5786
(dp5787
g3994
I2
ss(S'a'
S'challenge'
p5788
tp5789
(dp5790
S'to'
p5791
I2
ss(S'the'
p5792
g3890
tp5793
(dp5794
S'repetition'
p5795
I2
ss(g3738
g2600
tp5796
(dp5797
g2601
I2
ss(g5337
S'for'
p5798
tp5799
(dp5800
g2477
I2
ss(g4514
g4885
tp5801
(dp5802
g1641
I2
sg528
I2
sg2784
I3
sg1473
I2
sS'cafs'
p5803
I2
sg1008
I2
sg5464
I2
sg1966
I2
sS'relentless'
p5804
I2
ss(g1783
g3204
tp5805
(dp5806
S'with'
p5807
I2
ss(g3303
g3803
tp5808
(dp5809
g658
I2
ss(g4523
g4526
tp5810
(dp5811
g4598
I2
ss(S'belief'
p5812
S'in'
p5813
tp5814
(dp5815
g4938
I2
ss(S'his'
p5816
g5812
tp5817
(dp5818
g5813
I2
ss(S'a'
S'stand'
p5819
tp5820
(dp5821
S'to'
p5822
I2
ss(S'he'
p5823
S'bellowed'
p5824
tp5825
(dp5826
S'and'
p5827
I2
ss(g1464
g5073
tp5828
(dp5829
S'if'
p5830
I2
ss(g1513
g1517
tp5831
(dp5832
S'never'
p5833
I2
sg4836
I2
ss(g1725
S'bolger'
p5834
tp5835
(dp5836
S'liked'
p5837
I2
ss(g2139
g2142
tp5838
(dp5839
g4058
I2
ss(S'did'
p5840
g3614
tp5841
(dp5842
g3615
I2
ss(g5660
S'drink'
p5843
tp5844
(dp5845
S'with'
p5846
I2
ss(S'to'
p5847
S'you'
p5848
tp5849
(dp5850
g2523
I2
ss(g4268
g4271
tp5851
(dp5852
S'a'
I2
ss(g3640
S'him'
p5853
tp5854
(dp5855
g1013
I2
ss(g1466
g1469
tp5856
(dp5857
g2553
I2
ss(g1848
g1451
tp5858
(dp5859
g3230
I3
ss(S'he'
p5860
S'enjoyed'
p5861
tp5862
(dp5863
S'what'
p5864
I2
ss(g3703
g3709
tp5865
(dp5866
S'in'
p5867
I2
ss(g2052
g2055
tp5868
(dp5869
g4718
I2
ss(g645
g648
tp5870
(dp5871
g2569
I2
ss(g2987
g5716
tp5872
(dp5873
S'i'
I2
ss(S'biography'
p5874
g1906
tp5875
(dp5876
g1907
I2
ss(g2129
g2132
tp5877
(dp5878
g2279
I2
ss(g251
g254
tp5879
(dp5880
g5847
I2
ss(S'a'
g745
tp5881
(dp5882
g746
I2
ss(S'stay'
p5883
S'with'
p5884
tp5885
(dp5886
S'bolger'
p5887
I2
ss(S'at'
p5888
S'a'
tp5889
(dp5890
g1398
I2
sg157
I2
ss(g4092
S'but'
p5891
tp5892
(dp5893
g310
I2
ss(g4416
g4419
tp5894
(dp5895
g5055
I2
ss(g1517
g4836
tp5896
(dp5897
g516
I2
ss(g654
g657
tp5898
(dp5899
g2616
I2
ss(S'of'
p5900
S'months'
p5901
tp5902
(dp5903
S'at'
p5904
I2
ss(g5861
g5864
tp5905
(dp5906
S'he'
p5907
I2
ss(S'almost'
p5908
g5123
tp5909
(dp5910
g2162
I2
ss(g1275
g1278
tp5911
(dp5912
S'members'
p5913
I2
ss(S'believe'
p5914
g5295
tp5915
(dp5916
S'i'
I2
ss(g1224
g1227
tp5917
(dp5918
g4756
I2
sS'in'
p5919
I2
ss(g4226
g4229
tp5920
(dp5921
g3821
I2
ss(g3460
S'that'
p5922
tp5923
(dp5924
S'i'
I2
ss(g5307
S'when'
p5925
tp5926
(dp5927
S'i'
I2
ss(g2485
S'spoke'
p5928
tp5929
(dp5930
S'to'
p5931
I2
ss(g525
g2
tp5932
(dp5933
g3
I2
ss(g1264
g4125
tp5934
(dp5935
S'to'
p5936
I2
ss(g3181
S'biography'
p5937
tp5938
(dp5939
g1270
I2
ss(g4618
g2814
tp5940
(dp5941
S'i'
I2
ss(S'skydiving'
p5942
g2042
tp5943
(dp5944
g190
I2
ss(g31
g5088
tp5945
(dp5946
g1764
I2
ss(g3113
g528
tp5947
(dp5948
g2874
I2
sg529
I2
ss(S'left'
p5949
S'out'
p5950
tp5951
(dp5952
g5557
I2
ss(g4372
g5411
tp5953
(dp5954
g5412
I2
ss(g4781
g3781
tp5955
(dp5956
g3782
I2
ss(S'to'
p5957
g4592
tp5958
(dp5959
g3826
I2
sS'a'
I2
sg5630
I2
sg772
I2
sg2676
I2
ss(g4299
g4302
tp5960
(dp5961
S'the'
p5962
I2
ss(S'he'
g577
tp5963
(dp5964
g578
I2
ss(S'and'
g3376
tp5965
(dp5966
g3377
I3
sS'he'
p5967
I2
ss(S'to'
p5968
S'a'
tp5969
(dp5970
S'doorway'
p5971
I2
sg5819
I2
ss(g606
g609
tp5972
(dp5973
S'me'
p5974
I2
ss(g4795
g4798
tp5975
(dp5976
S'i'
I2
ss(S'need'
p5977
S'for'
p5978
tp5979
(dp5980
g597
I2
ss(g2506
g3083
tp5981
(dp5982
g5860
I2
ss(S'feel'
p5983
g3416
tp5984
(dp5985
g2452
I2
ss(S'my'
p5986
S'visits'
p5987
tp5988
(dp5989
S'and'
p5990
I2
ss(S'was'
p5991
S'a'
tp5992
(dp5993
S'bad'
p5994
I2
ss(g4732
g5492
tp5995
(dp5996
g5493
I2
ss(g4946
S'at'
p5997
tp5998
(dp5999
S'the'
p6000
I2
ss(g533
g536
tp6001
(dp6002
S'of'
p6003
I2
ss(g4037
g4040
tp6004
(dp6005
g3749
I2
ss(S'a'
S'long'
p6006
tp6007
(dp6008
g264
I2
sg3418
I2
ss(g4494
S'isnt'
p6009
tp6010
(dp6011
S'it'
p6012
I2
ss(g1596
g1599
tp6013
(dp6014
S'hed'
p6015
I2
ss(g5311
S'his'
p6016
tp6017
(dp6018
g2115
I2
ss(g3171
g5259
tp6019
(dp6020
g4849
I2
ss(g2317
g2320
tp6021
(dp6022
S'you'
p6023
I2
ss(g3657
g3660
tp6024
(dp6025
g5100
I2
ss(g3856
g4794
tp6026
(dp6027
S'and'
p6028
I2
ss(g1012
g1960
tp6029
(dp6030
g4357
I2
ss(g5064
g2907
tp6031
(dp6032
g2908
I2
ss(g3156
g3159
tp6033
(dp6034
g5287
I2
ss(g1157
g2832
tp6035
(dp6036
g2833
I2
ss(g4724
S'i'
tp6037
(dp6038
S'hadnt'
p6039
I2
sg1081
I2
sS'had'
p6040
I2
sg2023
I2
ss(S'a'
g146
tp6041
(dp6042
g2467
I2
ss(g119
g122
tp6043
(dp6044
g1804
I2
ss(g2229
g2232
tp6045
(dp6046
g3165
I2
ss(g1408
g1411
tp6047
(dp6048
g2727
I2
ss(S'and'
p6049
S'creep'
p6050
tp6051
(dp6052
S'out'
p6053
I2
ss(g3893
g5169
tp6054
(dp6055
S'hours'
p6056
I2
ss(S'my'
p6057
S'way'
p6058
tp6059
(dp6060
S'i'
I2
ss(g6039
g5084
tp6061
(dp6062
g5085
I2
ss(g573
S'they'
p6063
tp6064
(dp6065
S'respected'
p6066
I2
ss(g374
g5942
tp6067
(dp6068
g2042
I2
ss(S'italics'
p6069
g66
tp6070
(dp6071
g67
I2
ss(g4394
g4397
tp6072
(dp6073
S'subside'
p6074
I2
ss(S'drink'
p6075
g4653
tp6076
(dp6077
g4482
I2
ss(g2027
g523
tp6078
(dp6079
S'when'
p6080
I2
ss(g4502
g3983
tp6081
(dp6082
g3984
I2
ss(g5026
g5029
tp6083
(dp6084
S'to'
p6085
I2
ss(g1604
g3655
tp6086
(dp6087
g3220
I2
sS'was'
p6088
I2
ss(S'i'
g913
tp6089
(dp6090
g914
I2
ss(g4349
S'a'
tp6091
(dp6092
g4049
I2
ss(S'romance'
p6093
S'with'
p6094
tp6095
(dp6096
S'himself'
p6097
I2
ss(g1074
g1077
tp6098
(dp6099
S'all'
p6100
I2
ss(g702
g5670
tp6101
(dp6102
g5671
I2
ss(S'and'
p6103
g5530
tp6104
(dp6105
g5531
I2
ss(g2983
S'in'
p6106
tp6107
(dp6108
S'it'
p6109
I2
ss(g2153
g2179
tp6110
(dp6111
g2180
I2
ss(g2253
g2806
tp6112
(dp6113
g4352
I2
ss(g2545
g1108
tp6114
(dp6115
g5188
I2
ss(g2278
S'bad'
p6116
tp6117
(dp6118
g666
I2
ss(g1353
S'his'
p6119
tp6120
(dp6121
S'enemies'
p6122
I2
ss(S'initiate'
p6123
g5017
tp6124
(dp6125
g5018
I2
ss(g3443
g4501
tp6126
(dp6127
g4502
I2
ss(g5739
g5742
tp6128
(dp6129
S'and'
p6130
I3
sS'at'
p6131
I2
sg3120
I2
ss(g1900
g1903
tp6132
(dp6133
g274
I2
ss(S'confrontation'
p6134
S'with'
p6135
tp6136
(dp6137
S'him'
p6138
I2
ss(g2119
g5598
tp6139
(dp6140
g4305
I2
ss(g80
S'i'
tp6141
(dp6142
g4733
I2
ss(g6074
S'in'
p6143
tp6144
(dp6145
S'my'
p6146
I2
ss(S'reach'
p6147
S'i'
tp6148
(dp6149
S'wanted'
p6150
I2
ss(g5773
g1894
tp6151
(dp6152
g1895
I2
ss(S'parts'
p6153
S'of'
p6154
tp6155
(dp6156
S'their'
p6157
I2
ss(g5770
S'couldnt'
p6158
tp6159
(dp6160
g1900
I2
sg5176
I2
ss(g838
g3777
tp6161
(dp6162
g3778
I2
ss(g2656
S's'
tp6163
(dp6164
g1605
I2
ss(g3389
S'you'
p6165
tp6166
(dp6167
g4101
I2
ss(g5904
g5707
tp6168
(dp6169
g1457
I2
sS'throat'
p6170
I2
sg626
I3
sg5476
I3
sg5708
I2
ss(g541
g544
tp6171
(dp6172
S'dont'
p6173
I2
ss(S'a'
S'thousand'
p6174
tp6175
(dp6176
S'women'
p6177
I2
ss(S'about'
p6178
S'what'
p6179
tp6180
(dp6181
S'ill'
p6182
I2
sS'he'
p6183
I2
ss(g1120
g1123
tp6184
(dp6185
S'though'
p6186
I2
ss(g3868
S'and'
p6187
tp6188
(dp6189
S'he'
p6190
I2
ss(S'voice'
g491
tp6191
(dp6192
g492
I2
sg5792
I2
sg1760
I2
sS'he'
p6193
I2
ss(g60
g2305
tp6194
(dp6195
g2306
I2
ss(S'think'
p6196
g532
tp6197
(dp6198
g533
I2
sg4689
I2
ss(g1487
S'couldnt'
p6199
tp6200
(dp6201
g3587
I2
ss(g5501
g4126
tp6202
(dp6203
g133
I2
ss(g1274
g2765
tp6204
(dp6205
g2766
I2
ss(g3588
g3591
tp6206
(dp6207
g4031
I2
ss(g5264
g1746
tp6208
(dp6209
g1747
I2
ss(g4741
g4744
tp6210
(dp6211
g4425
I2
ss(g995
g998
tp6212
(dp6213
S'i'
I2
ss(g4478
g3400
tp6214
(dp6215
g3401
I2
ss(S'not'
p6216
g343
tp6217
(dp6218
g736
I2
ss(g3795
S'couple'
p6219
tp6220
(dp6221
S'or'
p6222
I2
ss(S'her'
p6223
S'as'
p6224
tp6225
(dp6226
S'a'
I2
ss(g2093
g1741
tp6227
(dp6228
g1742
I2
ss(g3722
g4559
tp6229
(dp6230
g4560
I2
ss(g5907
g5369
tp6231
(dp6232
g4828
I2
ss(S'drinking'
p6233
g2740
tp6234
(dp6235
g2741
I2
ss(S'a'
g2219
tp6236
(dp6237
g2220
I2
ss(g3719
g3722
tp6238
(dp6239
g4559
I2
ss(g3626
g3629
tp6240
(dp6241
g5657
I2
sS'sales'
p6242
I5
sg451
I3
sg241
I2
sS'book'
p6243
I2
sg4457
I3
sg4324
I2
sS'exact'
p6244
I2
ss(g1014
g1017
tp6245
(dp6246
g5141
I2
ss(g2857
g5113
tp6247
(dp6248
g3656
I2
ss(g5652
g653
tp6249
(dp6250
g654
I2
ss(g1159
g1162
tp6251
(dp6252
g3090
I2
ss(g3191
g3194
tp6253
(dp6254
S'taste'
p6255
I2
ss(g5950
g5557
tp6256
(dp6257
g5558
I2
ss(g1103
S'a'
tp6258
(dp6259
g3756
I2
ss(g5405
S'he'
p6260
tp6261
(dp6262
S'thought'
p6263
I2
sS'seemed'
p6264
I2
ss(g2847
g6178
tp6265
(dp6266
g6179
I2
ss(S'to'
g2983
tp6267
(dp6268
g6106
I2
ss(g5120
g294
tp6269
(dp6270
g295
I2
ss(S'second'
p6271
g1945
tp6272
(dp6273
g1946
I2
ss(g2911
S'declared'
p6274
tp6275
(dp6276
S'with'
p6277
I2
ss(g2719
g2722
tp6278
(dp6279
S'relative'
p6280
I2
ss(g1674
g5166
tp6281
(dp6282
S'question'
p6283
I2
ss(g2203
S'a'
tp6284
(dp6285
g6174
I2
sg472
I2
ss(g4882
S'in'
p6286
tp6287
(dp6288
g4995
I2
sg482
I2
ss(g2822
g2825
tp6289
(dp6290
g2916
I2
ss(g503
g506
tp6291
(dp6292
S'the'
p6293
I2
ss(g1113
S'people'
p6294
tp6295
(dp6296
g162
I2
ss(g1413
g1416
tp6297
(dp6298
S'said'
p6299
I2
ss(g3707
S'that'
p6300
tp6301
(dp6302
S'he'
p6303
I2
ss(S'at'
p6304
g2193
tp6305
(dp6306
S'do'
p6307
I2
sS'as'
p6308
I2
sS'waiting'
p6309
I2
sS'in'
p6310
I2
ss(g156
g1092
tp6311
(dp6312
g1093
I2
ss(S'said'
g4494
tp6313
(dp6314
g6009
I2
ss(g3963
S'that'
p6315
tp6316
(dp6317
S'he'
p6318
I2
ss(g2594
S'socalled'
p6319
tp6320
(dp6321
g61
I2
ss(g1493
g1496
tp6322
(dp6323
g2139
I2
sg5308
I2
ss(g2393
g2517
tp6324
(dp6325
g6069
I2
ss(S'i'
g5229
tp6326
(dp6327
g5230
I2
ss(g5479
S'a'
tp6328
(dp6329
g6075
I2
ss(S'id'
p6330
S'come'
p6331
tp6332
(dp6333
S'into'
p6334
I2
ss(g5498
g5501
tp6335
(dp6336
g4126
I2
ss(g3948
S'within'
p6337
tp6338
(dp6339
S'his'
p6340
I2
ss(S'specifying'
p6341
S'what'
p6342
tp6343
(dp6344
g2167
I2
ss(S'and'
p6345
g4970
tp6346
(dp6347
g4971
I2
ss(g229
g4574
tp6348
(dp6349
g4575
I2
ss(S'air'
S'i'
tp6350
(dp6351
S'always'
p6352
I2
ss(g5538
g5541
tp6353
(dp6354
S'other'
p6355
I2
ss(g2985
g3570
tp6356
(dp6357
g2345
I2
ss(g4321
S'for'
p6358
tp6359
(dp6360
g5039
I2
ss(g5554
S'his'
p6361
tp6362
(dp6363
g2999
I2
ss(g802
g805
tp6364
(dp6365
g4113
I2
ss(S'i'
g1961
tp6366
(dp6367
g5133
I2
sg4919
I2
sS'how'
p6368
I2
sg3614
I2
sg1962
I2
ss(g6012
g2870
tp6369
(dp6370
g2871
I2
ss(g1954
g1957
tp6371
(dp6372
g567
I4
sS'again'
p6373
I2
sg926
I2
sS'long'
p6374
I2
sg2748
I2
sS'you'
p6375
I2
sg57
I2
sg3251
I2
ss(g26
S'way'
p6376
tp6377
(dp6378
S'i'
I2
sS'you'
p6379
I2
ss(g6066
S'him'
p6380
tp6381
(dp6382
g689
I3
ss(g5376
g5379
tp6383
(dp6384
g481
I2
ss(g3498
g3501
tp6385
(dp6386
S'a'
I2
sg3815
I2
ss(S'comes'
p6387
S'out'
p6388
tp6389
(dp6390
S'of'
p6391
I2
ss(g3395
g3398
tp6392
(dp6393
S'around'
p6394
I2
ss(S'any'
p6395
g5643
tp6396
(dp6397
S'hed'
p6398
I2
ss(g3661
g3664
tp6399
(dp6400
S'book'
p6401
I2
ss(g3928
g6134
tp6402
(dp6403
g6135
I2
ss(g1533
g1536
tp6404
(dp6405
g871
I2
ss(S'after'
p6406
g898
tp6407
(dp6408
g899
I2
ss(g3708
g5002
tp6409
(dp6410
g3641
I2
ss(g4597
S'in'
p6411
tp6412
(dp6413
S'the'
p6414
I2
sg124
I2
ss(g2976
g1018
tp6415
(dp6416
g1019
I2
ss(g581
g3424
tp6417
(dp6418
S'joining'
p6419
I2
ss(g5607
S'explanation'
p6420
tp6421
(dp6422
S'for'
p6423
I2
ss(g3168
g3171
tp6424
(dp6425
g5259
I2
ss(S'be'
g3084
tp6426
(dp6427
g5312
I2
ss(g2163
g2166
tp6428
(dp6429
g3835
I2
ss(S'his'
p6430
g5464
tp6431
(dp6432
g3887
I2
ss(g521
g2709
tp6433
(dp6434
g5608
I2
ss(g2871
g1205
tp6435
(dp6436
g4064
I2
sg1206
I2
sS'if'
p6437
I2
ss(g1716
g4112
tp6438
(dp6439
S'any'
p6440
I2
ss(S'feared'
p6441
S'that'
p6442
tp6443
(dp6444
S'after'
p6445
I2
ss(g5864
g5907
tp6446
(dp6447
g2671
I2
sg275
I2
sg1618
I2
sS'admitted'
p6448
I2
sg5369
I2
ss(S'the'
p6449
g977
tp6450
(dp6451
g978
I2
ss(S'be'
p6452
g5349
tp6453
(dp6454
g5350
I2
ss(g6157
g4225
tp6455
(dp6456
g4226
I2
ss(g6352
g5738
tp6457
(dp6458
g5739
I2
ss(S'a'
g5874
tp6459
(dp6460
g1906
I2
ss(g6006
g3418
tp6461
(dp6462
g3419
I2
ss(S'be'
g5949
tp6463
(dp6464
g5950
I2
ss(g1650
g3586
tp6465
(dp6466
g2894
I2
ss(S'women'
p6467
g1717
tp6468
(dp6469
g1718
I2
ss(S'wanted'
g1373
tp6470
(dp6471
g1374
I2
ss(S'son'
p6472
g5580
tp6473
(dp6474
S'shouted'
p6475
I2
sg1392
I2
sg5824
I2
ss(g4027
g4030
tp6476
(dp6477
g4569
I2
ss(S'had'
p6478
g3352
tp6479
(dp6480
g3353
I2
ss(S'i'
g3268
tp6481
(dp6482
g3269
I2
ss(g1449
g4864
tp6483
(dp6484
g5593
I2
ss(g1189
g1520
tp6485
(dp6486
g4724
I2
ss(g1041
g3007
tp6487
(dp6488
S'why'
p6489
I2
ss(g4209
g5145
tp6490
(dp6491
g5146
I2
ss(g4901
g4904
tp6492
(dp6493
g5888
I3
ss(S'i'
g1081
tp6494
(dp6495
g1082
I2
ss(S'his'
p6496
S'laughter'
p6497
tp6498
(dp6499
S'cascading'
p6500
I2
ss(g2852
S'other'
p6501
tp6502
(dp6503
g6467
I2
ss(S'biography'
S'he'
p6504
tp6505
(dp6506
g1985
I2
ss(g1775
S'slept'
p6507
tp6508
(dp6509
S'with'
p6510
I2
ss(g3604
g3577
tp6511
(dp6512
g3578
I2
ss(g5128
S'elbow'
p6513
tp6514
(dp6515
g6472
I2
ss(g6448
S'to'
p6516
tp6517
(dp6518
g56
I2
ss(S'once'
p6519
S'that'
p6520
tp6521
(dp6522
S'hed'
p6523
I2
sS'my'
p6524
I2
ss(g37
g40
tp6525
(dp6526
S'the'
p6527
I3
ss(g6337
g6340
tp6528
(dp6529
g6147
I2
ss(g718
g721
tp6530
(dp6531
g5908
I2
ss(g3649
g3652
tp6532
(dp6533
g5114
I2
ss(g523
g6080
tp6534
(dp6535
S'i'
I2
ss(S'customer'
p6536
S'he'
p6537
tp6538
(dp6539
g3741
I2
ss(S'did'
p6540
g6368
tp6541
(dp6542
S'he'
p6543
I2
ss(g4928
S'two'
p6544
tp6545
(dp6546
g4518
I2
ss(g3535
g5883
tp6547
(dp6548
g5884
I2
ss(g2206
g2209
tp6549
(dp6550
g1512
I2
ss(g1859
S'i'
tp6551
(dp6552
S'didnt'
p6553
I2
sg5604
I2
ss(g5646
S'the'
p6554
tp6555
(dp6556
S'two'
p6557
I2
ss(S'anything'
p6558
g3316
tp6559
(dp6560
g3317
I2
ss(S'drink'
p6561
S'i'
tp6562
(dp6563
g1158
I2
ss(g1531
S'to'
p6564
tp6565
(dp6566
S'the'
p6567
I2
ss(g3895
g3898
tp6568
(dp6569
S'his'
p6570
I2
ss(g355
g6271
tp6571
(dp6572
g1945
I2
ss(g5274
S'as'
p6573
tp6574
(dp6575
S'i'
I2
ss(g2461
g2464
tp6576
(dp6577
g3134
I2
ss(g326
g329
tp6578
(dp6579
g4853
I2
ss(S'i'
g5405
tp6580
(dp6581
S'of'
p6582
I2
sg792
I2
sg6260
I3
ss(g1962
g1965
tp6583
(dp6584
g5618
I2
ss(g4821
g4824
tp6585
(dp6586
g5535
I2
ss(g939
g1735
tp6587
(dp6588
S'in'
p6589
I2
ss(g6319
g61
tp6590
(dp6591
g62
I2
ss(g1750
g4321
tp6592
(dp6593
g6358
I2
ss(g3329
g2063
tp6594
(dp6595
S'i'
I3
ss(S'snippets'
p6596
S'of'
p6597
tp6598
(dp6599
g4809
I2
ss(g1233
g1236
tp6600
(dp6601
g4922
I2
ss(g1536
g871
tp6602
(dp6603
g872
I2
ss(g3605
g5035
tp6604
(dp6605
g4194
I2
ss(g179
g6478
tp6606
(dp6607
g3352
I2
ss(S'but'
p6608
S'she'
p6609
tp6610
(dp6611
g1899
I2
ss(g4294
g4297
tp6612
(dp6613
S'to'
p6614
I2
ss(g5891
g310
tp6615
(dp6616
g311
I2
ss(g2539
g451
tp6617
(dp6618
S'i'
I2
sg4752
I2
sg452
I2
ss(g477
g480
tp6619
(dp6620
g1679
I2
ss(g1566
g2114
tp6621
(dp6622
g1437
I2
ss(g112
g5743
tp6623
(dp6624
g5044
I2
ss(g3401
g3404
tp6625
(dp6626
S'him'
p6627
I4
ss(S'should'
p6628
g4543
tp6629
(dp6630
g2089
I2
sg5949
I2
sg6411
I2
ss(g1222
g1511
tp6631
(dp6632
S'in'
p6633
I2
ss(S'reacted'
p6634
S'with'
p6635
tp6636
(dp6637
S'aggression'
p6638
I2
ss(g99
g5469
tp6639
(dp6640
g1572
I2
sS'did'
p6641
I2
sS'saw'
p6642
I3
sg1894
I2
ss(g914
g917
tp6643
(dp6644
S'at'
p6645
I2
ss(S'bored'
p6646
g6049
tp6647
(dp6648
g6050
I2
ss(g5073
g5830
tp6649
(dp6650
S'he'
p6651
I2
ss(g4885
g5803
tp6652
(dp6653
S'kitchen'
p6654
I2
ss(g2934
g2937
tp6655
(dp6656
g1854
I2
ss(g4860
S'didnt'
p6657
tp6658
(dp6659
S'like'
p6660
I2
ss(g1664
S'i'
tp6661
(dp6662
S'called'
p6663
I2
ss(g4375
g2384
tp6664
(dp6665
g2385
I2
ss(g109
g112
tp6666
(dp6667
g5743
I2
ss(g3637
g3640
tp6668
(dp6669
g5853
I2
ss(g5035
g4194
tp6670
(dp6671
g4195
I2
ss(g1472
g4016
tp6672
(dp6673
g4017
I2
ss(g522
g5120
tp6674
(dp6675
g294
I2
ss(g2963
g815
tp6676
(dp6677
g816
I2
sS'that'
p6678
I2
ss(S'nature'
p6679
g108
tp6680
(dp6681
g109
I2
ss(S'a'
g1398
tp6682
(dp6683
g1399
I2
ss(S'sex'
p6684
S'life'
p6685
tp6686
(dp6687
S'or'
p6688
I2
sS'he'
p6689
I2
ss(g2019
g5639
tp6690
(dp6691
g5415
I2
ss(g4045
g1344
tp6692
(dp6693
g1345
I2
ss(g4318
S'of'
p6694
tp6695
(dp6696
S'his'
p6697
I2
sg1990
I2
ss(g6379
S'listen'
p6698
tp6699
(dp6700
S'the'
p6701
I2
ss(g4864
g5593
tp6702
(dp6703
g5594
I2
ss(g1322
g1325
tp6704
(dp6705
S'reacted'
p6706
I2
ss(g23
g26
tp6707
(dp6708
g6376
I2
ss(g2443
g2446
tp6709
(dp6710
g5254
I2
ss(S'im'
g4689
tp6711
(dp6712
g1479
I2
ss(g5058
g1656
tp6713
(dp6714
g1657
I2
ss(g3909
g3912
tp6715
(dp6716
g4943
I2
ss(g744
S'my'
p6717
tp6718
(dp6719
S'environment'
p6720
I2
ss(S'his'
p6721
g6684
tp6722
(dp6723
g6685
I2
ss(g5052
g1860
tp6724
(dp6725
g557
I2
sS'he'
p6726
I3
ss(S'would'
p6727
S'be'
p6728
tp6729
(dp6730
g610
I2
sg123
I2
ss(g5978
g597
tp6731
(dp6732
g598
I2
ss(S'mexico'
g1106
tp6733
(dp6734
S'symptomatic'
p6735
I2
ss(S'the'
p6736
S'merriment'
p6737
tp6738
(dp6739
g4093
I2
ss(g2687
g4789
tp6740
(dp6741
S'he'
p6742
I2
ss(g3903
g3906
tp6743
(dp6744
S'as'
p6745
I2
ss(g1631
g5322
tp6746
(dp6747
S'had'
p6748
I2
ss(S'your'
p6749
S'outlook'
p6750
tp6751
(dp6752
g3436
I2
ss(g3226
g4717
tp6753
(dp6754
S'bolger'
p6755
I2
ss(g2702
g2705
tp6756
(dp6757
S'have'
p6758
I2
ss(S'hed'
p6759
g3899
tp6760
(dp6761
g3900
I2
sg525
I3
sg2561
I2
ss(g3731
g6759
tp6762
(dp6763
g3899
I2
ss(g4909
g6373
tp6764
(dp6765
g4449
I2
ss(g2941
g2946
tp6766
(dp6767
g4116
I2
ss(S'the'
p6768
g989
tp6769
(dp6770
g990
I2
ss(S'bar'
p6771
g5730
tp6772
(dp6773
g4144
I2
ss(g3320
g32
tp6774
(dp6775
g33
I2
ss(g3581
g4860
tp6776
(dp6777
g6657
I2
ss(g835
g838
tp6778
(dp6779
g1912
I2
sg3919
I2
sg3777
I2
ss(S'he'
p6780
g2502
tp6781
(dp6782
g2503
I5
sg5447
I2
sg1373
I2
ss(g3600
g3089
tp6783
(dp6784
g6395
I2
ss(g1489
g1228
tp6785
(dp6786
g1229
I2
ss(g1269
g3755
tp6787
(dp6788
S'it'
p6789
I2
ss(g4540
g3364
tp6790
(dp6791
g3365
I2
ss(g2596
g2599
tp6792
(dp6793
g4910
I2
ss(g5002
g3641
tp6794
(dp6795
g3223
I2
ss(g2457
g1696
tp6796
(dp6797
g1697
I2
ss(g3042
g2518
tp6798
(dp6799
g2519
I2
ss(g57
g60
tp6800
(dp6801
g2305
I2
ss(g4870
S'i'
tp6802
(dp6803
g444
I2
ss(S'more'
p6804
g195
tp6805
(dp6806
g196
I2
ss(g1093
g1096
tp6807
(dp6808
S'unless'
p6809
I2
ss(g340
g1664
tp6810
(dp6811
S'i'
I2
ss(g1700
g1407
tp6812
(dp6813
g5067
I2
sg6178
I2
sS'at'
p6814
I2
sg1408
I2
ss(S'noise'
p6815
g6496
tp6816
(dp6817
g6497
I2
ss(S'he'
g4607
tp6818
(dp6819
g4608
I2
ss(S'other'
p6820
g4564
tp6821
(dp6822
g4565
I2
ss(S'to'
p6823
g3583
tp6824
(dp6825
S'about'
p6826
I2
ss(g3622
g3625
tp6827
(dp6828
g1726
I2
ss(g5188
g5191
tp6829
(dp6830
g3248
I2
ss(g3325
g5380
tp6831
(dp6832
g5381
I2
ss(g1297
S'he'
p6833
tp6834
(dp6835
g2326
I2
ss(g3067
S'we'
p6836
tp6837
(dp6838
S'would'
p6839
I2
ss(g4453
g4456
tp6840
(dp6841
g3726
I2
ss(g5541
g6355
tp6842
(dp6843
S'women'
p6844
I2
ss(g4551
g2422
tp6845
(dp6846
S'a'
I2
ss(g2849
g2852
tp6847
(dp6848
g6501
I2
ss(g4254
g4282
tp6849
(dp6850
S'to'
p6851
I6
ss(g5177
g2837
tp6852
(dp6853
g2838
I2
ss(g2487
g2490
tp6854
(dp6855
g5376
I2
ss(g414
g417
tp6856
(dp6857
g703
I2
ss(g5603
S'or'
p6858
tp6859
(dp6860
S'if'
p6861
I2
ss(g6701
g118
tp6862
(dp6863
g119
I2
ss(g2732
g497
tp6864
(dp6865
g498
I2
ss(g3596
S'react'
p6866
tp6867
(dp6868
S'when'
p6869
I2
ss(g1608
g6688
tp6870
(dp6871
S'a'
I2
ss(g3660
g5100
tp6872
(dp6873
g5101
I2
ss(g2806
g4352
tp6874
(dp6875
g2372
I2
ss(S'customers'
p6876
S'i'
tp6877
(dp6878
S'said'
p6879
I2
ss(g5708
g3497
tp6880
(dp6881
g3498
I2
ss(g4119
g1073
tp6882
(dp6883
g1074
I2
ss(g205
g3550
tp6884
(dp6885
g3882
I2
ss(S'would'
p6886
g4191
tp6887
(dp6888
g95
I2
ss(S'other'
p6889
S'members'
p6890
tp6891
(dp6892
S'of'
p6893
I2
ss(g5566
S'women'
p6894
tp6895
(dp6896
S'was'
p6897
I2
ss(g1657
g1660
tp6898
(dp6899
g4806
I2
ss(g5618
g3648
tp6900
(dp6901
g3649
I2
ss(g4085
g4088
tp6902
(dp6903
S'in'
p6904
I2
ss(g6678
g5919
tp6905
(dp6906
S'my'
p6907
I2
ss(g6165
g4101
tp6908
(dp6909
g4399
I2
sg1550
I2
sg2950
I2
ss(g3775
g3841
tp6910
(dp6911
S'it'
p6912
I2
ss(g5597
g3057
tp6913
(dp6914
g2011
I2
ss(g3353
g3356
tp6915
(dp6916
g113
I2
sg47
I2
sS'walked'
p6917
I2
sg1917
I2
ss(S'drink'
p6918
g5105
tp6919
(dp6920
S'me'
p6921
I2
sg5106
I2
ss(g2448
g2451
tp6922
(dp6923
S'asked'
p6924
I2
ss(g2921
g2924
tp6925
(dp6926
g5304
I2
ss(g3945
g3948
tp6927
(dp6928
g6337
I2
ss(g3151
g5198
tp6929
(dp6930
g671
I2
ss(g4729
g4732
tp6931
(dp6932
g5492
I2
ss(g3487
g6815
tp6933
(dp6934
g6496
I2
ss(g5029
g6085
tp6935
(dp6936
g5914
I2
ss(g5586
S'his'
p6937
tp6938
(dp6939
g5117
I2
ss(g1583
g1586
tp6940
(dp6941
g2007
I2
ss(g4369
g4372
tp6942
(dp6943
g5411
I2
ss(g3404
g6627
tp6944
(dp6945
S'i'
I2
sS'and'
p6946
I3
sg4985
I2
ss(g6500
S'over'
p6947
tp6948
(dp6949
g6736
I2
ss(g3267
g3868
tp6950
(dp6951
g6187
I2
ss(g6654
S'causing'
p6952
tp6953
(dp6954
S'him'
p6955
I2
ss(S'view'
p6956
S'of'
p6957
tp6958
(dp6959
S'people'
p6960
I2
ss(g1767
g304
tp6961
(dp6962
g305
I2
ss(g5364
g1217
tp6963
(dp6964
g391
I2
ss(g2004
g459
tp6965
(dp6966
g2100
I2
ss(g5913
S'of'
p6967
tp6968
(dp6969
S'the'
p6970
I4
ss(S'write'
S'and'
p6971
tp6972
(dp6973
S'you'
p6974
I2
ss(g2340
g3050
tp6975
(dp6976
g3051
I2
ss(g853
g856
tp6977
(dp6978
S'a'
I2
sg3431
I2
ss(g602
g605
tp6979
(dp6980
g5634
I2
ss(g1426
g4106
tp6981
(dp6982
S'the'
p6983
I2
ss(S'of'
g349
tp6984
(dp6985
g1460
I2
ss(S'the'
p6986
g2350
tp6987
(dp6988
g2351
I2
ss(g1150
g1153
tp6989
(dp6990
S'that'
p6991
I2
ss(g4238
g3952
tp6992
(dp6993
g1340
I2
sg3953
I2
sg5615
I2
ss(g6094
g6097
tp6994
(dp6995
S'undiminished'
p6996
I2
ss(g638
g507
tp6997
(dp6998
g508
I2
ss(g5994
g2714
tp6999
(dp7000
g2715
I2
ss(g5561
g344
tp7001
(dp7002
S'to'
p7003
I2
sS'others'
p7004
I2
ss(S'normal'
p7005
S'the'
p7006
tp7007
(dp7008
S'people'
p7009
I2
ss(S'i'
g1158
tp7010
(dp7011
g1159
I2
ss(S'anyone'
p7012
g5957
tp7013
(dp7014
g4592
I2
ss(S'almost'
p7015
S'everyone'
p7016
tp7017
(dp7018
S'respected'
p7019
I2
ss(g4049
g2481
tp7020
(dp7021
g2482
I2
ss(g624
g2528
tp7022
(dp7023
g2529
I2
ss(g334
g846
tp7024
(dp7025
g2066
I2
ss(g4602
g4768
tp7026
(dp7027
S'hed'
p7028
I2
ss(g3149
g1768
tp7029
(dp7030
S'i'
I2
ss(g825
g828
tp7031
(dp7032
g4686
I2
ss(g6564
g6567
tp7033
(dp7034
g2403
I3
sg5172
I2
sS'deepest'
p7035
I2
sg2417
I2
sg2801
I2
ss(S'against'
p7036
S'him'
p7037
tp7038
(dp7039
S'he'
p7040
I2
ss(g621
g624
tp7041
(dp7042
g2528
I2
ss(S'table'
g1237
tp7043
(dp7044
g1238
I2
ss(g5589
S'only'
p7045
tp7046
(dp7047
g4390
I2
ss(g759
g762
tp7048
(dp7049
S'he'
p7050
I2
ss(g1804
g1807
tp7051
(dp7052
S'dont'
p7053
I2
sg1756
I2
sS'cant'
p7054
I2
sg5504
I2
sg6196
I2
sg5360
I2
ss(g3876
g3879
tp7055
(dp7056
g5483
I2
ss(g4867
g3160
tp7057
(dp7058
g3161
I2
ss(g287
g6889
tp7059
(dp7060
g6890
I2
ss(S'my'
p7061
S'purpose'
p7062
tp7063
(dp7064
g3286
I2
ss(S'hed'
p7065
g896
tp7066
(dp7067
g882
I2
ss(g6050
g6053
tp7068
(dp7069
g2775
I2
ss(g2101
g2104
tp7070
(dp7071
g2105
I2
ss(S'a'
g5678
tp7072
(dp7073
g5679
I2
ss(g3398
g6394
tp7074
(dp7075
S'him'
p7076
I2
ss(S'book'
p7077
g4991
tp7078
(dp7079
g4992
I2
ss(g4663
g4667
tp7080
(dp7081
g4415
I2
sS'at'
p7082
I2
ss(g6283
g365
tp7083
(dp7084
g366
I2
ss(S'wife'
p7085
g6634
tp7086
(dp7087
g6635
I2
ss(g5513
S'browbeat'
p7088
tp7089
(dp7090
S'me'
p7091
I2
ss(g1441
g3608
tp7092
(dp7093
g1368
I2
ss(g6170
S'his'
p7094
tp7095
(dp7096
S'wives'
p7097
I2
ss(g1206
S'i'
tp7098
(dp7099
g4918
I2
sS'knew'
p7100
I2
sg3190
I2
sg3470
I2
ss(g5782
g5785
tp7101
(dp7102
g2625
I2
ss(g3984
g3125
tp7103
(dp7104
g3126
I2
ss(g5639
g5415
tp7105
(dp7106
g5416
I2
ss(g676
g679
tp7107
(dp7108
S'i'
I2
ss(g3755
g6789
tp7109
(dp7110
g6727
I2
ss(g2626
g2629
tp7111
(dp7112
g6057
I2
ss(S'i'
g639
tp7113
(dp7114
g640
I2
sS'served'
p7115
I2
ss(g791
g3111
tp7116
(dp7117
S'the'
p7118
I2
ss(g459
g2100
tp7119
(dp7120
g2101
I2
ss(g1989
g6309
tp7121
(dp7122
S'for'
p7123
I2
ss(g1062
g1065
tp7124
(dp7125
g152
I2
ss(S'bar'
g1627
tp7126
(dp7127
g1628
I2
ss(g3835
g3838
tp7128
(dp7129
S'knew'
p7130
I2
ss(S'his'
p7131
g6093
tp7132
(dp7133
g6094
I2
ss(g5395
g5398
tp7134
(dp7135
S'not'
p7136
I2
ss(g5160
g4813
tp7137
(dp7138
g2287
I2
ss(g5615
g325
tp7139
(dp7140
g326
I2
ss(g2116
g2119
tp7141
(dp7142
g5598
I2
ss(S'be'
p7143
g3086
tp7144
(dp7145
g4527
I2
ss(g2363
g2366
tp7146
(dp7147
S'he'
p7148
I2
ss(g490
g4209
tp7149
(dp7150
g5145
I2
ss(g3811
g3814
tp7151
(dp7152
g4959
I2
ss(g5068
g549
tp7153
(dp7154
g211
I2
ss(g6009
g6012
tp7155
(dp7156
g2870
I2
ss(S'only'
p7157
g2691
tp7158
(dp7159
g2692
I3
ss(g2215
g2218
tp7160
(dp7161
S'did'
p7162
I2
ss(S'that'
p7163
g6524
tp7164
(dp7165
g6956
I2
ss(g4971
g4974
tp7166
(dp7167
g4728
I2
ss(g1125
g1128
tp7168
(dp7169
S'been'
p7170
I2
ss(S'a'
S'person'
p7171
tp7172
(dp7173
g5757
I2
ss(g1060
g5224
tp7174
(dp7175
S'their'
p7176
I2
ss(g3874
g4452
tp7177
(dp7178
g4453
I2
ss(g3228
g4178
tp7179
(dp7180
g4950
I2
ss(g2903
g3116
tp7181
(dp7182
g6596
I2
ss(g2692
g2695
tp7183
(dp7184
g3661
I2
sg3182
I2
ss(g2407
g5032
tp7185
(dp7186
g6986
I2
ss(S'was'
p7187
g1822
tp7188
(dp7189
S'a'
I2
ss(g6122
S'might'
p7190
tp7191
(dp7192
g6452
I2
ss(g6280
S'solitude'
p7193
tp7194
(dp7195
S'i'
I2
ss(S'hot'
p7196
g4679
tp7197
(dp7198
g3712
I2
ss(g5032
g6986
tp7199
(dp7200
g2350
I2
ss(g166
g5688
tp7201
(dp7202
g4061
I2
ss(g4229
g3821
tp7203
(dp7204
g3822
I2
ss(g2784
g2788
tp7205
(dp7206
g1452
I2
ss(g2147
g3795
tp7207
(dp7208
g6219
I2
ss(S'you'
p7209
g3919
tp7210
(dp7211
g3920
I2
ss(g2088
S'to'
p7212
tp7213
(dp7214
g1527
I2
ss(S'knew'
p7215
g3452
tp7216
(dp7217
S'if'
p7218
I2
ss(g2554
g2557
tp7219
(dp7220
S'happen'
p7221
I2
ss(S'third'
p7222
g7085
tp7223
(dp7224
g143
I2
sg2241
I2
sg1403
I2
sg6634
I2
sg2457
I2
ss(g2410
g2413
tp7225
(dp7226
g6804
I2
ss(g2639
g2431
tp7227
(dp7228
g2432
I2
ss(S'saw'
p7229
g447
tp7230
(dp7231
S'through'
p7232
I2
ss(g5663
g698
tp7233
(dp7234
g4627
I2
ss(g1350
g1353
tp7235
(dp7236
g6119
I2
ss(S'consistently'
p7237
S'shown'
p7238
tp7239
(dp7240
g255
I2
ss(S'be'
p7241
g3087
tp7242
(dp7243
S'the'
p7244
I2
ss(g6182
S'do'
p7245
tp7246
(dp7247
S'if'
p7248
I2
ss(g176
g179
tp7249
(dp7250
g6478
I2
ss(g6177
S'and'
p7251
tp7252
(dp7253
S'i'
I2
ss(g3677
S'months'
p7254
tp7255
(dp7256
g180
I2
ss(S'get'
p7257
S'so'
p7258
tp7259
(dp7260
S'disgusted'
p7261
I2
ss(g2713
g4699
tp7262
(dp7263
g1927
I2
ss(S'his'
p7264
g5137
tp7265
(dp7266
g5138
I2
ss(g1878
g1881
tp7267
(dp7268
g5206
I2
ss(g566
g1331
tp7269
(dp7270
g1332
I2
ss(g1450
g2228
tp7271
(dp7272
g2229
I2
ss(S'the'
p7273
S'fully'
p7274
tp7275
(dp7276
g351
I2
ss(g3029
g3032
tp7277
(dp7278
S'a'
I2
ss(g1232
g5646
tp7279
(dp7280
g6554
I2
ss(g3956
S'a'
tp7281
(dp7282
g6536
I2
sg5788
I2
sg7171
I2
sg5678
I2
sS'biographer'
p7283
I2
sg2696
I2
ss(S'to'
g5589
tp7284
(dp7285
g7045
I2
sg4460
I2
ss(g3550
g3882
tp7286
(dp7287
g3883
I2
ss(S'slowly'
p7288
S'through'
p7289
tp7290
(dp7291
S'a'
I2
ss(g5937
g1270
tp7292
(dp7293
g1271
I2
ss(g4377
g4380
tp7294
(dp7295
g5064
I2
ss(g2726
g3025
tp7296
(dp7297
g5782
I2
ss(g5819
g5822
tp7298
(dp7299
g2754
I2
ss(g2296
g2299
tp7300
(dp7301
g3909
I2
ss(S'a'
S'squeamishness'
p7302
tp7303
(dp7304
S'that'
p7305
I2
ss(g196
g199
tp7306
(dp7307
g5338
I2
ss(g3933
g6437
tp7308
(dp7309
S'i'
I2
ss(g872
g875
tp7310
(dp7311
S'failed'
p7312
I2
ss(S'who'
p7313
S'look'
p7314
tp7315
(dp7316
g395
I2
ss(g4965
S'i'
tp7317
(dp7318
g1614
I2
ss(S'finished'
p7319
g3768
tp7320
(dp7321
g3769
I2
ss(S'appeal'
p7322
g5562
tp7323
(dp7324
g5563
I2
ss(g4386
g4977
tp7325
(dp7326
S'but'
p7327
I2
ss(S'being'
p7328
S'with'
p7329
tp7330
(dp7331
S'other'
p7332
I2
ss(g2646
g3407
tp7333
(dp7334
g4603
I2
ss(g6040
g4471
tp7335
(dp7336
S'to'
p7337
I3
ss(S'own'
g2944
tp7338
(dp7339
S'and'
p7340
I2
ss(g3219
S'quiet'
p7341
tp7342
(dp7343
S'i'
I2
ss(g574
g5623
tp7344
(dp7345
g5731
I2
ss(g6839
g5435
tp7346
(dp7347
g5436
I2
ss(g925
g5695
tp7348
(dp7349
g5696
I2
ss(g48
g51
tp7350
(dp7351
g5391
I2
ss(g3083
g5860
tp7352
(dp7353
g5861
I2
ss(g342
g1754
tp7354
(dp7355
S'his'
p7356
I2
ss(g6015
S'bounced'
p7357
tp7358
(dp7359
S'ten'
p7360
I2
ss(g3595
S'them'
p7361
tp7362
(dp7363
S'if'
p7364
I2
ss(g5085
S'i'
tp7365
(dp7366
S'said'
p7367
I2
ss(g409
g412
tp7368
(dp7369
g4026
I2
ss(g3790
g3093
tp7370
(dp7371
g1826
I2
ss(g5384
g299
tp7372
(dp7373
g300
I2
ss(g1051
g4645
tp7374
(dp7375
g5624
I2
ss(g2751
g2585
tp7376
(dp7377
g2586
I2
ss(g5824
g5827
tp7378
(dp7379
S'squeezed'
p7380
I2
ss(g3049
g6182
tp7381
(dp7382
g7245
I2
ss(g5551
g5554
tp7383
(dp7384
g6361
I2
ss(S'didnt'
g5622
tp7385
(dp7386
g1622
I5
ss(g3065
g7257
tp7387
(dp7388
g6646
I2
sg7258
I2
ss(g2272
g2275
tp7389
(dp7390
g4637
I2
ss(g6844
g2157
tp7391
(dp7392
S'he'
p7393
I2
ss(g4080
g1952
tp7394
(dp7395
g1971
I2
ss(g1140
g4778
tp7396
(dp7397
S'i'
I2
ss(S'toward'
p7398
S'his'
p7399
tp7400
(dp7401
S'first'
p7402
I2
ss(g7238
g255
tp7403
(dp7404
g256
I2
ss(g1652
g1655
tp7405
(dp7406
g2688
I2
ss(g4367
S'mexico'
p7407
tp7408
(dp7409
S'id'
p7410
I2
ss(g1196
g1199
tp7411
(dp7412
g3592
I2
ss(g1004
g1007
tp7413
(dp7414
S'i'
I3
ss(g3879
g5483
tp7415
(dp7416
g5484
I2
ss(g4402
g4432
tp7417
(dp7418
g1562
I2
ss(S'i'
g2920
tp7419
(dp7420
g2921
I2
ss(g371
g374
tp7421
(dp7422
g5942
I2
ss(g4755
g7131
tp7423
(dp7424
g6093
I2
ss(g3586
g2894
tp7425
(dp7426
g2895
I2
ss(g3129
S'remember'
p7427
tp7428
(dp7429
g1190
I2
ss(g5301
g1102
tp7430
(dp7431
g1103
I2
ss(S'book'
p7432
g6749
tp7433
(dp7434
g6750
I2
ss(g5205
g4486
tp7435
(dp7436
g4487
I2
ss(g4017
g1609
tp7437
(dp7438
g1610
I2
ss(S'a'
g1825
tp7439
(dp7440
g4089
I2
ss(g3776
g1704
tp7441
(dp7442
g1705
I2
ss(g4872
g3538
tp7443
(dp7444
g7237
I2
sg3539
I2
ss(g4923
g335
tp7445
(dp7446
g336
I2
ss(S'marriage'
p7447
g7036
tp7448
(dp7449
g7037
I2
ss(g1227
g4756
tp7450
(dp7451
g5216
I2
sS'wanted'
p7452
I2
sg685
I2
ss(g6635
g6638
tp7453
(dp7454
g5647
I2
ss(g4802
g1209
tp7455
(dp7456
g1210
I2
ss(S'i'
g1771
tp7457
(dp7458
g2925
I2
ss(g4456
g3726
tp7459
(dp7460
g386
I3
sg1086
I2
sg3727
I3
sS'i'
I2
sg5590
I2
sS'in'
p7461
I2
sS'bolger'
p7462
I2
ss(g851
g2161
tp7463
(dp7464
S'i'
I2
ss(g4031
g4034
tp7465
(dp7466
g5327
I2
ss(g1403
g1406
tp7467
(dp7468
g7215
I2
ss(g5038
S'want'
p7469
tp7470
(dp7471
g4831
I2
ss(g3185
g4281
tp7472
(dp7473
g4662
I2
ss(g4097
g4100
tp7474
(dp7475
g5429
I2
ss(g619
g3045
tp7476
(dp7477
S'may'
p7478
I2
ss(g2316
S'ice'
p7479
tp7480
(dp7481
g4759
I2
ss(g2945
S'would'
p7482
tp7483
(dp7484
g4740
I2
ss(S'the'
p7485
g552
tp7486
(dp7487
g553
I2
ss(g3292
g1813
tp7488
(dp7489
g1814
I2
ss(g1636
g6519
tp7490
(dp7491
g6520
I2
ss(g5742
g6131
tp7492
(dp7493
g625
I2
ss(g4536
g4539
tp7494
(dp7495
S'listening'
p7496
I2
ss(g435
g438
tp7497
(dp7498
S'of'
p7499
I2
ss(g3020
S'a'
tp7500
(dp7501
g545
I2
sg2719
I2
sg2249
I2
ss(g1029
g260
tp7502
(dp7503
g261
I2
ss(g2653
g2656
tp7504
(dp7505
S's'
I2
ss(g5671
g5674
tp7506
(dp7507
g857
I2
ss(g1735
g6589
tp7508
(dp7509
g6430
I2
ss(g2549
g4407
tp7510
(dp7511
S'did'
p7512
I2
sg4408
I2
ss(g5216
g5219
tp7513
(dp7514
g4293
I3
ss(S'what'
p7515
g6387
tp7516
(dp7517
g6388
I2
ss(g4265
g6244
tp7518
(dp7519
S'way'
p7520
I2
ss(g163
g166
tp7521
(dp7522
g5688
I2
ss(g1132
S'an'
p7523
tp7524
(dp7525
g345
I2
ss(g4568
g954
tp7526
(dp7527
g955
I2
ss(g4667
g7082
tp7528
(dp7529
S'me'
p7530
I2
sg396
I2
ss(g6423
g5986
tp7531
(dp7532
g5987
I2
ss(g212
g215
tp7533
(dp7534
S'a'
I2
ss(g5535
g462
tp7535
(dp7536
g463
I2
ss(g5833
g3542
tp7537
(dp7538
S'a'
I2
ss(g5344
g3068
tp7539
(dp7540
g3069
I2
ss(g5381
g5384
tp7541
(dp7542
g299
I2
ss(g1695
g7035
tp7543
(dp7544
g6153
I2
ss(g468
g471
tp7545
(dp7546
g5651
I2
ss(g5576
S'i'
tp7547
(dp7548
g6540
I2
sg950
I2
sg2194
I2
sg3096
I2
sg3268
I2
ss(g3871
g3874
tp7549
(dp7550
g4452
I2
ss(g3457
g3460
tp7551
(dp7552
g5922
I2
ss(g2134
g2137
tp7553
(dp7554
g4536
I2
ss(S'i'
g5406
tp7555
(dp7556
S'to'
p7557
I2
sg72
I2
ss(g3137
g3526
tp7558
(dp7559
g3527
I3
ss(g6567
g2801
tp7560
(dp7561
g1595
I2
sg2882
I2
ss(g4850
g4348
tp7562
(dp7563
g4349
I2
ss(g2275
g4637
tp7564
(dp7565
g4638
I2
ss(g5290
g5804
tp7566
(dp7567
g5977
I2
ss(g2366
g7148
tp7568
(dp7569
S'slept'
p7570
I2
sS'was'
p7571
I3
ss(S'a'
g3229
tp7572
(dp7573
g4682
I2
ss(S'i'
g3384
tp7574
(dp7575
g3471
I2
sg1412
I2
ss(g5080
g5083
tp7576
(dp7577
S'to'
p7578
I2
ss(g1936
g1939
tp7579
(dp7580
S'circumstances'
p7581
I2
ss(g6737
g4093
tp7582
(dp7583
g3033
I2
ss(g828
g4686
tp7584
(dp7585
g41
I2
ss(g3356
g6917
tp7586
(dp7587
g5968
I2
ss(g5563
g5566
tp7588
(dp7589
g6894
I2
ss(g6720
S'i'
tp7590
(dp7591
S'thought'
p7592
I2
ss(S'when'
p7593
g4020
tp7594
(dp7595
S'saw'
p7596
I2
sg4021
I2
sg5928
I2
sg3502
I2
sg930
I2
ss(S'didnt'
p7597
g5621
tp7598
(dp7599
g5385
I2
ss(S'other'
p7600
g375
tp7601
(dp7602
g376
I2
ss(g6537
g3741
tp7603
(dp7604
g3742
I2
ss(g3012
S'and'
p7605
tp7606
(dp7607
S'if'
p7608
I2
ss(g2358
S'gaze'
p7609
tp7610
(dp7611
S'at'
p7612
I2
ss(g5648
g3559
tp7613
(dp7614
g3560
I2
ss(g1129
g1132
tp7615
(dp7616
S'a'
I2
sg3843
I2
sg7523
I2
ss(g1835
g1838
tp7617
(dp7618
S'hams'
p7619
I2
ss(g4257
g4260
tp7620
(dp7621
S'to'
p7622
I2
ss(g2604
S'fear'
p7623
tp7624
(dp7625
S'that'
p7626
I2
ss(g7100
g4931
tp7627
(dp7628
S'his'
p7629
I2
ss(S'his'
p7630
g7222
tp7631
(dp7632
g7085
I6
ss(g2067
g634
tp7633
(dp7634
g635
I2
ss(g3886
g6679
tp7635
(dp7636
g108
I2
sg2853
I2
ss(g1036
S'than'
p7637
tp7638
(dp7639
g7005
I2
ss(g2158
S'hadnt'
p7640
tp7641
(dp7642
g4376
I2
ss(g7136
S'me'
p7643
tp7644
(dp7645
S'and'
p7646
I3
ss(g3206
g3209
tp7647
(dp7648
g4360
I2
ss(g5146
g972
tp7649
(dp7650
g973
I2
ss(g1935
g2552
tp7651
(dp7652
g5983
I2
sS'do'
p7653
I2
sS'know'
p7654
I2
ss(g7461
g4267
tp7655
(dp7656
g4821
I2
ss(g1317
g1320
tp7657
(dp7658
g1446
I2
ss(g5803
g6654
tp7659
(dp7660
g6952
I2
ss(g4495
g7328
tp7661
(dp7662
g7329
I2
ss(g142
g7012
tp7663
(dp7664
g5957
I2
ss(g6255
S'son'
p7665
tp7666
(dp7667
S'he'
p7668
I2
ss(g976
g4708
tp7669
(dp7670
g4709
I2
ss(g3547
g5401
tp7671
(dp7672
S'i'
I2
sS'nothing'
p7673
I2
sg1936
I2
ss(S'force'
g3535
tp7674
(dp7675
g5883
I2
ss(g1077
g6100
tp7676
(dp7677
S'of'
p7678
I2
ss(g7171
g5757
tp7679
(dp7680
g2336
I2
ss(g5138
g2070
tp7681
(dp7682
g1779
I2
ss(g6
S'a'
tp7683
(dp7684
g6006
I2
ss(S'a'
g6918
tp7685
(dp7686
S'i'
I2
sg4653
I2
sg5105
I2
sg3168
I2
ss(g2214
g6103
tp7687
(dp7688
g5530
I2
ss(g767
g5301
tp7689
(dp7690
g1102
I2
ss(g3939
g3942
tp7691
(dp7692
g6971
I2
sS'a'
I2
sg4251
I3
sS'his'
p7693
I3
sg4475
I2
sS'the'
p7694
I2
sg3570
I2
sg662
I2
ss(S'them'
p7695
S'but'
p7696
tp7697
(dp7698
S'he'
p7699
I2
ss(g981
g7322
tp7700
(dp7701
g5562
I2
ss(g2519
g2522
tp7702
(dp7703
g3636
I2
ss(g5412
g1541
tp7704
(dp7705
g1542
I2
ss(S'him'
p7706
g7462
tp7707
(dp7708
S'said'
p7709
I2
sg727
I2
ss(g2841
g2271
tp7710
(dp7711
g2272
I2
ss(g236
g239
tp7712
(dp7713
S'you'
p7714
I2
ss(g3242
g3697
tp7715
(dp7716
S'to'
p7717
I2
ss(g2811
g2815
tp7718
(dp7719
S'couple'
p7720
I2
ss(g244
g5128
tp7721
(dp7722
g2941
I3
sg6679
I3
sg4774
I2
sS'voice'
p7723
I2
sg6513
I2
sg1712
I2
sg7322
I2
sg3685
I2
ss(g1110
g1113
tp7724
(dp7725
g6294
I2
ss(g3216
g3219
tp7726
(dp7727
g7341
I2
ss(S'selfserving'
p7728
g2701
tp7729
(dp7730
g2702
I2
ss(g2764
S'i'
tp7731
(dp7732
S'think'
p7733
I2
ss(S'not'
p7734
S'what'
p7735
tp7736
(dp7737
S'did'
p7738
I2
ss(g4702
g4705
tp7739
(dp7740
S'i'
I2
ss(g6056
g6233
tp7741
(dp7742
g2740
I2
ss(g3347
g2848
tp7743
(dp7744
g2849
I2
sg5079
I2
sg1713
I2
ss(S'rolled'
p7745
g7288
tp7746
(dp7747
g7289
I2
ss(S'a'
g2696
tp7748
(dp7749
g2697
I2
ss(g2613
g5274
tp7750
(dp7751
g6573
I2
ss(g1236
g4922
tp7752
(dp7753
g4923
I2
ss(g3890
g5795
tp7754
(dp7755
S'of'
p7756
I2
ss(S'uncompromised'
p7757
g90
tp7758
(dp7759
g91
I2
ss(S'probably'
p7760
g6406
tp7761
(dp7762
g898
I2
ss(g2237
g2240
tp7763
(dp7764
g4364
I2
ss(g6146
g829
tp7765
(dp7766
g830
I2
ss(g4794
g6028
tp7767
(dp7768
S'id'
p7769
I2
ss(g6244
g7520
tp7770
(dp7771
g6780
I2
ss(g4817
g4820
tp7772
(dp7773
S'the'
p7774
I2
ss(g2337
g2340
tp7775
(dp7776
g3050
I2
ss(g4475
g4478
tp7777
(dp7778
g7757
I2
sg3400
I2
ss(g5215
g3685
tp7779
(dp7780
g3686
I2
ss(g6642
g281
tp7781
(dp7782
g1004
I2
ss(g6085
g5914
tp7783
(dp7784
g5295
I2
sS'that'
p7785
I2
ss(S'he'
p7786
g6441
tp7787
(dp7788
g6442
I2
ss(S'had'
g3604
tp7789
(dp7790
g3577
I2
ss(g686
S'a'
tp7791
(dp7792
g4268
I2
ss(g2960
g2963
tp7793
(dp7794
g815
I2
ss(g3582
g3964
tp7795
(dp7796
g4234
I2
ss(g4558
S'id'
p7797
tp7798
(dp7799
g4148
I2
ss(g1833
g6582
tp7800
(dp7801
g3678
I2
ss(S'at'
g7695
tp7802
(dp7803
g7696
I2
ss(S'a'
g7728
tp7804
(dp7805
g2701
I2
ss(g5887
g6130
tp7806
(dp7807
g3376
I2
sS'that'
p7808
I2
ss(g1807
g6196
tp7809
(dp7810
g532
I3
ss(g2355
g2358
tp7811
(dp7812
g7609
I2
ss(g5045
g5048
tp7813
(dp7814
g6608
I2
ss(g809
S'estimate'
p7815
tp7816
(dp7817
g4387
I2
ss(g3116
g6596
tp7818
(dp7819
g6597
I2
ss(g7720
g5900
tp7820
(dp7821
g5901
I2
ss(g3456
g4329
tp7822
(dp7823
g3439
I2
ss(g2425
g2265
tp7824
(dp7825
g1422
I2
ss(g6263
S'unless'
p7826
tp7827
(dp7828
S'i'
I2
ss(g6063
g6066
tp7829
(dp7830
g6380
I2
ss(g4974
g4728
tp7831
(dp7832
g4729
I2
ss(g4777
S'i'
tp7833
(dp7834
g3457
I2
sS'fear'
p7835
I2
sg639
I2
sg732
I2
ss(S'by'
p7836
g7515
tp7837
(dp7838
g6387
I2
ss(g5334
g780
tp7839
(dp7840
g7328
I2
sg2369
I2
sg5576
I2
ss(g3037
g4649
tp7841
(dp7842
g4650
I2
ss(S'bar'
g5728
tp7843
(dp7844
S'voice'
p7845
I2
ss(S'a'
g3756
tp7846
(dp7847
g3757
I2
ss(g7004
S'to'
p7848
tp7849
(dp7850
g2675
I2
ss(g6376
g6379
tp7851
(dp7852
g6698
I2
ss(S'a'
g5971
tp7853
(dp7854
g2354
I2
ss(g5931
S'them'
p7855
tp7856
(dp7857
S'and'
p7858
I2
sg3479
I2
ss(g2510
g2513
tp7859
(dp7860
g3871
I2
ss(g1568
g1571
tp7861
(dp7862
g1032
I2
ss(g5398
g7136
tp7863
(dp7864
g7643
I2
ss(g6904
S'some'
p7865
tp7866
(dp7867
g4368
I2
ss(g6442
g6445
tp7868
(dp7869
g3281
I2
ss(g1154
g1157
tp7870
(dp7871
g2832
I2
ss(g5043
g7313
tp7872
(dp7873
g7314
I2
ss(g7062
g3286
tp7874
(dp7875
g3287
I2
ss(g4068
g4071
tp7876
(dp7877
S'would'
p7878
I3
ss(g4671
g4674
tp7879
(dp7880
S'he'
p7881
I2
ss(g1996
g1999
tp7882
(dp7883
g220
I2
sg6449
I2
sg6016
I2
ss(g1666
g1669
tp7884
(dp7885
g1279
I2
ss(g5795
g7756
tp7886
(dp7887
g4393
I2
ss(g137
g4882
tp7888
(dp7889
g6286
I2
ss(g7329
g7332
tp7890
(dp7891
g200
I2
ss(g7091
S'into'
p7892
tp7893
(dp7894
S'a'
I2
sg3987
I2
ss(g2979
g3088
tp7895
(dp7896
S'all'
p7897
I2
ss(S'it'
g422
tp7898
(dp7899
g5323
I2
ss(S'drug'
p7900
S'he'
p7901
tp7902
(dp7903
g5569
I2
ss(g7283
S'he'
p7904
tp7905
(dp7906
S'told'
p7907
I2
ss(g387
g390
tp7908
(dp7909
g4479
I3
sg6058
I2
sg829
I2
ss(g1194
g2316
tp7910
(dp7911
g7479
I2
ss(g4088
g6904
tp7912
(dp7913
g7865
I2
ss(g2127
S'as'
p7914
tp7915
(dp7916
g5183
I2
sg6876
I2
sg587
I2
ss(g3285
g2770
tp7917
(dp7918
g2771
I2
ss(g6373
g4449
tp7919
(dp7920
g467
I2
ss(g1546
g1549
tp7921
(dp7922
S'he'
p7923
I3
ss(g3713
g2842
tp7924
(dp7925
g2843
I2
ss(g899
g902
tp7926
(dp7927
g4230
I2
ss(g3039
g3042
tp7928
(dp7929
g5812
I2
sS'first'
p7930
I2
sg1280
I2
sg7222
I2
sg2518
I2
ss(g6879
g5293
tp7931
(dp7932
S'him'
p7933
I2
ss(g3544
g3547
tp7934
(dp7935
g5401
I4
sg759
I2
sg3601
I3
sS'was'
p7936
I2
sg1488
I2
ss(g8
g11
tp7937
(dp7938
g5752
I2
ss(g4919
g1877
tp7939
(dp7940
g1878
I2
ss(g7274
g351
tp7941
(dp7942
g352
I2
ss(g2761
g2764
tp7943
(dp7944
S'i'
I2
ss(g3488
g3491
tp7945
(dp7946
g820
I2
sS'if'
p7947
I2
ss(g7570
S'and'
p7948
tp7949
(dp7950
g2595
I2
ss(g5169
g6056
tp7951
(dp7952
g6233
I2
ss(g3898
g6570
tp7953
(dp7954
g1141
I2
sg2848
I2
sS'first'
p7955
I2
sg6684
I2
ss(g4472
S'my'
p7956
tp7957
(dp7958
S'mind'
p7959
I2
ss(g4247
g6886
tp7960
(dp7961
g4191
I2
ss(g4527
g4530
tp7962
(dp7963
S'his'
p7964
I2
ss(g2394
g5546
tp7965
(dp7966
g5547
I2
ss(g941
g944
tp7967
(dp7968
g2052
I2
ss(S'me'
p7969
g1545
tp7970
(dp7971
g1546
I2
ss(g7530
g6307
tp7972
(dp7973
S'you'
p7974
I2
ss(g5579
g3875
tp7975
(dp7976
g3876
I2
sg6216
I2
sS'i'
I2
sg32
I2
ss(g3769
g3772
tp7977
(dp7978
g5823
I2
ss(g1679
g615
tp7979
(dp7980
g616
I2
ss(g4519
g4522
tp7981
(dp7982
S'to'
p7983
I2
ss(g2686
S'as'
p7984
tp7985
(dp7986
S'a'
I2
ss(g6750
g3436
tp7987
(dp7988
g2170
I2
ss(g450
g2022
tp7989
(dp7990
g7163
I2
ss(g380
g1362
tp7991
(dp7992
S'with'
p7993
I2
ss(g571
g278
tp7994
(dp7995
S'and'
p7996
I2
sS'as'
p7997
I2
ss(g2557
g7221
tp7998
(dp7999
g1497
I2
ss(S'add'
p8000
g486
tp8001
(dp8002
g487
I2
ss(g1484
g1487
tp8003
(dp8004
g6199
I2
ss(g2124
g2127
tp8005
(dp8006
g5395
I2
sg7914
I3
ss(g4718
g4721
tp8007
(dp8008
S'and'
p8009
I2
sg2899
I2
ss(g6638
g5647
tp8010
(dp8011
g5648
I2
ss(g5350
g5353
tp8012
(dp8013
g5629
I2
ss(g5590
g138
tp8014
(dp8015
g139
I2
ss(g4306
g4309
tp8016
(dp8017
S'he'
p8018
I2
ss(S'drinks'
p8019
g2045
tp8020
(dp8021
g2046
I2
ss(g3103
S'to'
p8022
tp8023
(dp8024
S'a'
I2
ss(g2154
g2158
tp8025
(dp8026
g7640
I2
ss(g5391
g5394
tp8027
(dp8028
S'drinks'
p8029
I2
ss(g5730
g4144
tp8030
(dp8031
g4145
I2
ss(g5157
g5160
tp8032
(dp8033
g4813
I2
ss(g3469
g6558
tp8034
(dp8035
g3316
I2
ss(g5144
S'hands'
p8036
tp8037
(dp8038
S'and'
p8039
I2
ss(g840
g843
tp8040
(dp8041
S'a'
I2
ss(g1599
g6015
tp8042
(dp8043
g7357
I2
ss(g6003
g1849
tp8044
(dp8045
g1850
I2
ss(g70
g3609
tp8046
(dp8047
g3610
I2
ss(g18
g21
tp8048
(dp8049
g3484
I2
ss(g1388
g1391
tp8050
(dp8051
g5488
I2
ss(g231
g234
tp8052
(dp8053
g4202
I2
ss(S'enough'
p8054
S'to'
p8055
tp8056
(dp8057
S'convince'
p8058
I2
ss(g7878
g5470
tp8059
(dp8060
g5471
I2
ss(g3358
g2874
tp8061
(dp8062
g2875
I2
ss(g6554
g6557
tp8063
(dp8064
S'of'
p8065
I2
ss(g5106
g4816
tp8066
(dp8067
g4817
I2
sg2302
I2
ss(g3363
g4670
tp8068
(dp8069
g6224
I2
sg4671
I2
sg4332
I2
ss(g1173
g1176
tp8070
(dp8071
g2536
I2
ss(g3583
g6826
tp8072
(dp8073
g4554
I2
ss(g4058
g3506
tp8074
(dp8075
g3507
I2
ss(g5450
S'hear'
p8076
tp8077
(dp8078
g6820
I2
sg3622
I2
sS'his'
p8079
I2
sg5716
I2
sg2890
I2
ss(S'to'
p8080
g3944
tp8081
(dp8082
g4072
I2
ss(g3531
g3842
tp8083
(dp8084
g240
I2
ss(S'believe'
p8085
g7785
tp8086
(dp8087
S'he'
p8088
I2
ss(g7523
g345
tp8089
(dp8090
g346
I3
ss(g1613
g6646
tp8091
(dp8092
g6049
I2
ss(g4530
g7964
tp8093
(dp8094
g2706
I2
sg8019
I2
ss(g7054
g1550
tp8095
(dp8096
g1551
I2
ss(g6866
g6869
tp8097
(dp8098
S'he'
p8099
I2
ss(g2601
g2604
tp8100
(dp8101
g7623
I2
ss(g6524
g6956
tp8102
(dp8103
g6957
I2
ss(g6420
g6423
tp8104
(dp8105
g5986
I2
ss(g1046
g7745
tp8106
(dp8107
g7288
I2
ss(g1280
g1283
tp8108
(dp8109
g2377
I2
ss(g726
g781
tp8110
(dp8111
g782
I2
ss(g3849
g1665
tp8112
(dp8113
g1666
I2
ss(g2248
g2794
tp8114
(dp8115
g2795
I2
ss(S'confess'
g1670
tp8116
(dp8117
g1671
I2
ss(g3338
g408
tp8118
(dp8119
g409
I2
ss(g3791
g2964
tp8120
(dp8121
g2965
I2
ss(g3592
g3595
tp8122
(dp8123
g7361
I2
ss(S'hed'
p8124
S'consumed'
p8125
tp8126
(dp8127
S'in'
p8128
I2
ss(g4432
g1562
tp8129
(dp8130
g1563
I2
ss(g3164
g7760
tp8131
(dp8132
g6406
I2
ss(g5063
S'without'
p8133
tp8134
(dp8135
g887
I2
ss(g3152
g175
tp8136
(dp8137
g176
I2
ss(g7469
g4831
tp8138
(dp8139
g1293
I2
ss(g4943
g4946
tp8140
(dp8141
g5997
I2
ss(g1915
g4422
tp8142
(dp8143
S'to'
p8144
I2
ss(g402
g6341
tp8145
(dp8146
g6342
I2
ss(S'force'
g3537
tp8147
(dp8148
S'answered'
p8149
I2
sS'said'
p8150
I2
ss(g7637
g7005
tp8151
(dp8152
g7006
I2
ss(g426
g429
tp8153
(dp8154
S'i'
I2
ss(S'a'
g3152
tp8155
(dp8156
g175
I2
ss(g895
S'a'
tp8157
(dp8158
g5180
I2
ss(g7040
S'admitted'
p8159
tp8160
(dp8161
g6516
I2
sg891
I2
ss(g833
S'time'
p8162
tp8163
(dp8164
S'the'
p8165
I2
ss(g5394
g8029
tp8166
(dp8167
g8124
I2
ss(g4487
g4096
tp8168
(dp8169
g4097
I2
ss(g649
g1577
tp8170
(dp8171
S'to'
p8172
I2
sg1578
I2
ss(g2779
g4784
tp8173
(dp8174
g5459
I2
ss(g2211
g2214
tp8175
(dp8176
g6103
I2
ss(g1065
g152
tp8177
(dp8178
g153
I2
ss(g7302
g7305
tp8179
(dp8180
g5614
I2
ss(g6544
g4518
tp8181
(dp8182
g4519
I2
ss(g3727
g3731
tp8183
(dp8184
g6759
I2
ss(g3668
g2731
tp8185
(dp8186
g2732
I2
ss(g3233
g2686
tp8187
(dp8188
g7984
I2
ss(g440
g443
tp8189
(dp8190
g1150
I2
ss(g5583
g5586
tp8191
(dp8192
g6937
I2
ss(g412
g4026
tp8193
(dp8194
g4027
I2
ss(g3976
g3979
tp8195
(dp8196
g7485
I2
ss(S'think'
p8197
S'i'
tp8198
(dp8199
g4052
I2
ss(g455
g2088
tp8200
(dp8201
g7212
I2
ss(g6689
g1784
tp8202
(dp8203
g1785
I2
ss(S'ill'
p8204
g283
tp8205
(dp8206
g284
I2
ss(S'for'
g3730
tp8207
(dp8208
g5583
I2
ss(g6264
g2789
tp8209
(dp8210
g2790
I2
ss(g1271
g1274
tp8211
(dp8212
g2765
I2
ss(S'silence'
p8213
g3975
tp8214
(dp8215
g3976
I2
ss(g7512
g5152
tp8216
(dp8217
g5153
I2
ss(g4116
g3511
tp8218
(dp8219
g3512
I2
sg3343
I2
ss(g2261
g5038
tp8220
(dp8221
g7469
I2
sg3719
I2
ss(S'and'
p8222
S'divorced'
p8223
tp8224
(dp8225
g3810
I2
ss(g8165
g8213
tp8226
(dp8227
g3975
I2
ss(g1941
g1944
tp8228
(dp8229
g3939
I2
ss(g6597
g4809
tp8230
(dp8231
g4810
I2
ss(S'them'
g2635
tp8232
(dp8233
g5498
I2
ss(g4627
g4630
tp8234
(dp8235
S''
I2
sS'his'
p8236
I2
sg6223
I2
ss(g4539
g7496
tp8237
(dp8238
S'to'
p8239
I2
ss(g3087
g7244
tp8240
(dp8241
S'table'
p8242
I2
sg6771
I4
ss(g5003
g5006
tp8243
(dp8244
S'i'
I2
ss(S'the'
p8245
S'effort'
p8246
tp8247
(dp8248
g1691
I2
ss(g279
g7273
tp8249
(dp8250
g7274
I2
sg3532
I2
ss(g3088
g7897
tp8251
(dp8252
S'of'
p8253
I2
ss(S'i'
g4213
tp8254
(dp8255
g4214
I2
sg3488
I2
ss(g7356
g4158
tp8256
(dp8257
g4159
I2
ss(S'me'
p8258
g2899
tp8259
(dp8260
g2900
I2
ss(g5101
g5104
tp8261
(dp8262
g7630
I2
ss(g5060
g5063
tp8263
(dp8264
g8133
I2
ss(g3706
g5443
tp8265
(dp8266
S'me'
p8267
I2
ss(g4112
g6440
tp8268
(dp8269
g7600
I2
ss(g8029
g8124
tp8270
(dp8271
g8125
I2
ss(g4138
g5603
tp8272
(dp8273
g6858
I2
ss(g2815
g7720
tp8274
(dp8275
g5900
I2
ss(g1278
g5913
tp8276
(dp8277
g6967
I2
ss(g6698
g6701
tp8278
(dp8279
g118
I2
ss(g3846
g5025
tp8280
(dp8281
g5026
I2
ss(g2843
g2846
tp8282
(dp8283
g5542
I2
ss(g6186
S'she'
p8284
tp8285
(dp8286
S'had'
p8287
I2
ss(g2320
g6023
tp8288
(dp8289
g4658
I2
ss(g2377
g2380
tp8290
(dp8291
g699
I2
sg3348
I2
ss(g2171
g2174
tp8292
(dp8293
g4298
I2
ss(g4722
g2081
tp8294
(dp8295
g2082
I2
ss(g4650
g1298
tp8296
(dp8297
g1299
I2
ss(g2421
g7969
tp8298
(dp8299
g1545
I2
ss(g6158
g5176
tp8300
(dp8301
g1251
I2
sg5177
I2
ss(g3194
g6255
tp8302
(dp8303
g7665
I2
ss(g62
g65
tp8304
(dp8305
g7196
I2
ss(g2670
g1387
tp8306
(dp8307
g1388
I2
ss(g3942
g7693
tp8308
(dp8309
g4871
I3
ss(g3227
g7900
tp8310
(dp8311
g7901
I2
ss(g7581
g1056
tp8312
(dp8313
g1057
I2
ss(g4015
g3210
tp8314
(dp8315
g3211
I2
ss(g2674
g4472
tp8316
(dp8317
g7956
I2
ss(g7258
g7261
tp8318
(dp8319
g7836
I2
ss(g4133
g7593
tp8320
(dp8321
g4020
I2
ss(S'face'
g2367
tp8322
(dp8323
g3745
I2
sS'begun'
p8324
I2
ss(g7045
g4390
tp8325
(dp8326
S'i'
I2
ss(S'bar'
g5729
tp8327
(dp8328
S'i'
I2
ss(g1498
g1501
tp8329
(dp8330
g1600
I2
ss(g1358
g1361
tp8331
(dp8332
S'i'
I2
ss(g5360
g5363
tp8333
(dp8334
g2138
I2
ss(g5751
g7757
tp8335
(dp8336
g90
I2
ss(S'to'
p8337
g5550
tp8338
(dp8339
g5551
I2
ss(g3278
g3849
tp8340
(dp8341
g1665
I2
ss(S'a'
g1419
tp8342
(dp8343
g2751
I3
ss(g3866
g128
tp8344
(dp8345
g129
I2
ss(g3466
g3469
tp8346
(dp8347
g6558
I2
ss(g2313
S'i'
tp8348
(dp8349
g5344
I2
sg1592
I2
sg999
I2
ss(S'a'
g2249
tp8350
(dp8351
g2250
I2
ss(g4904
g5888
tp8352
(dp8353
S'a'
I2
sg7695
I2
ss(g4438
g3343
tp8354
(dp8355
g3344
I2
ss(g5925
S'i'
tp8356
(dp8357
g1042
I2
sg1066
I2
sg1961
I2
sg4614
I2
sg7319
I2
sg7229
I2
sg5229
I2
sS'left'
p8358
I2
ss(g5439
g5476
tp8359
(dp8360
g5192
I3
ss(S'ever'
p8361
g4905
tp8362
(dp8363
g4906
I2
ss(g3412
g4276
tp8364
(dp8365
g4129
I2
ss(g219
g403
tp8366
(dp8367
g404
I2
ss(g501
g3786
tp8368
(dp8369
g8080
I2
sg3787
I2
ss(g5987
g5990
tp8370
(dp8371
g5704
I2
ss(g148
g151
tp8372
(dp8373
S'said'
p8374
I2
ss(g5180
g245
tp8375
(dp8376
g246
I2
ss(g6955
g2580
tp8377
(dp8378
g7241
I2
sS'feel'
p8379
I2
sg2581
I2
sg8000
I2
sg7815
I2
sg8085
I2
sg1014
I2
ss(g7482
g4740
tp8380
(dp8381
g1845
I2
sg4741
I2
ss(g1294
g1297
tp8382
(dp8383
g2133
I2
sS'when'
p8384
I2
sg6833
I2
ss(g7993
S'i'
tp8385
(dp8386
g5149
I2
ss(g1701
g476
tp8387
(dp8388
g477
I2
ss(g576
g2128
tp8389
(dp8390
g2129
I2
ss(g5822
g2754
tp8391
(dp8392
S'a'
I2
ss(g3920
g3923
tp8393
(dp8394
S'said'
p8395
I2
ss(g7623
g7626
tp8396
(dp8397
g7065
I2
ss(g896
g882
tp8398
(dp8399
g883
I2
ss(S'as'
p8400
g6876
tp8401
(dp8402
S'i'
I2
ss(g558
g561
tp8403
(dp8404
g4107
I2
ss(g6419
g962
tp8405
(dp8406
g963
I2
ss(g711
g5359
tp8407
(dp8408
g81
I4
ss(g6814
g1867
tp8409
(dp8410
g1134
I2
sg1868
I2
ss(g4879
g852
tp8411
(dp8412
g853
I2
ss(g5191
g3248
tp8413
(dp8414
g2418
I2
sg3099
I2
ss(g2688
g360
tp8415
(dp8416
g361
I2
ss(g3299
g3809
tp8417
(dp8418
S'said'
p8419
I2
sg3252
I2
ss(g3244
g3247
tp8420
(dp8421
S'had'
p8422
I2
ss(g973
g976
tp8423
(dp8424
g4708
I2
ss(g7245
g7248
tp8425
(dp8426
g7209
I2
ss(S'and'
p8427
g7015
tp8428
(dp8429
g7016
I2
ss(g1325
g6706
tp8430
(dp8431
g8427
I2
ss(g4464
S'my'
p8432
tp8433
(dp8434
g2295
I2
ss(g2453
g2456
tp8435
(dp8436
g1114
I2
ss(g4145
g1559
tp8437
(dp8438
g1312
I2
ss(g4244
g4801
tp8439
(dp8440
g5074
I2
ss(g6277
g2244
tp8441
(dp8442
g2245
I2
ss(S'wife'
g1488
tp8443
(dp8444
g1489
I2
ss(g1759
S''
tp8445
(dp8446
g3104
I3
ss(g7016
g7019
tp8447
(dp8448
S'him'
p8449
I2
ss(g3142
g5267
tp8450
(dp8451
g5268
I2
ss(S'own'
p8452
g2945
tp8453
(dp8454
g7482
I2
ss(S'have'
p8455
g7115
tp8456
(dp8457
g7061
I2
ss(g6358
g5039
tp8458
(dp8459
g5040
I2
ss(S'to'
p8460
g644
tp8461
(dp8462
g3046
I2
ss(g2060
g4310
tp8463
(dp8464
g1357
I2
ss(g2280
g1146
tp8465
(dp8466
g4065
I2
sg1147
I2
ss(g3574
g206
tp8467
(dp8468
g207
I2
ss(g5386
g3321
tp8469
(dp8470
g3322
I2
ss(g7261
g7836
tp8471
(dp8472
g7515
I2
ss(S'i'
g1524
tp8473
(dp8474
g1028
I2
ss(g5781
g4900
tp8475
(dp8476
g4901
I2
ss(g2245
g2248
tp8477
(dp8478
g2794
I2
ss(g498
g501
tp8479
(dp8480
g3786
I2
ss(g800
g2535
tp8481
(dp8482
S'you'
p8483
I2
ss(S'a'
g758
tp8484
(dp8485
S'about'
p8486
I3
sg4991
I2
sg4238
I3
ss(S'i'
g7835
tp8487
(dp8488
g1637
I2
ss(g2325
g5251
tp8489
(dp8490
S'third'
p8491
I2
ss(g699
g702
tp8492
(dp8493
g5670
I2
ss(g2581
g2584
tp8494
(dp8495
g2590
I2
ss(g28
g31
tp8496
(dp8497
g5088
I2
ss(g254
g5847
tp8498
(dp8499
g5848
I2
ss(g423
g3389
tp8500
(dp8501
g6165
I2
ss(g7212
g1527
tp8502
(dp8503
g1528
I2
ss(g6199
g3587
tp8504
(dp8505
g3588
I2
ss(g5798
g2477
tp8506
(dp8507
S'i'
I2
ss(S'what'
g2647
tp8508
(dp8509
g2648
I2
ss(g7733
g8204
tp8510
(dp8511
g283
I2
ss(g7193
S'i'
tp8512
(dp8513
S'said'
p8514
I2
ss(g4733
g1799
tp8515
(dp8516
g1800
I2
ss(g870
g3463
tp8517
(dp8518
S'his'
p8519
I2
ss(S'i'
g6663
tp8520
(dp8521
g3830
I2
ss(g5304
g5307
tp8522
(dp8523
g5925
I2
ss(g8432
g2295
tp8524
(dp8525
g2296
I2
ss(g33
S'a'
tp8526
(dp8527
g7728
I2
ss(g5545
g591
tp8528
(dp8529
g592
I2
ss(g3407
g4603
tp8530
(dp8531
g4604
I2
ss(g1476
S'a'
tp8532
(dp8533
g694
I2
ss(g4272
g4275
tp8534
(dp8535
g4440
I2
ss(S'his'
p8536
g3867
tp8537
(dp8538
g3026
I2
ss(g3134
g3137
tp8539
(dp8540
g3526
I2
ss(g4998
g6768
tp8541
(dp8542
g989
I2
ss(g2685
g3553
tp8543
(dp8544
S'i'
I2
ss(g7427
g1190
tp8545
(dp8546
g1191
I2
ss(g1096
g6809
tp8547
(dp8548
S'i'
I2
ss(g5594
g5597
tp8549
(dp8550
g3057
I2
ss(g536
g6003
tp8551
(dp8552
g1849
I2
ss(g611
g614
tp8553
(dp8554
g5282
I2
ss(g1313
g1316
tp8555
(dp8556
g2818
I2
ss(g7254
g180
tp8557
(dp8558
g181
I2
ss(g6946
g1349
tp8559
(dp8560
g1350
I2
sS'i'
I2
sg6836
I2
sS'she'
p8561
I2
ss(g2012
g2015
tp8562
(dp8563
S'a'
I2
ss(S'i'
g3096
tp8564
(dp8565
g3008
I2
ss(g3045
g7478
tp8566
(dp8567
S'have'
p8568
I2
ss(g5009
g3172
tp8569
(dp8570
g3173
I2
ss(g275
g279
tp8571
(dp8572
g7273
I2
ss(g3360
g3363
tp8573
(dp8574
g4670
I2
ss(g3007
g6489
tp8575
(dp8576
S'i'
I2
ss(g2757
S'i'
tp8577
(dp8578
g2395
I2
sg71
I2
ss(g361
g364
tp8579
(dp8580
g5685
I2
ss(g1436
g7398
tp8581
(dp8582
g7399
I2
ss(g4130
g4133
tp8583
(dp8584
g7593
I2
ss(g6504
g1985
tp8585
(dp8586
g1986
I2
ss(g3009
g3012
tp8587
(dp8588
g7605
I2
ss(g3785
g5432
tp8589
(dp8590
g502
I2
ss(g6303
g4436
tp8591
(dp8592
g5009
I2
ss(g6219
g6222
tp8593
(dp8594
g4221
I2
ss(g3825
g282
tp8595
(dp8596
g8400
I2
ss(g65
g7196
tp8597
(dp8598
g4679
I2
ss(S'here'
g8172
tp8599
(dp8600
S'listen'
p8601
I2
ss(g3578
g2970
tp8602
(dp8603
g2971
I2
ss(g609
g5974
tp8604
(dp8605
S'there'
p8606
I2
ss(g4511
g5770
tp8607
(dp8608
g6158
I2
ss(g6513
g6472
tp8609
(dp8610
g5580
I2
ss(g4034
g5327
tp8611
(dp8612
g5328
I2
ss(g7892
g3987
tp8613
(dp8614
g3988
I2
ss(S'i'
g999
tp8615
(dp8616
g8204
I2
sg1000
I2
sS'you'
p8617
I2
ss(g2390
g2394
tp8618
(dp8619
g5546
I2
ss(g5696
g5699
tp8620
(dp8621
g8536
I2
sg3792
I2
ss(S'i'
g1775
tp8622
(dp8623
g5084
I2
sg6507
I2
ss(S'want'
g7004
tp8624
(dp8625
g7848
I2
ss(g4397
g6074
tp8626
(dp8627
g6143
I2
ss(g6100
g7678
tp8628
(dp8629
g1200
I2
sg3475
I2
ss(g6318
g3894
tp8630
(dp8631
g3895
I2
ss(g7571
g4024
tp8632
(dp8633
S'a'
I2
ss(g5901
g5904
tp8634
(dp8635
g5707
I2
ss(g7170
g2561
tp8636
(dp8637
g2562
I2
ss(S'wife'
g7936
tp8638
(dp8639
S'that'
p8640
I2
ss(g1994
g2575
tp8641
(dp8642
S'to'
p8643
I2
ss(g1480
g1303
tp8644
(dp8645
g1304
I2
ss(S'write'
g7694
tp8646
(dp8647
g7432
I2
ss(g2224
g2227
tp8648
(dp8649
g4875
I3
ss(g684
g2620
tp8650
(dp8651
g2621
I2
ss(g2480
g5356
tp8652
(dp8653
S'his'
p8654
I2
ss(g5156
g309
tp8655
(dp8656
S'mind'
p8657
I2
sg4486
I2
ss(g1827
g1830
tp8658
(dp8659
S'my'
p8660
I2
ss(S'i'
g6352
tp8661
(dp8662
S'left'
p8663
I2
sg5738
I2
ss(g3073
g8197
tp8664
(dp8665
S'i'
I2
ss(g6440
g7600
tp8666
(dp8667
g375
I2
ss(g6475
S'jabbing'
p8668
tp8669
(dp8670
g5051
I2
ss(g2144
g2148
tp8671
(dp8672
g2206
I2
ss(g6445
g3281
tp8673
(dp8674
g3282
I2
sS'third'
p8675
I2
ss(g1311
g4802
tp8676
(dp8677
g1209
I2
ss(S'past'
p8678
g8245
tp8679
(dp8680
g8246
I2
ss(g127
g539
tp8681
(dp8682
S'it'
p8683
I2
ss(g8039
g1172
tp8684
(dp8685
g1173
I2
ss(g5024
S'a'
tp8686
(dp8687
g1181
I2
ss(g3701
g3337
tp8688
(dp8689
g3338
I2
ss(g2725
g3315
tp8690
(dp8691
g3698
I2
ss(g4709
g4712
tp8692
(dp8693
S'the'
p8694
I2
ss(g8384
S'she'
p8695
tp8696
(dp8697
g1223
I2
ss(g4801
g5074
tp8698
(dp8699
g5075
I2
ss(g3440
g3443
tp8700
(dp8701
g4501
I2
ss(g5765
g2912
tp8702
(dp8703
S'if'
p8704
I2
ss(g314
g3408
tp8705
(dp8706
g3409
I2
ss(g5621
g5385
tp8707
(dp8708
g5386
I2
ss(g2955
g2958
tp8709
(dp8710
g935
I2
sg7088
I2
sg2652
I2
ss(g1721
g4247
tp8711
(dp8712
g6886
I2
ss(g8159
g891
tp8713
(dp8714
g892
I2
ss(g3647
g2223
tp8715
(dp8716
g2224
I2
ss(g1027
g3019
tp8717
(dp8718
g3020
I2
ss(g8162
g8165
tp8719
(dp8720
g8213
I2
ss(g7654
g8384
tp8721
(dp8722
g8695
I2
ss(g7407
g7410
tp8723
(dp8724
g1587
I2
ss(g3943
g4261
tp8725
(dp8726
g4262
I2
ss(g3430
g7237
tp8727
(dp8728
g7238
I2
ss(S'bolger'
g7187
tp8729
(dp8730
g1822
I2
sg728
I2
sS'that'
p8731
I2
ss(g922
g925
tp8732
(dp8733
g5695
I2
ss(g5166
g6283
tp8734
(dp8735
g365
I2
ss(g4977
g7327
tp8736
(dp8737
g7786
I2
ss(g3082
g540
tp8738
(dp8739
g541
I2
ss(g1238
g1097
tp8740
(dp8741
g1098
I2
ss(g2722
g6280
tp8742
(dp8743
g7193
I2
ss(g3153
g5337
tp8744
(dp8745
g5798
I2
ss(g6243
g4913
tp8746
(dp8747
g4914
I2
ss(g1528
g1531
tp8748
(dp8749
g6564
I2
ss(g1101
S'when'
p8750
tp8751
(dp8752
g1443
I2
ss(g8379
g3417
tp8753
(dp8754
g4381
I2
ss(g7035
g6153
tp8755
(dp8756
g6154
I2
ss(g6174
g6177
tp8757
(dp8758
g7251
I2
ss(g4179
g1214
tp8759
(dp8760
g17
I2
ss(g1369
g1372
tp8761
(dp8762
S'the'
p8763
I2
ss(g5788
g5791
tp8764
(dp8765
g2077
I2
ss(g2965
S'i'
tp8766
(dp8767
S'didnt'
p8768
I2
ss(g4623
g1292
tp8769
(dp8770
g5746
I2
ss(g1377
S'control'
p8771
tp8772
(dp8773
S'of'
p8774
I2
ss(g7855
g3479
tp8775
(dp8776
g3480
I2
ss(g2010
g2828
tp8777
(dp8778
S'a'
I2
ss(g6340
g6147
tp8779
(dp8780
S'i'
I2
ss(g5785
g2625
tp8781
(dp8782
g2626
I2
ss(S'have'
g5675
tp8783
(dp8784
g2990
I2
ss(g5848
g2523
tp8785
(dp8786
S'nothing'
p8787
I2
sg2524
I2
ss(g8606
g3790
tp8788
(dp8789
g3093
I2
ss(g284
g287
tp8790
(dp8791
g6889
I2
ss(g8133
g887
tp8792
(dp8793
g888
I2
ss(g3282
g3285
tp8794
(dp8795
g2770
I2
ss(g5487
g8222
tp8796
(dp8797
g8223
I2
ss(g7360
g2929
tp8798
(dp8799
g2930
I2
ss(g1881
g5206
tp8800
(dp8801
g5207
I2
ss(g2741
g2744
tp8802
(dp8803
g3916
I2
ss(g7709
g778
tp8804
(dp8805
g435
I2
sg4947
I2
ss(g7130
S'i'
tp8806
(dp8807
g3667
I2
ss(g6331
g6334
tp8808
(dp8809
S'the'
p8810
I2
ss(g3960
g3963
tp8811
(dp8812
g6315
I2
ss(g1795
g1798
tp8813
(dp8814
g3764
I2
ss(g463
g466
tp8815
(dp8816
g797
I2
ss(g5113
g3656
tp8817
(dp8818
g3657
I2
ss(g2057
g2060
tp8819
(dp8820
g4310
I2
ss(g3709
g5867
tp8821
(dp8822
S'a'
I2
ss(g3100
g3103
tp8823
(dp8824
g8022
I2
ss(g4744
g4425
tp8825
(dp8826
g4426
I2
ss(g2132
g2279
tp8827
(dp8828
g2280
I2
ss(g3304
g2810
tp8829
(dp8830
g2811
I2
ss(g4408
g4084
tp8831
(dp8832
g4085
I2
ss(g7865
g4368
tp8833
(dp8834
g4369
I2
ss(g7367
g5201
tp8835
(dp8836
g5202
I2
ss(g1910
g3796
tp8837
(dp8838
g3797
I2
ss(g8514
g5294
tp8839
(dp8840
g866
I2
ss(g2074
g430
tp8841
(dp8842
g431
I2
ss(g7619
g6345
tp8843
(dp8844
g4970
I2
ss(S'me'
g6374
tp8845
(dp8846
g8054
I2
ss(g633
g4044
tp8847
(dp8848
S'to'
p8849
I6
ss(g249
g402
tp8850
(dp8851
g6341
I2
ss(g6758
S'a'
tp8852
(dp8853
g7077
I2
sg6561
I2
ss(g4297
g6614
tp8854
(dp8855
g6123
I2
ss(g3484
g3487
tp8856
(dp8857
g6815
I2
ss(S'fifteenyear'
p8858
g7447
tp8859
(dp8860
g7036
I2
ss(S'i'
g5604
tp8861
(dp8862
S'a'
I2
ss(g6685
g6689
tp8863
(dp8864
g1784
I2
ss(g7640
g4376
tp8865
(dp8866
g4377
I2
ss(g4178
g4950
tp8867
(dp8868
g4951
I2
ss(g5846
g6921
tp8869
(dp8870
S'and'
p8871
I2
sS'i'
I2
ss(g3178
g3181
tp8872
(dp8873
g5937
I2
ss(g7496
g8239
tp8874
(dp8875
S'me'
p8876
I2
sS'them'
p8877
I2
ss(S'their'
p8878
g8678
tp8879
(dp8880
g8245
I2
ss(g6138
g2816
tp8881
(dp8882
g7734
I2
ss(g2517
g6069
tp8883
(dp8884
g7157
I2
sg66
I2
ss(g5482
g6375
tp8885
(dp8886
S'dont'
p8887
I2
ss(S'i'
g984
tp8888
(dp8889
g985
I2
ss(g6401
g6628
tp8890
(dp8891
g4543
I2
ss(g5075
g5078
tp8892
(dp8893
g5246
I2
ss(g3201
g2331
tp8894
(dp8895
g2332
I2
ss(g3126
g3129
tp8896
(dp8897
g661
I3
sg7427
I2
ss(g139
g142
tp8898
(dp8899
g7012
I2
ss(g7835
g1637
tp8900
(dp8901
g1638
I2
ss(g7520
g6780
tp8902
(dp8903
g2502
I2
ss(g6614
g6123
tp8904
(dp8905
g5017
I2
ss(g3716
g675
tp8906
(dp8907
g676
I2
ss(g3424
g6419
tp8908
(dp8909
g962
I2
ss(g6917
g5968
tp8910
(dp8911
S'a'
I2
ss(g1682
g1685
tp8912
(dp8913
g2682
I2
ss(g1098
g1101
tp8914
(dp8915
g8750
I2
ss(g199
g5338
tp8916
(dp8917
g5339
I2
ss(g8694
g3368
tp8918
(dp8919
g3444
I4
ss(g472
g475
tp8920
(dp8921
g2154
I2
ss(g7693
g4871
tp8922
(dp8923
S'a'
I2
sg6504
I2
sg4872
I2
ss(g311
g314
tp8924
(dp8925
g3408
I2
ss(g1939
g7581
tp8926
(dp8927
g1056
I2
ss(g3264
g1260
tp8928
(dp8929
g1261
I2
ss(g7357
g7360
tp8930
(dp8931
g2929
I2
ss(g1722
g1725
tp8932
(dp8933
g5834
I2
ss(g1633
g1636
tp8934
(dp8935
g8771
I2
sg6519
I2
ss(g3501
g3815
tp8936
(dp8937
g3816
I2
ss(g4526
g4598
tp8938
(dp8939
g4599
I2
ss(g4347
g3943
tp8940
(dp8941
g4261
I2
ss(g2974
g4153
tp8942
(dp8943
g4154
I2
ss(S'me'
g3807
tp8944
(dp8945
g4803
I2
ss(g3997
g4201
tp8946
(dp8947
S'i'
I2
ss(S'and'
g22
tp8948
(dp8949
g23
I2
ss(g779
g810
tp8950
(dp8951
g811
I2
ss(g3610
g3613
tp8952
(dp8953
g8337
I2
sg2789
I2
ss(g5837
g3959
tp8954
(dp8955
g2074
I2
sg3960
I2
ss(g5657
g5660
tp8956
(dp8957
g5843
I2
ss(g988
S'when'
p8958
tp8959
(dp8960
S'i'
I2
ss(g3015
g921
tp8961
(dp8962
g922
I2
ss(g2591
g2594
tp8963
(dp8964
S'third'
p8965
I2
sg4158
I2
sg5137
I2
sg2761
I2
sg6319
I2
sg8036
I2
sS'first'
p8966
I3
ss(g1890
g1893
tp8967
(dp8968
g4068
I2
ss(g295
g298
tp8969
(dp8970
S'in'
p8971
I2
ss(g1137
S'a'
tp8972
(dp8973
S'book'
p8974
I2
ss(g2616
g2619
tp8975
(dp8976
g4257
I2
ss(g4224
g8663
tp8977
(dp8978
S'his'
p8979
I2
ss(S'i'
g5721
tp8980
(dp8981
S'to'
p8982
I2
ss(g2667
g562
tp8983
(dp8984
g563
I2
ss(g4107
g712
tp8985
(dp8986
g713
I2
ss(g7097
g5079
tp8987
(dp8988
g5080
I2
ss(g7609
g7612
tp8989
(dp8990
g3563
I2
ss(g7221
g1497
tp8991
(dp8992
g1498
I2
ss(g8246
g1691
tp8993
(dp8994
g1692
I2
ss(g985
g988
tp8995
(dp8996
g8958
I2
ss(g3018
g3518
tp8997
(dp8998
g6304
I2
ss(g511
g1632
tp8999
(dp9000
g1633
I2
ss(g830
g833
tp9001
(dp9002
g8162
I2
ss(g6789
g6727
tp9003
(dp9004
g6728
I2
ss(g1843
g8019
tp9005
(dp9006
g2045
I2
ss(g100
g103
tp9007
(dp9008
S'him'
p9009
I2
ss(g5484
g5487
tp9010
(dp9011
g8222
I2
ss(g4214
g4217
tp9012
(dp9013
g2647
I2
sg5364
I2
ss(g1256
g1259
tp9014
(dp9015
g2954
I2
ss(g955
S'i'
tp9016
(dp9017
g4981
I2
ss(g3507
g3510
tp9018
(dp9019
S'to'
p9020
I2
ss(g5634
g2409
tp9021
(dp9022
g2410
I2
ss(S'a'
g3928
tp9023
(dp9024
g6134
I2
ss(g741
g744
tp9025
(dp9026
g6717
I2
ss(g1868
g1871
tp9027
(dp9028
S'he'
p9029
I2
ss(g1428
g1431
tp9030
(dp9031
S'to'
p9032
I2
ss(S'i'
g740
tp9033
(dp9034
g741
I2
ss(S'a'
g6536
tp9035
(dp9036
g6537
I2
ss(g7341
S'i'
tp9037
(dp9038
g8455
I2
ss(g2413
g6804
tp9039
(dp9040
g195
I2
ss(g7956
g7959
tp9041
(dp9042
g6330
I2
ss(g8657
g6814
tp9043
(dp9044
g1867
I2
ss(g883
g886
tp9045
(dp9046
g958
I2
ss(g3674
g3677
tp9047
(dp9048
g7254
I2
ss(g6694
g1990
tp9049
(dp9050
g1991
I2
ss(g7088
g7091
tp9051
(dp9052
g7892
I2
ss(g2664
g4998
tp9053
(dp9054
g6768
I2
ss(S'a'
g7283
tp9055
(dp9056
g7904
I2
ss(g5268
g5271
tp9057
(dp9058
g5446
I2
sg8159
I2
ss(g1361
S'i'
tp9059
(dp9060
g913
I2
ss(g643
g1291
tp9061
(dp9062
S'me'
p9063
I2
sS'bolger'
p9064
I2
ss(g352
g355
tp9065
(dp9066
g6271
I2
ss(g8036
g8039
tp9067
(dp9068
g1172
I2
ss(g3034
g3037
tp9069
(dp9070
g4649
I2
sS'to'
p9071
I2
sg7131
I2
ss(g3530
g4250
tp9072
(dp9073
g2760
I2
ss(g4089
g4092
tp9074
(dp9075
g5891
I2
ss(g5682
g3866
tp9076
(dp9077
g128
I2
sg1642
I2
sg3000
I2
ss(g5078
g5246
tp9078
(dp9079
g5059
I2
ss(g5542
g5545
tp9080
(dp9081
g591
I2
ss(g8561
g8361
tp9082
(dp9083
g4905
I2
ss(g5219
g4293
tp9084
(dp9085
g4294
I2
sg3197
I2
ss(g6728
g610
tp9086
(dp9087
g611
I2
ss(g6116
g666
tp9088
(dp9089
g667
I2
ss(g949
g1397
tp9090
(dp9091
S'why'
p9092
I2
ss(g6706
g8427
tp9093
(dp9094
g7015
I2
ss(g6663
g3830
tp9095
(dp9096
g3831
I2
ss(g7028
g3707
tp9097
(dp9098
g6300
I2
ss(g1573
g1576
tp9099
(dp9100
S'a'
I2
sg6544
I2
ss(g3334
g5067
tp9101
(dp9102
g5068
I2
ss(g5236
g5239
tp9103
(dp9104
g7264
I2
ss(S'and'
g7673
tp9105
(dp9106
g6823
I2
ss(S'wife'
g143
tp9107
(dp9108
S'a'
I2
ss(g2575
g8643
tp9109
(dp9110
g7706
I2
ss(g158
g161
tp9111
(dp9112
g230
I2
ss(g3537
g8149
tp9113
(dp9114
g4210
I2
ss(g184
g5264
tp9115
(dp9116
g1746
I2
ss(g1245
S'a'
tp9117
(dp9118
g6918
I2
ss(g773
g776
tp9119
(dp9120
g2995
I2
ss(g3826
g3829
tp9121
(dp9122
S'not'
p9123
I2
sg5152
I2
ss(g1433
g1436
tp9124
(dp9125
g7398
I2
ss(g3672
g1255
tp9126
(dp9127
g1256
I2
ss(g4159
g3929
tp9128
(dp9129
g3930
I2
ss(S'a'
g3151
tp9130
(dp9131
g5198
I2
ss(g5928
g5931
tp9132
(dp9133
g7855
I2
ss(g1033
g1036
tp9134
(dp9135
g7637
I2
ss(g3161
g3164
tp9136
(dp9137
g7760
I2
ss(g7289
S'a'
tp9138
(dp9139
g994
I2
ss(g3069
g3073
tp9140
(dp9141
g8197
I2
ss(g7118
g4006
tp9142
(dp9143
g4007
I2
sS'in'
p9144
I2
ss(g917
g6645
tp9145
(dp9146
g1133
I2
ss(g5834
g5837
tp9147
(dp9148
g3959
I2
ss(S'i'
g7319
tp9149
(dp9150
g3768
I2
ss(g1523
g3618
tp9151
(dp9152
g2576
I2
ss(S'i'
g1776
tp9153
(dp9154
g1427
I3
ss(g4717
g6755
tp9155
(dp9156
S'believed'
p9157
I2
ss(g7115
g7061
tp9158
(dp9159
g7062
I2
ss(g1213
g5781
tp9160
(dp9161
g4329
I2
sg6866
I2
sg1844
I2
sg4900
I2
sg5380
I2
sg5235
I2
sg5470
I2
ss(g171
g174
tp9162
(dp9163
g8878
I2
ss(g6023
g4658
tp9164
(dp9165
g4659
I2
ss(g5048
g6608
tp9166
(dp9167
g6609
I2
ss(g8149
g4210
tp9168
(dp9169
g1794
I2
ss(g6717
g6720
tp9170
(dp9171
S'i'
I2
ss(g7797
g4148
tp9172
(dp9173
g4149
I2
ss(g1999
g6449
tp9174
(dp9175
g977
I2
ss(g2569
g2572
tp9176
(dp9177
g2889
I2
ss(g7668
g6475
tp9178
(dp9179
g8668
I2
ss(g3684
g1789
tp9180
(dp9181
g1790
I2
ss(g2085
g5504
tp9182
(dp9183
g3673
I2
ss(g861
g4446
tp9184
(dp9185
g1751
I2
ss(g3416
g2452
tp9186
(dp9187
g2453
I2
ss(S'a'
g4870
tp9188
(dp9189
S'i'
I2
ss(g4579
g4582
tp9190
(dp9191
S'her'
p9192
I2
ss(g5804
g5977
tp9193
(dp9194
g5978
I2
ss(g2385
g2388
tp9195
(dp9196
g425
I2
ss(g1838
g7619
tp9197
(dp9198
g6345
I2
ss(g5971
g2354
tp9199
(dp9200
g2355
I2
ss(g6651
g2414
tp9201
(dp9202
g2233
I2
ss(g592
g596
tp9203
(dp9204
g3702
I2
ss(g8058
g1555
tp9205
(dp9206
g1556
I2
ss(g4565
g4568
tp9207
(dp9208
g954
I2
ss(g1123
g6186
tp9209
(dp9210
g8284
I2
ss(g7176
g8858
tp9211
(dp9212
g7447
I2
ss(g5447
g5450
tp9213
(dp9214
g8076
I2
ss(g5731
g3734
tp9215
(dp9216
g2256
I2
ss(g8395
g777
tp9217
(dp9218
g4283
I2
ss(g3944
g4072
tp9219
(dp9220
g2031
I2
ss(g6952
g6955
tp9221
(dp9222
g2580
I2
ss(g3003
g7157
tp9223
(dp9224
g2691
I2
ss(g4810
g4164
tp9225
(dp9226
g4165
I2
ss(S'a'
g5994
tp9227
(dp9228
g2714
I2
ss(g7959
g6330
tp9229
(dp9230
g6331
I2
ss(g1399
g1402
tp9231
(dp9232
g2283
I2
ss(g6497
g6500
tp9233
(dp9234
g6947
I2
ss(g1578
g1581
tp9235
(dp9236
S'want'
p9237
I2
ss(g6222
g4221
tp9238
(dp9239
S'i'
I2
ss(g7756
g4393
tp9240
(dp9241
g4394
I2
ss(g4000
g8000
tp9242
(dp9243
g486
I2
ss(g4608
g4611
tp9244
(dp9245
g4745
I2
ss(g5685
g1465
tp9246
(dp9247
g1466
I2
ss(g1050
g3357
tp9248
(dp9249
S'i'
I2
ss(g3613
g8337
tp9250
(dp9251
g5550
I2
sg7143
I2
ss(g438
g7499
tp9252
(dp9253
g8258
I2
ss(g4443
g4771
tp9254
(dp9255
g8452
I2
ss(S'and'
g5479
tp9256
(dp9257
S'a'
I2
ss(g8887
g4043
tp9258
(dp9259
g8460
I2
sg5675
I2
ss(g4120
g225
tp9260
(dp9261
g226
I2
ss(g4575
g27
tp9262
(dp9263
g28
I2
ss(g539
g8683
tp9264
(dp9265
g5991
I2
ss(g6971
g6974
tp9266
(dp9267
g3761
I2
sg4895
I2
sS'dont'
p9268
I2
sg7257
I2
ss(g5055
g5058
tp9269
(dp9270
g1656
I2
ss(g2676
g2679
tp9271
(dp9272
g6721
I2
ss(g1697
g1700
tp9273
(dp9274
g1407
I2
ss(g3139
g3142
tp9275
(dp9276
g5267
I2
ss(g5469
g1572
tp9277
(dp9278
g1573
I2
ss(g8695
g1223
tp9279
(dp9280
g1224
I2
ss(g4461
g4464
tp9281
(dp9282
g8432
I2
ss(g7881
g7570
tp9283
(dp9284
g7948
I2
ss(S'i'
g4781
tp9285
(dp9286
g3781
I2
ss(g6836
g6839
tp9287
(dp9288
g5435
I2
ss(g390
g4479
tp9289
(dp9290
g3178
I2
sg2858
I2
ss(g8223
g3810
tp9291
(dp9292
g3811
I2
ss(g6374
g8054
tp9293
(dp9294
g8055
I2
ss(g132
g2558
tp9295
(dp9296
g2389
I2
ss(g904
g907
tp9297
(dp9298
g1129
I2
sg3991
I2
ss(g1503
g1241
tp9299
(dp9300
g1242
I2
ss(g5210
g4727
tp9301
(dp9302
g4965
I2
ss(S'a'
g157
tp9303
(dp9304
g158
I2
ss(S'a'
g5607
tp9305
(dp9306
g6420
I2
ss(g1821
g4003
tp9307
(dp9308
S'a'
I2
ss(g2908
g2911
tp9309
(dp9310
g6274
I2
ss(g1043
g1046
tp9311
(dp9312
g7745
I2
ss(g7361
g7364
tp9313
(dp9314
g824
I2
ss(g471
g5651
tp9315
(dp9316
g5652
I2
ss(g4435
S'might'
p9317
tp9318
(dp9319
g5161
I2
ss(g4555
g4558
tp9320
(dp9321
g7797
I2
ss(g8660
g3776
tp9322
(dp9323
g1704
I2
ss(g875
g7312
tp9324
(dp9325
S'to'
p9326
I2
ss(g2747
g4980
tp9327
(dp9328
g3737
I2
ss(g316
g319
tp9329
(dp9330
g1246
I2
ss(g1542
g1532
tp9331
(dp9332
g1533
I2
ss(g703
g706
tp9333
(dp9334
g4540
I2
sg680
I2
ss(g7327
g7786
tp9335
(dp9336
g5025
I2
sg2495
I2
sg7597
I2
sS'wanted'
p9337
I2
sg6441
I2
ss(g6274
g6277
tp9338
(dp9339
g2244
I2
ss(g2577
g1432
tp9340
(dp9341
g1433
I2
ss(g7815
g4387
tp9342
(dp9343
g4134
I2
ss(g5040
g5043
tp9344
(dp9345
g7313
I2
ss(g3621
g7452
tp9346
(dp9347
S'to'
p9348
I2
ss(g586
g1140
tp9349
(dp9350
g4778
I2
ss(g447
g7232
tp9351
(dp9352
S'his'
p9353
I2
ss(g1251
g1254
tp9354
(dp9355
S'of'
p9356
I2
ss(g1022
g2460
tp9357
(dp9358
g2461
I2
ss(g7948
g2595
tp9359
(dp9360
g2596
I2
ss(g556
g6820
tp9361
(dp9362
g4564
I2
ss(g8125
g8128
tp9363
(dp9364
S'his'
p9365
I2
ss(S'would'
g5235
tp9366
(dp9367
g5236
I2
ss(g7009
g9144
tp9368
(dp9369
S'the'
p9370
I2
sg2917
I2
ss(g6897
g204
tp9371
(dp9372
g4702
I2
ss(g3357
S'i'
tp9373
(dp9374
g5840
I2
ss(g67
g70
tp9375
(dp9376
g3609
I2
ss(g2369
g1736
tp9377
(dp9378
g1737
I2
ss(S'a'
g2509
tp9379
(dp9380
g2510
I2
ss(g3111
g7118
tp9381
(dp9382
g4694
I2
sg4006
I2
ss(g2435
g2881
tp9383
(dp9384
g5315
I2
ss(g6947
g6736
tp9385
(dp9386
g6737
I2
ss(g6190
g573
tp9387
(dp9388
S'i'
I2
sg9317
I2
sg7826
I2
sg6063
I2
ss(S'of'
S'a'
tp9389
(dp9390
g7302
I2
sg5874
I2
ss(g4723
g5318
tp9391
(dp9392
g5440
I2
sg5816
I2
sg1349
I2
sg86
I2
sg387
I2
ss(g6299
g779
tp9393
(dp9394
g810
I2
ss(g3625
g1726
tp9395
(dp9396
g315
I2
ss(g339
g5136
tp9397
(dp9398
S'sound'
p9399
I2
ss(S'i'
g5404
tp9400
(dp9401
g5003
I2
sg6116
I2
sS'married'
p9402
I2
sg4615
I2
ss(g6570
g1141
tp9403
(dp9404
g1142
I2
ss(g4286
g4578
tp9405
(dp9406
g4579
I2
ss(g8668
g5051
tp9407
(dp9408
g5052
I2
ss(g4685
g6170
tp9409
(dp9410
g7094
I2
ss(g1951
S'a'
tp9411
(dp9412
g745
I2
ss(g2418
g2421
tp9413
(dp9414
g7969
I2
ss(g3635
g4367
tp9415
(dp9416
g7407
I2
ss(g721
g5908
tp9417
(dp9418
g5123
I2
ss(g6826
g4554
tp9419
(dp9420
g4555
I2
ss(g6119
g6122
tp9421
(dp9422
g7190
I2
ss(g2833
g2836
tp9423
(dp9424
S'a'
I2
ss(g9317
g5161
tp9425
(dp9426
g5349
I2
sg2447
I2
ss(g5224
g7176
tp9427
(dp9428
g8678
I2
sg4225
I2
sg8858
I2
ss(g2816
g7734
tp9429
(dp9430
g7735
I2
ss(S'a'
g3227
tp9431
(dp9432
g7900
I2
ss(g8284
g8287
tp9433
(dp9434
S'to'
p9435
I2
ss(g7947
g8561
tp9436
(dp9437
g8361
I2
ss(g2998
g1953
tp9438
(dp9439
g4913
I2
sg1954
I2
sg3618
I2
sg6749
I2
sg6628
I2
ss(g4315
g4318
tp9440
(dp9441
g6694
I2
ss(g4283
g4286
tp9442
(dp9443
g4578
I2
ss.