(dp1
(S'circulated'
p2
S'at'
p3
S'the'
p4
tp5
(dp6
S'bar'
p7
I2
ss(S'want'
p8
S'to'
p9
S'know'
p10
tp11
(dp12
S'who'
p13
I2
ss(S'a'
S'friend'
p14
S'of'
p15
tp16
(dp17
S'mine'
p18
I2
ss(S'in'
p19
S'the'
p20
S'exact'
p21
tp22
(dp23
S'way'
p24
I2
ss(S'to'
p25
S'curve'
p26
S'in'
p27
tp28
(dp29
S'a'
I2
ss(S'a'
S'monument'
p30
S'to'
p31
tp32
(dp33
S'his'
p34
I2
ss(S'he'
p35
S'would'
p36
S'meet'
p37
tp38
(dp39
S'their'
p40
I2
ss(S'gave'
p41
S'him'
p42
S'a'
tp43
(dp44
S'hostile'
p45
I2
ss(S'all'
p46
S'members'
p47
S'of'
p48
tp49
(dp50
S'the'
p51
I2
ss(S'or'
p52
S'three'
p53
S'into'
p54
tp55
(dp56
S'a'
I2
ss(S'known'
p57
S'each'
p58
S'other'
p59
tp60
(dp61
S'for'
p62
I2
ss(S'way'
p63
S'i'
S'think'
p64
tp65
(dp66
S'the'
p67
I2
ss(S'of'
p68
S'everyone'
p69
S'around'
p70
tp71
(dp72
S'him'
p73
I2
ss(g40
S'look'
p74
S'with'
p75
tp76
(dp77
S'one'
p78
I2
ss(S'suspected'
p79
S'that'
p80
S'like'
p81
tp82
(dp83
S'anything'
p84
I2
ss(S'his'
p85
S'eyes'
p86
S'would'
p87
tp88
(dp89
S'not'
p90
I2
ss(S'said'
p91
S'straight'
p92
S'into'
p93
tp94
(dp95
S'his'
p96
I2
ss(S'his'
p97
S'way'
p98
S'on'
p99
tp100
(dp101
S'a'
I2
ss(S'two'
p102
S'months'
p103
S'in'
p104
tp105
(dp106
S'virtual'
p107
I2
ss(S'bottom'
p108
S'line'
p109
S'is'
p110
tp111
(dp112
S'that'
p113
I2
ss(S'he'
p114
S'saw'
p115
S'as'
p116
tp117
(dp118
S'the'
p119
I2
ss(S'doorway'
p120
S'and'
p121
S'turned'
p122
tp123
(dp124
S'to'
p125
I2
ss(S'would'
p126
S'be'
p127
S'bad'
p128
tp129
(dp130
S'for'
p131
I2
ss(S'in'
p132
S'the'
p133
S'sales'
p134
tp135
(dp136
S'force'
p137
I5
ss(S'howled'
p138
S'though'
p139
S'we'
p140
tp141
(dp142
S'were'
p143
I2
ss(S'the'
p144
S'bar'
p145
S'one'
p146
tp147
(dp148
S'day'
p149
I2
ss(S'been'
p150
S'intimate'
p151
S'with'
p152
tp153
(dp154
S'hed'
p155
I2
ss(S'kept'
p156
S'pushing'
p157
S'drinks'
p158
tp159
(dp160
S'at'
p161
I2
ss(S'i'
S'ever'
p162
S'had'
p163
tp164
(dp165
S'any'
p166
I2
ss(S'come'
p167
S'in'
p168
S'here'
p169
tp170
(dp171
S'and'
p172
I2
ss(S'been'
p173
S'with'
p174
S'another'
p175
tp176
(dp177
S'woman'
p178
I2
ss(S'with'
p179
S'your'
p180
S'journal'
p181
tp182
(dp183
S'waiting'
p184
I2
ss(S'and'
p185
S'to'
p186
S'feel'
p187
tp188
(dp189
S'his'
p190
I2
ss(S'body'
p191
S'seemed'
p192
S'to'
p193
tp194
(dp195
S'be'
p196
I2
ss(S'like'
p197
S'it'
p198
S'that'
p199
tp200
(dp201
S'he'
p202
I2
ss(S'company'
p203
S'i'
S'did'
p204
tp205
(dp206
S'retreat'
p207
I2
ss(S'cafs'
p208
S'kitchen'
p209
S'causing'
p210
tp211
(dp212
S'him'
p213
I2
ss(S'that'
p214
S'he'
p215
S'supplemented'
p216
tp217
(dp218
S'his'
p219
I2
ss(g174
g175
g178
tp220
(dp221
S'for'
p222
I2
ss(S'said'
p223
S'he'
p224
S'didnt'
p225
tp226
(dp227
S'need'
p228
I2
ss(S'you'
p229
S'come'
p230
S'to'
p231
tp232
(dp233
S'me'
p234
I2
ss(S'or'
p235
S'hostess'
p236
S'and'
p237
tp238
(dp239
S'order'
p240
I2
ss(S'drink'
p241
S'than'
p242
S'normal'
p243
tp244
(dp245
S'the'
p246
I2
ss(S'nerve'
p247
S'to'
p248
S'write'
p249
tp250
(dp251
S'what'
p252
I2
ss(S'sound'
p253
S'of'
p254
S'my'
p255
tp256
(dp257
S'voice'
p258
I2
ss(S'and'
p259
S'confrontations'
p260
S'and'
p261
tp262
(dp263
S'fighting'
p264
I2
ss(S'a'
S'sign'
p265
S'of'
p266
tp267
(dp268
S'cravenness'
p269
I2
ss(S'just'
p270
S'to'
p271
S'get'
p272
tp273
(dp274
S'rid'
p275
I2
ss(S'slept'
p276
S'with'
p277
S'any'
p278
tp279
(dp280
S'of'
p281
I2
ss(S'inside'
p282
S'and'
p283
S'outside'
p284
tp285
(dp286
S'or'
p287
I2
ss(S'in'
p288
S'back'
p289
S'with'
p290
tp291
(dp292
S'my'
p293
I2
ss(S'for'
p294
S'hed'
p295
S'won'
p296
tp297
(dp298
S'both'
p299
I2
ss(S'talking'
p300
S'nonstop'
p301
S'and'
p302
tp303
(dp304
S'barely'
p305
I2
ss(S'not'
p306
S'interfere'
p307
S'with'
p308
tp309
(dp310
S'his'
p311
I2
ss(S'would'
p312
S'cause'
p313
S'him'
p314
tp315
(dp316
S'to'
p317
I2
ss(S'first'
p318
S'wife'
p319
S'had'
p320
tp321
(dp322
S'said'
p323
I2
sS'been'
p324
I2
ss(S'in'
p325
S'town'
p326
S'but'
p327
tp328
(dp329
S'he'
p330
I2
ss(S'ever'
p331
S'go'
p332
S'back'
p333
tp334
(dp335
S'and'
p336
I2
ss(S'i'
S'hadnt'
p337
g276
tp338
(dp339
g277
I2
ss(S'whether'
p340
S'they'
p341
S'would'
p342
tp343
(dp344
S'skin'
p345
I2
ss(S'realized'
p346
S'bolger'
p347
S'his'
p348
tp349
(dp350
S'second'
p351
I2
ss(S'on'
p352
S'his'
p353
S'face'
p354
tp355
(dp356
S'while'
p357
I2
sS'had'
p358
I2
ss(S'with'
p359
S'ice'
p360
S'in'
p361
tp362
(dp363
S'it'
p364
I2
ss(S'did'
p365
S'i'
S'fear'
p366
tp367
(dp368
S'would'
p369
I2
ss(S'id'
p370
S'be'
p371
S'ashamed'
p372
tp373
(dp374
S'for'
p375
I2
ss(S'friendship'
p376
S'the'
p377
S'catalyst'
p378
tp379
(dp380
S'for'
p381
I2
ss(S''
S'or'
p382
S'you'
p383
tp384
(dp385
S'want'
p386
I2
ss(S'but'
p387
S'were'
p388
S'also'
p389
tp390
(dp391
S'customers'
p392
I2
ss(S'view'
p393
S'of'
p394
S'people'
p395
tp396
(dp397
S'as'
p398
I2
ss(S'corner'
p399
S'to'
p400
S'dominate'
p401
tp402
(dp403
S'me'
p404
I2
ss(S'night'
p405
S'when'
p406
S'id'
p407
tp408
(dp409
S'had'
p410
I2
ss(S'bar'
p411
S'and'
p412
S'to'
p413
tp414
(dp415
S'be'
p416
I2
ss(S'in'
p417
S'an'
p418
S'uncompromised'
p419
tp420
(dp421
S'way'
p422
I2
ss(S'should'
p423
S'unless'
p424
S'i'
tp425
(dp426
S'spoke'
p427
I2
ss(S'my'
p428
S'reach'
p429
S'and'
p430
tp431
(dp432
S'perhaps'
p433
I2
ss(S'off'
p434
S'the'
p435
S'ground'
p436
tp437
(dp438
S'landing'
p439
I2
ss(S'he'
p440
S'would'
p441
S'send'
p442
tp443
(dp444
S'the'
p445
I2
ss(g410
S'more'
p446
S'to'
p447
tp448
(dp449
g241
I2
ss(S'me'
p450
S'several'
p451
S'stories'
p452
tp453
(dp454
S'of'
p455
I2
ss(S'a'
S'long'
p456
S'list'
p457
tp458
(dp459
S'of'
p460
I2
ss(S'up'
p461
S'in'
p462
S'the'
p463
tp464
(dp465
S'air'
p466
I2
ss(S'chose'
p467
S'to'
p468
S'improve'
p469
tp470
(dp471
S'himself'
p472
I2
ss(S'again'
p473
S'he'
p474
S'said'
p475
tp476
(dp477
S'even'
p478
I2
ss(S'him'
p479
S'for'
p480
S'years'
p481
tp482
(dp483
S'hed'
p484
I2
ss(S'another'
p485
S'and'
p486
S'why'
p487
tp488
(dp489
S'did'
p490
I2
ss(S'filling'
p491
S'the'
p492
S'air'
p493
tp494
(dp495
S'around'
p496
I2
ss(S'seclusion'
p497
S'limiting'
p498
S'contact'
p499
tp500
(dp501
S'to'
p502
I2
ss(S'third'
p503
S'wife'
p504
S'because'
p505
tp506
(dp507
S'he'
p508
I2
ss(S'he'
p509
S'envisaged'
p510
S'with'
p511
tp512
(dp513
S'the'
p514
I2
ss(S'an'
p515
S'effort'
p516
S'to'
p517
tp518
(dp519
S'enhance'
p520
I2
ss(S'their'
p521
S'salesforce'
p522
S'position'
p523
tp524
(dp525
S'would'
p526
I2
ss(S'rip'
p527
S'it'
p528
S'off'
p529
tp530
(dp531
S'with'
p532
I2
ss(S'the'
p533
S'hell'
p534
S'out'
p535
tp536
(dp537
S'of'
p538
I2
ss(S'at'
p539
S'his'
p540
S'designated'
p541
tp542
(dp543
S'table'
p544
I3
ss(S'respect'
p545
S'me'
p546
S'as'
p547
tp548
(dp549
S'much'
p550
I2
ss(S'at'
p551
S'me'
p552
S'waiting'
p553
tp554
(dp555
S'for'
p556
I2
ss(g75
g78
S'of'
p557
tp558
(dp559
S'his'
p560
I2
ss(S'rarely'
p561
S'took'
p562
S'the'
p563
tp564
(dp565
S'floor'
p566
I2
ss(S'been'
p567
S'over'
p568
S'a'
tp569
(dp570
S'hundred'
p571
I2
ss(S'were'
p572
S'in'
p573
S'some'
p574
tp575
(dp576
S'cases'
p577
I2
ss(S'with'
p578
S'the'
p579
S'door'
p580
tp581
(dp582
S'locked'
p583
I2
ss(g122
g125
S'gaze'
p584
tp585
(dp586
S'at'
p587
I2
ss(S'with'
p588
S'bolger'
p589
S'driving'
p590
tp591
(dp592
S'while'
p593
I2
ss(S'push'
p594
S'me'
p595
S'into'
p596
tp597
(dp598
S'a'
I2
ss(S'his'
p599
S'apparent'
p600
S'hospitality'
p601
tp602
(dp603
S'though'
p604
I2
ss(S'sometimes'
p605
S'in'
p606
S'his'
p607
tp608
(dp609
S'office'
p610
I2
ss(S'he'
p611
S'wanted'
p612
S'them'
p613
tp614
(dp615
S'to'
p616
I2
ss(S'to'
p617
S'write'
p618
S'you'
p619
tp620
(dp621
S'dont'
p622
I2
ss(S'showing'
p623
S'no'
p624
S'memory'
p625
tp626
(dp627
S'of'
p628
I2
ss(S'even'
p629
S'those'
p630
S'who'
p631
tp632
(dp633
S'outwardly'
p634
I2
ss(S'didnt'
p635
S'like'
p636
S'him'
p637
tp638
(dp639
S'using'
p640
I2
ss(S'cut'
p641
S'it'
p642
S'in'
p643
tp644
(dp645
S'two'
p646
I2
ss(S'a'
S'period'
p647
S'of'
p648
tp649
(dp650
S'relative'
p651
I2
ss(S'there'
p652
S'said'
p653
S'bolger'
p654
tp655
(dp656
S'as'
p657
I2
ss(S'times'
p658
S'and'
p659
S'he'
p660
tp661
(dp662
S'didnt'
p663
I2
ss(S'other'
p664
S'women'
p665
S'than'
p666
tp667
(dp668
S'about'
p669
I2
ss(S'me'
p670
S'just'
p671
S'as'
p672
tp673
(dp674
S'hed'
p675
I2
ss(S'laughter'
p676
S'and'
p677
S'squeezed'
p678
tp679
(dp680
S'my'
p681
I2
ss(S'soon'
p682
S'as'
p683
S'i'
tp684
(dp685
S'did'
p686
I2
ss(S'married'
p687
S'to'
p688
S'her'
p689
tp690
(dp691
S'i'
I2
ss(S'to'
p692
S'tell'
p693
S'him'
p694
tp695
(dp696
S'about'
p697
I2
ss(S'his'
p698
S'relentless'
p699
S'need'
p700
tp701
(dp702
S'for'
p703
I2
ss(S'countless'
p704
S'hours'
p705
S'drinking'
p706
tp707
(dp708
S'in'
p709
I2
ss(S'make'
p710
S'any'
p711
S'sort'
p712
tp713
(dp714
S'of'
p715
I2
ss(S'visits'
p716
S'and'
p717
S'he'
p718
tp719
(dp720
S'must'
p721
I2
ss(S'man'
p722
S'shed'
p723
S'said'
p724
tp725
(dp726
S'though'
p727
I2
ss(g59
g62
S'over'
p728
tp729
(dp730
S'twenty'
p731
I2
ss(S'not'
p732
S'sit'
p733
S'down'
p734
tp735
(dp736
S'i'
I2
ss(S'hearing'
p737
S'the'
p738
S'tinkle'
p739
tp740
(dp741
S'of'
p742
I2
ss(S'me'
p743
S'she'
p744
S'said'
p745
tp746
(dp747
S'you'
p748
I2
ss(S'him'
p749
S'what'
p750
S'had'
p751
tp752
(dp753
S'provoked'
p754
I2
ss(S'see'
p755
S'why'
p756
S'she'
p757
tp758
(dp759
S'couldnt'
p760
I2
ss(S'time'
p761
S'to'
p762
S'time'
p763
tp764
(dp765
S'but'
p766
I2
ss(S'as'
p767
S'his'
p768
S'fame'
p769
tp770
(dp771
g325
I2
ss(S'static'
p772
S'line'
p773
S'and'
p774
tp775
(dp776
S'his'
p777
I2
ss(S'utterly'
p778
S'straight'
p779
S'face'
p780
tp781
(dp782
S'hed'
p783
I2
ss(S'had'
p784
S'never'
p785
S'failed'
p786
tp787
(dp788
S'to'
p789
I2
ss(S'think'
p790
S'of'
p791
S'it'
p792
tp793
(dp794
S'melting'
p795
I2
ss(S'said'
p796
S'i'
S'preferred'
p797
tp798
(dp799
S'not'
p800
I2
ss(g198
g199
g202
tp801
(dp802
S'wanted'
p803
I2
ss(S'hed'
p804
S'bedded'
p805
S'for'
p806
tp807
(dp808
S'example'
p809
I2
ss(S'women'
p810
S'and'
p811
S'i'
tp812
(dp813
S'didnt'
p814
I2
ss(g669
g340
g341
tp815
(dp816
g342
I2
ss(S'given'
p817
S'moment'
p818
S'to'
p819
tp820
(dp821
S'be'
p822
I2
ss(S'fazed'
p823
g35
g36
tp824
(dp825
g37
I2
ss(S'as'
p826
S'i'
S'took'
p827
tp828
(dp829
S'my'
p830
I2
ss(S'body'
p831
S'walked'
p832
S'to'
p833
tp834
(dp835
S'a'
I2
ss(S'have'
p836
S'a'
S'drink'
p837
tp838
(dp839
S'i'
I2
ss(S'increasingly'
p840
S'gray'
p841
S'and'
p842
tp843
(dp844
S'his'
p845
I2
ss(S'mark'
p846
S'and'
p847
S'subdued'
p848
tp849
(dp850
S'his'
p851
I2
ss(S'loud'
p852
S'voice'
p853
S'repeating'
p854
tp855
(dp856
S'his'
p857
I2
ss(S'fistfights'
p858
S'with'
p859
S'two'
p860
tp861
(dp862
S'of'
p863
I2
ss(S'if'
p864
S'i'
S'would'
p865
tp866
(dp867
g331
I2
ss(S'you'
p868
S'see'
p869
S'when'
p870
tp871
(dp872
S'you'
p873
I2
ss(S'that'
p874
S'would'
p875
S'serve'
p876
tp877
(dp878
S'as'
p879
I2
ss(S'hanging'
p880
S'all'
p881
S'over'
p882
tp883
(dp884
S'him'
p885
I2
ss(g601
g604
S'i'
tp886
(dp887
g79
I2
ss(S'best'
p888
S'reason'
p889
S'i'
tp890
(dp891
S'had'
p892
I2
ss(S'front'
p893
S'their'
p894
g376
tp895
(dp896
g377
I2
ss(g9
g10
g13
tp897
(dp898
S'im'
p899
I2
ss(S'ask'
p900
S'how'
p901
S'he'
p902
tp903
(dp904
S'counted'
p905
I2
ss(S'you'
p906
S'get'
p907
S'so'
p908
tp909
(dp910
S'disgusted'
p911
I2
ss(S'known'
p912
S'about'
p913
S'till'
p914
tp915
(dp916
S'hed'
p917
I2
ss(S'flesh'
p918
S'how'
p919
S'when'
p920
tp921
(dp922
S'skydiving'
p923
I2
ss(S'hed'
p924
S'made'
p925
S'a'
tp926
(dp927
S'mistake'
p928
I2
ss(S'presented'
p929
S'him'
p930
S'in'
p931
tp932
(dp933
S'a'
I2
ss(S'to'
p934
S'the'
p935
S'ground'
p936
tp937
(dp938
S'where'
p939
I2
ss(S'result'
p940
S'he'
p941
S'roared'
p942
tp943
(dp944
S'with'
p945
I2
ss(S'he'
p946
S'answered'
p947
g387
tp948
(dp949
g388
I2
ss(S'of'
p950
S'my'
p951
S'deficiencies'
p952
tp953
(dp954
S'as'
p955
I2
ss(g74
g75
g78
tp956
(dp957
g557
I2
ss(g351
S'wife'
p958
S'couldnt'
p959
tp960
(dp961
S'accept'
p962
I2
ss(S'together'
p963
S'as'
p964
S'couples'
p965
tp966
(dp967
S'it'
p968
I2
ss(S'with'
p969
S'him'
p970
S'when'
p971
tp972
(dp973
S'i'
I2
ss(S'relieved'
p974
S'when'
p975
S'i'
tp976
(dp977
S'abandoned'
p978
I2
ss(S'he'
p979
S'admitted'
p980
S'that'
p981
tp982
(dp983
g924
I2
ss(S'act'
p984
S'out'
p985
S'my'
p986
tp987
(dp988
S'fear'
p989
I2
ss(g541
g544
S'just'
p990
tp991
(dp992
S'inside'
p993
I2
ss(S'black'
p994
S'eyes'
p995
S'myself'
p996
tp997
(dp998
S'and'
p999
I2
ss(g580
g583
S'did'
p1000
tp1001
(dp1002
S'he'
p1003
I2
ss(S'confessed'
p1004
S'that'
p1005
S'i'
tp1006
(dp1007
S'did'
p1008
I2
ss(S'long'
p1009
S'before'
p1010
S'his'
p1011
tp1012
(dp1013
S'voice'
p1014
I2
ss(S'could'
p1015
S'pry'
p1016
S'out'
p1017
tp1018
(dp1019
S'the'
p1020
I2
ss(S'he'
p1021
S'pulled'
p1022
S'the'
p1023
tp1024
(dp1025
S'car'
p1026
I2
ss(S'i'
g204
g207
tp1027
(dp1028
S'into'
p1029
I2
ss(g284
g287
S'all'
p1030
tp1031
(dp1032
S'hell'
p1033
I2
ss(S'this'
p1034
S'hed'
p1035
S'scold'
p1036
tp1037
(dp1038
S'no'
p1039
I2
ss(S'did'
p1040
S'i'
S'have'
p1041
tp1042
(dp1043
S'to'
p1044
I2
ss(S'everyone'
p1045
S'respected'
p1046
S'him'
p1047
tp1048
(dp1049
S'for'
p1050
I2
ss(S'no'
p1051
S'interest'
p1052
S'in'
p1053
tp1054
(dp1055
S'writing'
p1056
I2
ss(g377
g378
g381
tp1057
(dp1058
S'our'
p1059
I2
ss(S'do'
p1060
S'with'
p1061
S'bolger'
p1062
tp1063
(dp1064
S'and'
p1065
I2
ss(g302
g305
S'paying'
p1066
tp1067
(dp1068
S'attention'
p1069
I2
ss(S'long'
p1070
S'enough'
p1071
S'to'
p1072
tp1073
(dp1074
S'convince'
p1075
I2
ss(S'he'
p1076
S'knew'
p1077
S'i'
tp1078
(dp1079
g635
I2
ss(S'answers'
p1080
S'to'
p1081
S'my'
p1082
tp1083
(dp1084
S'questions'
p1085
I2
ss(g248
g249
g252
tp1086
(dp1087
S'i'
I2
sS'you'
p1088
I2
ss(S'increasingly'
p1089
S'dark'
p1090
S'particularly'
p1091
tp1092
(dp1093
S'around'
p1094
I2
ss(S'hed'
p1095
g173
g174
tp1096
(dp1097
S'a'
I2
sg175
I2
ss(S'but'
p1098
S'didnt'
p1099
S'ask'
p1100
tp1101
(dp1102
S'i'
I2
ss(S'argued'
p1103
S'that'
p1104
S'the'
p1105
tp1106
(dp1107
S'totalcontrol'
p1108
I2
ss(S'as'
p1109
S'if'
p1110
S'nothing'
p1111
tp1112
(dp1113
S'had'
p1114
I2
ss(g920
g923
S'his'
p1115
tp1116
(dp1117
S'parachute'
p1118
I2
ss(g151
g152
g155
tp1119
(dp1120
S'been'
p1121
I2
ss(S'the'
p1122
S'front'
p1123
S'door'
p1124
tp1125
(dp1126
S'of'
p1127
I2
ss(S'of'
p1128
S'your'
p1129
S'hole'
p1130
tp1131
(dp1132
S'to'
p1133
I2
ss(S'loudness'
p1134
S'drunkenness'
p1135
S'womanizing'
p1136
tp1137
(dp1138
S'and'
p1139
I2
ss(S'opinion'
p1140
S'that'
p1141
S'represented'
p1142
tp1143
(dp1144
S'the'
p1145
I2
ss(S'if'
p1146
S'he'
p1147
S'ruled'
p1148
tp1149
(dp1150
S'out'
p1151
I2
ss(S'wife'
S'and'
p1152
S'nothing'
p1153
tp1154
(dp1155
S'to'
p1156
I2
ss(S'he'
p1157
S'said'
p1158
S'that'
p1159
tp1160
(dp1161
S'being'
p1162
I2
sS'on'
p1163
I2
ss(S'said'
p1164
S'at'
p1165
S'his'
p1166
tp1167
(dp1168
S'designated'
p1169
I2
ss(S'more'
p1170
S'powerful'
p1171
S'bolger'
p1172
tp1173
(dp1174
S'informed'
p1175
I2
ss(S'hed'
p1176
S'spoken'
p1177
S'with'
p1178
tp1179
(dp1180
g623
I2
ss(S'into'
p1181
S'admitting'
p1182
S'why'
p1183
tp1184
(dp1185
S'i'
I2
ss(S'his'
p1186
S'mustache'
p1187
g840
tp1188
(dp1189
g841
I2
ss(S'with'
p1190
S'two'
p1191
S'black'
p1192
tp1193
(dp1194
S'eyes'
p1195
I2
ss(S'i'
S'felt'
p1196
S'no'
p1197
tp1198
(dp1199
S'inclination'
p1200
I2
ss(S'had'
p1201
S'told'
p1202
g450
tp1203
(dp1204
g451
I2
ss(S'and'
p1205
S'ambient'
p1206
S'bar'
p1207
tp1208
(dp1209
S'noise'
p1210
I2
ss(g96
S'more'
p1211
S'or'
p1212
tp1213
(dp1214
S'less'
p1215
I2
ss(g1111
g1114
S'happened'
p1216
tp1217
(dp1218
S'i'
I2
ss(S'for'
p1219
S'whichever'
p1220
S'version'
p1221
tp1222
(dp1223
S'would'
p1224
I2
ss(S'ease'
p1225
S'speaking'
p1226
S'or'
p1227
tp1228
(dp1229
S'listening'
p1230
I2
ss(S'known'
p1231
S'to'
p1232
S'be'
p1233
tp1234
(dp1235
S'tasty'
p1236
I2
sS'terrible'
p1237
I2
ss(S'mind'
p1238
S'about'
p1239
S'what'
p1240
tp1241
(dp1242
S'he'
p1243
I2
ss(S'thought'
p1244
S'he'
p1245
S'thought'
p1246
tp1247
(dp1248
S'unless'
p1249
I2
ss(S'had'
p1250
S'a'
S'serious'
p1251
tp1252
(dp1253
S'confrontation'
p1254
I2
ss(S'person'
p1255
S'who'
p1256
S'didnt'
p1257
tp1258
(dp1259
S'speak'
p1260
I2
ss(g496
S'him'
p1261
S'his'
p1262
tp1263
(dp1264
S'romance'
p1265
I2
ss(S'hear'
p1266
S'the'
p1267
S'true'
p1268
tp1269
(dp1270
S'story'
p1271
I2
ss(S'me'
p1272
g1181
g1182
tp1273
(dp1274
g1183
I2
ss(S'you'
p1275
S'you'
p1276
S'think'
p1277
tp1278
(dp1279
S'im'
p1280
I2
ss(S'buy'
p1281
S'a'
S'hamburger'
p1282
tp1283
(dp1284
S'and'
p1285
I2
ss(S'nothing'
p1286
g692
g693
tp1287
(dp1288
g694
I2
ss(g1085
S'were'
p1289
S'beyond'
p1290
tp1291
(dp1292
g428
I2
ss(S'like'
p1293
S'the'
p1294
g253
tp1295
(dp1296
g254
I2
ss(S'surpass'
p1297
S'me'
p1298
S'without'
p1299
tp1300
(dp1301
S'noticing'
p1302
I2
ss(S'an'
p1303
S'expression'
p1304
S'of'
p1305
tp1306
(dp1307
S'an'
p1308
I2
ss(S'mentioned'
p1309
S'to'
p1310
S'him'
p1311
tp1312
(dp1313
S'any'
p1314
I2
ss(S'understand'
p1315
S'him'
p1316
S'to'
p1317
tp1318
(dp1319
S'believe'
p1320
I2
ss(S'couple'
p1321
S'or'
p1322
S'group'
p1323
tp1324
(dp1325
S'i'
I2
ss(g48
g51
S'sales'
p1326
tp1327
(dp1328
S'force'
p1329
I4
ss(S'too'
p1330
S'he'
p1331
S'sometimes'
p1332
tp1333
(dp1334
S'asked'
p1335
I2
ss(g254
g255
g258
tp1336
(dp1337
S'or'
p1338
I2
ss(S'still'
p1339
S'failed'
p1340
S'to'
p1341
tp1342
(dp1343
g755
I2
ss(S'my'
p1344
S'memory'
p1345
S'though'
p1346
tp1347
(dp1348
S'in'
p1349
I2
ss(S'a'
S'woman'
p1350
S'came'
p1351
tp1352
(dp1353
S'into'
p1354
I2
ss(S'a'
g120
g121
tp1355
(dp1356
g122
I2
ss(S'much'
p1357
S'and'
p1358
S'his'
p1359
tp1360
(dp1361
S'third'
p1362
I2
ss(g508
S'knew'
p1363
S'that'
p1364
tp1365
(dp1366
S'if'
p1367
I2
ss(g446
g447
g241
tp1368
(dp1369
g242
I2
ss(S'with'
p1370
S'him'
p1371
S'every'
p1372
tp1373
(dp1374
S'couple'
p1375
I2
ss(S'became'
p1376
S'tedious'
p1377
S'and'
p1378
tp1379
(dp1380
S'the'
p1381
I2
ss(S'merriment'
p1382
g68
g69
tp1383
(dp1384
g70
I2
ss(S'lamented'
p1385
S'and'
p1386
S'i'
tp1387
(dp1388
S'dont'
p1389
I2
ss(g683
S'i'
g686
tp1390
(dp1391
S'leave'
p1392
I2
ss(S'were'
p1393
S'other'
p1394
S'things'
p1395
tp1396
(dp1397
S'i'
I2
ss(S'me'
p1398
S'i'
S'finally'
p1399
tp1400
(dp1401
S'asked'
p1402
I2
ss(S'hand'
p1403
S'but'
p1404
S'did'
p1405
tp1406
(dp1407
g732
I2
ss(S'to'
p1408
S'the'
p1409
S'table'
p1410
tp1411
(dp1412
S'without'
p1413
I2
sg440
I2
ss(S'conversation'
p1414
S'she'
p1415
S'asked'
p1416
tp1417
(dp1418
S'what'
p1419
I2
ss(S'to'
p1420
S'trigger'
p1421
S'a'
tp1422
(dp1423
S'confession'
p1424
I2
ss(S'hed'
p1425
S'done'
p1426
S'differently'
p1427
tp1428
(dp1429
S'but'
p1430
I2
ss(g1341
g755
g756
tp1431
(dp1432
g757
I2
ss(S'too'
p1433
S'quickly'
p1434
S'to'
p1435
tp1436
(dp1437
g984
I2
ss(S'his'
p1438
S'belief'
p1439
S'in'
p1440
tp1441
(dp1442
S'his'
p1443
I2
ss(S'first'
p1444
S'wife'
p1445
S'sat'
p1446
tp1447
(dp1448
g288
I2
ss(S'if'
p1449
S'anyone'
p1450
S'did'
p1451
tp1452
(dp1453
S'his'
p1454
I2
ss(S'visit'
p1455
S'with'
p1456
S'some'
p1457
tp1458
(dp1459
S'other'
p1460
I2
ss(S'he'
p1461
S'bellowed'
p1462
S'and'
p1463
tp1464
(dp1465
S'squeezed'
p1466
I2
ss(S'he'
p1467
S'absorb'
p1468
S'his'
p1469
tp1470
(dp1471
g191
I2
ss(S'and'
p1472
S'that'
p1473
S'i'
tp1474
(dp1475
S'was'
p1476
I2
ss(S'our'
p1477
S'midsixties'
p1478
S'and'
p1479
tp1480
(dp1481
S'hed'
p1482
I2
ss(S'irked'
p1483
S'him'
p1484
S'the'
p1485
tp1486
(dp1487
S'servers'
p1488
I2
ss(g1304
g1305
g1308
tp1489
(dp1490
S'undermining'
p1491
I2
ss(S'confessed'
p1492
S'to'
p1493
S'him'
p1494
tp1495
(dp1496
g370
I2
ss(g31
g34
S'life'
p1497
tp1498
(dp1499
S'and'
p1500
I2
ss(S'a'
S'union'
p1501
S'with'
p1502
tp1503
(dp1504
S'a'
I2
ss(g573
g574
g577
tp1505
(dp1506
S'what'
p1507
I2
ss(S'look'
p1508
S'at'
p1509
S'me'
p1510
tp1511
(dp1512
S'do'
p1513
I2
ss(S'i'
S'was'
p1514
S'married'
p1515
tp1516
(dp1517
S'to'
p1518
I2
ss(S'was'
p1519
S'that'
p1520
S'she'
p1521
tp1522
(dp1523
S'wanted'
p1524
I2
ss(S'drinks'
p1525
S'hed'
p1526
S'consumed'
p1527
tp1528
(dp1529
S'in'
p1530
I2
ss(S'id'
p1531
S'never'
p1532
g1250
tp1533
(dp1534
S'a'
I2
ss(S'of'
p1535
S'beef'
p1536
S'concealed'
p1537
tp1538
(dp1539
S'under'
p1540
I2
ss(g1091
g1094
S'his'
p1541
tp1542
(dp1543
S'eyes'
p1544
I2
ss(S'bolger'
p1545
S'liked'
p1546
S'to'
p1547
tp1548
(dp1549
S'tell'
p1550
I2
ss(g928
S'on'
p1551
S'that'
p1552
tp1553
(dp1554
S'one'
p1555
I2
ss(S'traded'
p1556
S'stories'
p1557
S'with'
p1558
tp1559
(dp1560
S'but'
p1561
I2
ss(S'there'
p1562
S'that'
p1563
S'he'
p1564
tp1565
(dp1566
S'regularly'
p1567
I2
ss(S'saw'
p1568
S'myself'
p1569
S'through'
p1570
tp1571
(dp1572
S'his'
p1573
I2
ss(S'but'
p1574
S'bottom'
p1575
S'line'
p1576
tp1577
(dp1578
S'i'
I2
ss(S'you'
p1579
S'prefer'
p1580
S'it'
p1581
tp1582
(dp1583
S'most'
p1584
I2
ss(S'his'
p1585
S'suspicion'
p1586
S'that'
p1587
tp1588
(dp1589
S'id'
p1590
I2
ss(S'and'
p1591
g784
g785
tp1592
(dp1593
g786
I2
ss(S'hed'
p1594
S'stare'
p1595
S'at'
p1596
tp1597
(dp1598
S'me'
p1599
I2
ss(g757
g760
S'accept'
p1600
tp1601
(dp1602
S'the'
p1603
I2
ss(S'book'
p1604
S'written'
p1605
S'about'
p1606
tp1607
(dp1608
S'him'
p1609
I2
ss(S'who'
p1610
S'look'
p1611
S'at'
p1612
tp1613
(dp1614
S'you'
p1615
I2
ss(S'how'
p1616
S'he'
p1617
S'would'
p1618
tp1619
(dp1620
S'react'
p1621
I2
ss(S'when'
p1622
S'i'
S'finished'
p1623
tp1624
(dp1625
S'he'
p1626
I2
ss(S'customershow'
p1627
S'his'
p1628
S'shirt'
p1629
tp1630
(dp1631
S'had'
p1632
I2
ss(S'on'
p1633
S'me'
p1634
S'in'
p1635
tp1636
(dp1637
S'mexico'
p1638
I2
ss(g1036
g1039
S'ice'
p1639
tp1640
(dp1641
S'in'
p1642
I2
ss(S'their'
p1643
S'fifteenyear'
p1644
S'marriage'
p1645
tp1646
(dp1647
S'against'
p1648
I2
ss(S'provocation'
p1649
S'but'
p1650
S'i'
tp1651
(dp1652
S'also'
p1653
I2
ss(g1221
g1224
S'be'
p1654
tp1655
(dp1656
S'in'
p1657
I2
ss(S'the'
p1658
S'table'
p1659
S'even'
p1660
tp1661
(dp1662
S'pouring'
p1663
I2
ss(S'see'
p1664
S'my'
p1665
S'life'
p1666
tp1667
(dp1668
S'the'
p1669
I2
ss(S'force'
p1670
S'or'
p1671
S'as'
p1672
tp1673
(dp1674
S'a'
I2
ss(g266
g269
S'unworthy'
p1675
tp1676
(dp1677
S'of'
p1678
I2
ss(S'hams'
p1679
S'and'
p1680
S'quantities'
p1681
tp1682
(dp1683
g1535
I2
ss(S'i'
g710
g711
tp1684
(dp1685
g712
I2
ss(g1329
g946
g947
tp1686
(dp1687
g387
I2
ss(S'time'
p1688
S'so'
p1689
g229
tp1690
(dp1691
g230
I2
ss(S'reasons'
p1692
S'for'
p1693
S'withholding'
p1694
tp1695
(dp1696
S'a'
I2
ss(g1460
S'members'
p1697
S'of'
p1698
tp1699
(dp1700
S'the'
p1701
I2
ss(g768
g769
g325
tp1702
(dp1703
g326
I2
ss(S'and'
p1704
S'hug'
p1705
S'them'
p1706
tp1707
(dp1708
S'and'
p1709
I2
ss(S'with'
p1710
S'her'
p1711
S'as'
p1712
tp1713
(dp1714
S'a'
I2
ss(g1623
g1626
S'chuckled'
p1715
tp1716
(dp1717
S'son'
p1718
I2
ss(S'would'
p1719
S'snap'
p1720
S'his'
p1721
tp1722
(dp1723
S'fingers'
p1724
I2
ss(S'sex'
p1725
S'life'
p1726
S'he'
p1727
tp1728
(dp1729
S'often'
p1730
I2
ss(S'women'
p1731
S'she'
p1732
S'hadnt'
p1733
tp1734
(dp1735
g912
I2
ss(S'us'
p1736
S'in'
p1737
g893
tp1738
(dp1739
g894
I2
ss(S'bar'
p1740
S'that'
p1741
S'i'
tp1742
(dp1743
S'could'
p1744
I2
ss(S'his'
p1745
S'environment'
p1746
S'he'
p1747
tp1748
(dp1749
S'wanted'
p1750
I2
ss(S'that'
p1751
S'after'
p1752
S'his'
p1753
tp1754
(dp1755
S'death'
p1756
I2
ss(g1041
g1044
g1060
tp1757
(dp1758
g1061
I2
ss(g107
g497
g498
tp1759
(dp1760
g499
I2
ss(S'express'
p1761
S'her'
p1762
S'aggression'
p1763
tp1764
(dp1765
S'by'
p1766
I2
ss(g647
g648
g651
tp1767
(dp1768
S'solitude'
p1769
I2
ss(g354
g357
S'he'
p1770
tp1771
(dp1772
S'was'
p1773
I2
ss(S'wanting'
p1774
S'to'
p1775
S'leave'
p1776
tp1777
(dp1778
g1433
I2
ss(S'at'
p1779
S'the'
p1780
S'bar'
p1781
tp1782
(dp1783
g1109
I2
sS'his'
p1784
I2
sS'with'
p1785
I2
ss(S'thought'
p1786
S'i'
S'had'
p1787
tp1788
(dp1789
S'on'
p1790
I2
ss(S'said'
p1791
S'to'
p1792
S'him'
p1793
tp1794
(dp1795
S'and'
p1796
I2
ss(S'important'
p1797
S'thing'
p1798
S'he'
p1799
tp1800
(dp1801
S'did'
p1802
I2
ss(S'to'
p1803
S'speak'
p1804
S'giving'
p1805
tp1806
(dp1807
S'the'
p1808
I2
ss(S'throat'
p1809
S'his'
p1810
S'wives'
p1811
tp1812
(dp1813
S'couldnt'
p1814
I2
ss(S'essential'
p1815
S'part'
p1816
S'of'
p1817
tp1818
(dp1819
S'his'
p1820
I2
ss(S'forcing'
p1821
S'him'
p1822
S'to'
p1823
tp1824
(dp1825
S'unpack'
p1826
I2
ss(S'as'
p1827
S'his'
p1828
S'admirers'
p1829
tp1830
(dp1831
S'the'
p1832
I2
ss(g175
g178
g222
tp1833
(dp1834
S'a'
I2
ss(g540
g541
g544
tp1835
(dp1836
S'taking'
p1837
I2
sg990
I2
sS'he'
p1838
I2
ss(S'this'
p1839
S'question'
p1840
S'i'
tp1841
(dp1842
S'denied'
p1843
I2
ss(S'the'
p1844
S'number'
p1845
S'who'
p1846
tp1847
(dp1848
S'were'
p1849
I2
ss(g1530
S'his'
p1850
S'life'
p1851
tp1852
(dp1853
S'the'
p1854
I2
ss(g762
g763
g766
tp1855
(dp1856
S'youre'
p1857
I2
ss(S'or'
p1858
S'exwives'
p1859
S'or'
p1860
tp1861
(dp1862
S'any'
p1863
I2
ss(g970
g971
S'i'
tp1864
(dp1865
S'did'
p1866
I2
ss(g1090
g1091
g1094
tp1867
(dp1868
g1541
I2
ss(S'bolger'
p1869
S'was'
p1870
S'that'
p1871
tp1872
(dp1873
S'i'
I2
ss(S'he'
p1874
S'shouted'
p1875
S'jabbing'
p1876
tp1877
(dp1878
g670
I2
ss(g1153
g1156
S'reveal'
p1879
tp1880
(dp1881
S'about'
p1882
I2
ss(S'superiority'
p1883
S'a'
S'convoluted'
p1884
tp1885
(dp1886
S'threat'
p1887
I2
ss(S'he'
p1888
S'ever'
p1889
g467
tp1890
(dp1891
g468
I2
ss(g283
g284
g287
tp1892
(dp1893
g1030
I2
ss(S'be'
p1894
g823
g35
tp1895
(dp1896
g36
I2
ss(S'have'
p1897
S'served'
p1898
S'my'
p1899
tp1900
(dp1901
S'purpose'
p1902
I2
ss(S'again'
p1903
S'it'
p1904
S'wont'
p1905
tp1906
(dp1907
S'be'
p1908
I2
ss(S'interrupted'
p1909
S'himself'
p1910
S'to'
p1911
tp1912
(dp1913
S'greet'
p1914
I2
ss(g631
g634
S'resented'
p1915
tp1916
(dp1917
S'it'
p1918
I2
ss(S'table'
p1919
g440
g441
tp1920
(dp1921
g442
I2
ss(g699
g700
g703
tp1922
(dp1923
S'conquest'
p1924
I2
ss(S'knew'
p1925
S'id'
p1926
S'want'
p1927
tp1928
(dp1929
S'to'
p1930
I2
ss(S'forgotten'
p1931
S'bolger'
p1932
S'said'
p1933
tp1934
(dp1935
S'that'
p1936
I2
ss(S'think'
p1937
S'i'
S'dont'
p1938
tp1939
(dp1940
S'know'
p1941
I2
ss(S'and'
p1942
S'i'
S'invariably'
p1943
tp1944
(dp1945
S'felt'
p1946
I2
ss(S'the'
p1947
S'letters'
p1948
S'in'
p1949
tp1950
(dp1951
S'italics'
p1952
I2
ss(S'staff'
p1953
S'he'
p1954
S'told'
p1955
tp1956
(dp1957
S'me'
p1958
I2
ss(S'having'
p1959
S'a'
S'confession'
p1960
tp1961
(dp1962
S'to'
p1963
I2
ss(S'could'
p1964
S'know'
p1965
S'how'
p1966
tp1967
(dp1968
S'the'
p1969
I2
ss(S'to'
p1970
g1315
g1316
tp1971
(dp1972
g1317
I2
ss(S'drink'
p1973
S'if'
p1974
S'someone'
p1975
tp1976
(dp1977
S'brought'
p1978
I2
ss(S'or'
p1979
S'how'
p1980
S'they'
p1981
tp1982
(dp1983
S'reacted'
p1984
I2
ss(S'and'
p1985
S'wanting'
p1986
S'quiet'
p1987
tp1988
(dp1989
S'i'
I2
ss(g1500
S'that'
p1990
g509
tp1991
(dp1992
S'would'
p1993
I2
sg510
I2
ss(S'background'
p1994
S'music'
p1995
g1205
tp1996
(dp1997
g1206
I2
ss(S'his'
p1998
S'face'
p1999
S'what'
p2000
tp2001
(dp2002
g1040
I2
ss(S'do'
p2003
S'with'
p2004
S'me'
p2005
tp2006
(dp2007
S'i'
I2
ss(S'were'
p2008
S'known'
p2009
S'to'
p2010
tp2011
(dp2012
S'be'
p2013
I2
ss(S'drank'
p2014
g1370
g1371
tp2015
(dp2016
g1372
I2
ss(S'he'
p2017
S'fittingly'
p2018
S'said'
p2019
tp2020
(dp2021
S'since'
p2022
I2
ss(S'book'
p2023
g874
g875
tp2024
(dp2025
g876
I2
ss(g571
S'other'
p2026
g1731
tp2027
(dp2028
g1732
I2
ss(g789
S'make'
p2029
S'a'
tp2030
(dp2031
S'worker'
p2032
I2
ss(S'on'
p2033
S'anyone'
p2034
S'or'
p2035
tp2036
(dp2037
S'anything'
p2038
I2
ss(S'few'
p2039
S'minutes'
p2040
S'not'
p2041
tp2042
(dp2043
g1774
I2
ss(S'listening'
p2044
S'to'
p2045
S'me'
p2046
tp2047
(dp2048
S'and'
p2049
I2
ss(S'did'
p2050
S'not'
p2051
S'want'
p2052
tp2053
(dp2054
S'to'
p2055
I2
sS'others'
p2056
I2
ss(g723
g724
g727
tp2057
(dp2058
S'she'
p2059
I2
ss(g783
S'tried'
p2060
S'to'
p2061
tp2062
(dp2063
S'explain'
p2064
I2
ss(S'something'
p2065
S'redeeming'
p2066
S'in'
p2067
tp2068
(dp2069
g698
I2
ss(g1497
g1500
g1990
tp2070
(dp2071
g509
I2
ss(S'couldnt'
p2072
S'imagine'
p2073
S'how'
p2074
tp2075
(dp2076
S'his'
p2077
I2
ss(S'fearing'
p2078
S'which'
p2079
S'version'
p2080
tp2081
(dp2082
S'id'
p2083
I2
ss(S'and'
p2084
S'if'
p2085
S'she'
p2086
tp2087
(dp2088
S'ever'
p2089
I2
ss(g681
S'head'
p2090
S'in'
p2091
tp2092
(dp2093
S'the'
p2094
I2
ss(S'awareness'
p2095
S'and'
p2096
S'existence'
p2097
tp2098
(dp2099
S'he'
p2100
I2
ss(S'goodeat'
p2101
S'it'
p2102
S'he'
p2103
tp2104
(dp2105
S'said'
p2106
I2
ss(g604
S'i'
g79
tp2107
(dp2108
g80
I2
ss(g1240
g1243
g1786
tp2109
(dp2110
S'i'
I2
ss(g228
S'the'
p2111
S'drug'
p2112
tp2113
(dp2114
S'to'
p2115
I2
ss(g1666
g1669
S'way'
p2116
tp2117
(dp2118
S'i'
I2
ss(g1978
S'a'
S'drink'
p2119
tp2120
(dp2121
g359
I2
ss(S'ice'
p2122
g352
g353
tp2123
(dp2124
g354
I2
ss(g1875
g1876
g670
tp2125
(dp2126
g671
I2
ss(S'that'
p2127
S'you'
p2128
S'dont'
p2129
tp2130
(dp2131
S'have'
p2132
I2
ss(g412
g413
g416
tp2133
(dp2134
S'responsible'
p2135
I2
ss(g1733
g912
g913
tp2136
(dp2137
g914
I2
ss(S'asking'
p2138
S'questions'
p2139
S'that'
p2140
tp2141
(dp2142
g312
I2
ss(g2077
S'body'
p2143
S'could'
p2144
tp2145
(dp2146
S'have'
p2147
I2
ss(S'with'
p2148
S'me'
p2149
S'and'
p2150
tp2151
(dp2152
S'i'
I2
ss(S'question'
p2153
g1574
g1575
tp2154
(dp2155
g1576
I2
ss(S'nickname'
p2156
S'for'
p2157
S'me'
p2158
tp2159
(dp2160
S'there'
p2161
I2
ss(S'wrote'
p2162
S'their'
p2163
S'names'
p2164
tp2165
(dp2166
S'on'
p2167
I2
ss(S'and'
p2168
S'no'
p2169
S'desire'
p2170
tp2171
(dp2172
S'to'
p2173
I2
ss(g1785
S'women'
p2174
g880
tp2175
(dp2176
g881
I2
ss(g1389
S'think'
p2177
S'you'
p2178
tp2179
(dp2180
S'even'
p2181
I2
ss(S'want'
p2182
S'to'
p2183
S'confess'
p2184
tp2185
(dp2186
S'that'
p2187
I2
ss(S'had'
p2188
S'spilled'
p2189
S'on'
p2190
tp2191
(dp2192
S'his'
p2193
I2
ss(g1823
g1826
S'it'
p2194
tp2195
(dp2196
S'with'
p2197
I2
ss(S'too'
p2198
S'limited'
p2199
S'to'
p2200
tp2201
(dp2202
g1664
I2
ss(S'another'
p2203
g1973
g1974
tp2204
(dp2205
g1975
I2
ss(g1175
S'me'
p2206
S'more'
p2207
tp2208
(dp2209
S'than'
p2210
I2
ss(g1709
S'id'
p2211
S'hear'
p2212
tp2213
(dp2214
S'his'
p2215
I2
ss(g401
g404
S'through'
p2216
tp2217
(dp2218
g1649
I2
ss(S'publication'
p2219
S'but'
p2220
S'only'
p2221
tp2222
(dp2223
S'in'
p2224
I2
ss(g596
S'a'
g399
tp2225
(dp2226
g400
I2
ss(S'asking'
p2227
S'him'
p2228
S'but'
p2229
tp2230
(dp2231
S'his'
p2232
I2
ss(S'you'
p2233
S'cant'
p2234
S'stand'
p2235
tp2236
(dp2237
S'the'
p2238
I2
ss(S'of'
p2239
g2122
g352
tp2240
(dp2241
g353
I2
ss(S'i'
S'accepted'
p2242
S'being'
p2243
tp2244
(dp2245
S'in'
p2246
I2
ss(g907
g908
g911
tp2247
(dp2248
S'by'
p2249
I2
ss(S'mexico'
p2250
S'id'
p2251
S'been'
p2252
tp2253
(dp2254
S'in'
p2255
I2
ss(g1094
g1541
g1544
tp2256
(dp2257
g1186
I2
ss(S'not'
p2258
S'escalate'
p2259
S'to'
p2260
tp2261
(dp2262
S'blows'
p2263
I2
ss(S'want'
p2264
g2056
S'to'
p2265
tp2266
(dp2267
S'read'
p2268
I2
ss(S'who'
p2269
S'worked'
p2270
S'for'
p2271
tp2272
(dp2273
S'him'
p2274
I2
ss(g952
g955
S'a'
tp2275
(dp2276
S'man'
p2277
I2
ss(S'seemed'
p2278
S'somewhat'
p2279
S'proud'
p2280
tp2281
(dp2282
S'of'
p2283
I2
ss(S'i'
S'returned'
p2284
S'his'
p2285
tp2286
(dp2287
S'chute'
p2288
I2
ss(g1547
g1550
S'me'
p2289
tp2290
(dp2291
S'that'
p2292
I2
ss(S'bar'
p2293
g1109
g1110
tp2294
(dp2295
g1111
I2
ss(S'us'
p2296
g2203
g1973
tp2297
(dp2298
g1974
I2
ss(S'controlled'
p2299
S'everything'
p2300
S'about'
p2301
tp2302
(dp2303
g1745
I2
ss(S'along'
p2304
S'with'
p2305
S'locations'
p2306
tp2307
(dp2308
S'of'
p2309
I2
ss(g2064
g1157
g1158
tp2310
(dp2311
g1159
I2
ss(g2034
g2035
g2038
tp2312
(dp2313
S'unless'
p2314
I2
ss(S'to'
p2315
S'write'
p2316
S'and'
p2317
tp2318
(dp2319
S'you'
p2320
I2
ss(S'be'
p2321
S'forthcoming'
p2322
S'whenever'
p2323
tp2324
(dp2325
S'he'
p2326
I2
ss(S'and'
p2327
S'did'
p2328
S'whatever'
p2329
tp2330
(dp2331
S'came'
p2332
I2
ss(S'hed'
p2333
S'beat'
p2334
g533
tp2335
(dp2336
g534
I2
ss(S'a'
S'stand'
p2337
S'to'
p2338
tp2339
(dp2340
g1281
I2
ss(S'third'
p2341
S'wife'
p2342
S'smashed'
p2343
tp2344
(dp2345
S'a'
I2
ss(g1657
S'its'
p2346
S'pages'
p2347
tp2348
(dp2349
S'maybe'
p2350
I2
ss(S'up'
p2351
S'married'
p2352
S'again'
p2353
tp2354
(dp2355
S'and'
p2356
I2
ss(S'of'
p2357
S'them'
p2358
S'untouched'
p2359
tp2360
(dp2361
S'on'
p2362
I2
ss(S'their'
p2363
S'past'
p2364
S'the'
p2365
tp2366
(dp2367
S'effort'
p2368
I2
ss(g348
g351
g958
tp2369
(dp2370
g959
I2
ss(g931
S'a'
S'disparaging'
p2371
tp2372
(dp2373
S'way'
p2374
I2
ss(S'words'
p2375
S'sink'
p2376
S'in'
p2377
tp2378
(dp2379
S'ive'
p2380
I2
ss(S'he'
p2381
g1719
g1720
tp2382
(dp2383
g1721
I2
ss(g92
g93
g96
tp2384
(dp2385
g1211
I2
ss(g2268
S'details'
p2386
S'about'
p2387
tp2388
(dp2389
S'his'
p2390
I2
ss(S'thought'
p2391
S'they'
p2392
S'respected'
p2393
tp2394
(dp2395
S'him'
p2396
I2
ss(S'when'
p2397
S'he'
p2398
S'awoke'
p2399
tp2400
(dp2401
S'with'
p2402
I2
ss(g407
g410
g446
tp2403
(dp2404
g447
I2
ss(g1930
S'avoid'
p2405
S'that'
p2406
tp2407
(dp2408
g940
I2
ss(S'left'
p2409
S'his'
p2410
S'bar'
p2411
tp2412
(dp2413
S'fed'
p2414
I2
ss(S'and'
p2415
g1531
g1532
tp2416
(dp2417
g1250
I2
ss(S'he'
p2418
S'cared'
p2419
S'enough'
p2420
tp2421
(dp2422
S'at'
p2423
I2
ss(S'a'
g817
g818
tp2424
(dp2425
g819
I2
ss(S'and'
p2426
S'laughter'
p2427
g491
tp2428
(dp2429
g492
I2
ss(S'three'
p2430
S'months'
p2431
S'without'
p2432
tp2433
(dp2434
S'entering'
p2435
I2
ss(S'urge'
p2436
S'to'
p2437
S'hear'
p2438
tp2439
(dp2440
S'other'
p2441
I2
ss(S'mind'
p2442
S'id'
p2443
S'come'
p2444
tp2445
(dp2446
S'into'
p2447
I2
ss(S'end'
p2448
g2351
g2352
tp2449
(dp2450
g2353
I2
ss(S'unsure'
p2451
S'whether'
p2452
S'to'
p2453
tp2454
(dp2455
S'believe'
p2456
I2
ss(g333
g336
S'if'
p2457
tp2458
(dp2459
S'i'
I2
ss(g1781
g1785
g2174
tp2460
(dp2461
g880
I2
ss(S'decide'
p2462
S'to'
p2463
S'retaliate'
p2464
tp2465
(dp2466
S'as'
p2467
I2
ss(S'as'
p2468
S'he'
p2469
S'watched'
p2470
tp2471
(dp2472
S'his'
p2473
I2
ss(S'the'
p2474
S'two'
p2475
S'of'
p2476
tp2477
(dp2478
S'them'
p2479
I2
ss(S'admit'
p2480
S'it'
p2481
S'bolger'
p2482
tp2483
(dp2484
S'said'
p2485
I2
ss(S'some'
p2486
S'computer'
p2487
S'software'
p2488
tp2489
(dp2490
S'or'
p2491
I2
ss(S'her'
p2492
S'he'
p2493
S'told'
p2494
tp2495
(dp2496
g743
I2
ss(S'perhaps'
p2497
S'to'
p2498
S'have'
p2499
tp2500
(dp2501
S'a'
I2
ss(S'we'
p2502
S'are'
p2503
g46
tp2504
(dp2505
g47
I2
ss(g618
g619
g622
tp2506
(dp2507
S'want'
p2508
I2
ss(g1105
g1108
S'principle'
p2509
tp2510
(dp2511
S'would'
p2512
I2
ss(g1787
g1790
S'my'
p2513
tp2514
(dp2515
g2442
I2
ss(S'people'
p2516
S'from'
p2517
g761
tp2518
(dp2519
g762
I2
ss(S'knife'
p2520
S'at'
p2521
S'his'
p2522
tp2523
(dp2524
g1809
I2
ss(S'he'
p2525
g1339
g1340
tp2526
(dp2527
g1341
I2
ss(S'seemed'
p2528
S'to'
p2529
S'picture'
p2530
tp2531
(dp2532
S'himself'
p2533
I2
ss(S'her'
p2534
S'i'
S'dont'
p2535
tp2536
(dp2537
S'follow'
p2538
I2
ss(S'did'
p2539
S'accept'
p2540
g521
tp2541
(dp2542
g522
I2
ss(g811
S'i'
g814
tp2543
(dp2544
g900
I2
ss(S'into'
p2545
S'the'
p2546
S'burger'
p2547
tp2548
(dp2549
S'its'
p2550
I2
ss(g128
g131
S'business'
p2551
tp2552
(dp2553
S'and'
p2554
I2
ss(S'him'
p2555
g19
g20
tp2556
(dp2557
g21
I2
ss(S'charge'
p2558
S'him'
p2559
S'for'
p2560
tp2561
(dp2562
S'their'
p2563
I2
ss(g769
g325
g326
tp2564
(dp2565
g327
I2
ss(g1721
g1724
S'at'
p2566
tp2567
(dp2568
S'a'
I2
sS'them'
p2569
I2
ss(S'of'
p2570
S'the'
p2571
S'days'
p2572
tp2573
(dp2574
S'drinks'
p2575
I2
ss(S'was'
p2576
S'not'
p2577
S'a'
tp2578
(dp2579
g14
I2
ss(g1493
g1494
g370
tp2580
(dp2581
g371
I2
ss(S'and'
p2582
S'not'
p2583
S'me'
p2584
tp2585
(dp2586
S'and'
p2587
I2
ss(g1730
g1164
g1165
tp2588
(dp2589
g1166
I2
ss(S'write'
p2590
S'my'
p2591
S'biography'
p2592
tp2593
(dp2594
S'is'
p2595
I2
ss(g1435
g984
g985
tp2596
(dp2597
g986
I2
ss(g84
S'else'
p2598
S'he'
p2599
tp2600
(dp2601
S'did'
p2602
I2
ss(g1796
S'in'
p2603
S'my'
p2604
tp2605
(dp2606
g1140
I2
ss(S'my'
p2607
S'head'
p2608
S'eat'
p2609
tp2610
(dp2611
S'it'
p2612
I2
ss(S'too'
p2613
S'late'
p2614
S'to'
p2615
tp2616
(dp2617
S'keep'
p2618
I2
ss(S'you'
p2619
g2480
g2481
tp2620
(dp2621
g2482
I2
ss(g557
g560
S'own'
p2622
tp2623
(dp2624
S'voice'
p2625
I2
sS'if'
p2626
I2
ss(S'fill'
p2627
S'me'
p2628
S'in'
p2629
tp2630
(dp2631
S'on'
p2632
I2
ss(S'a'
g2119
g359
tp2633
(dp2634
g360
I2
ss(g2368
S'extending'
p2635
S'to'
p2636
tp2637
(dp2638
S'the'
p2639
I2
ss(S'people'
p2640
g1176
g1177
tp2641
(dp2642
g1178
I2
ss(S'listened'
p2643
S'to'
p2644
g1869
tp2645
(dp2646
g1870
I2
ss(g1082
g1085
g1289
tp2647
(dp2648
g1290
I2
ss(g1192
g1195
S'and'
p2649
tp2650
(dp2651
S'a'
I2
ss(S'over'
p2652
S'that'
p2653
g2233
tp2654
(dp2655
g2234
I2
ss(S'tired'
p2656
S'of'
p2657
S'the'
p2658
tp2659
(dp2660
S'sound'
p2661
I2
ss(g313
g314
g317
tp2662
(dp2663
S'add'
p2664
I2
ss(S'said'
p2665
S'his'
p2666
S'mounting'
p2667
tp2668
(dp2669
S'characterization'
p2670
I2
ss(g2587
S'why'
p2671
S'he'
p2672
tp2673
(dp2674
S'would'
p2675
I2
ss(g1837
S'the'
p2676
S'opportunity'
p2677
tp2678
(dp2679
S'to'
p2680
I2
ss(S'release'
p2681
S'me'
p2682
S'but'
p2683
tp2684
(dp2685
S'i'
I2
ss(g666
g669
g340
tp2686
(dp2687
g341
I2
ss(g2005
S'i'
S'told'
p2688
tp2689
(dp2690
S'her'
p2691
I2
ss(S'designated'
p2692
S'table'
p2693
g1837
tp2694
(dp2695
g2676
I2
ss(S'a'
S'prescription'
p2696
S'drug'
p2697
tp2698
(dp2699
S'he'
p2700
I2
ss(S'the'
p2701
g2293
g1109
tp2702
(dp2703
g1110
I2
ss(S'truth'
p2704
S'of'
p2705
S'his'
p2706
tp2707
(dp2708
S'appeal'
p2709
I2
ss(S'case'
p2710
S'you'
p2711
S'dont'
p2712
tp2713
(dp2714
S'want'
p2715
I2
ss(S'static'
S'line'
p2716
S'once'
p2717
tp2718
(dp2719
S'again'
p2720
I2
ss(g659
g660
g663
tp2721
(dp2722
S'care'
p2723
I2
ss(S'dominance'
p2724
g629
g630
tp2725
(dp2726
g631
I2
ss(g1254
S'with'
p2727
S'him'
p2728
tp2729
(dp2730
S'why'
p2731
I2
ss(S'his'
p2732
g831
g832
tp2733
(dp2734
g833
I2
ss(S'i'
S'went'
p2735
g2430
tp2736
(dp2737
g2431
I2
ss(g2427
g491
g492
tp2738
(dp2739
g493
I2
ss(g481
g484
S'been'
p2740
tp2741
(dp2742
S'trying'
p2743
I2
ss(S'know'
p2744
S'when'
p2745
S'she'
p2746
tp2747
(dp2748
S'married'
p2749
I2
ss(g1840
S'i'
g1843
tp2750
(dp2751
g1959
I2
ss(g1550
g2289
g2292
tp2752
(dp2753
S'he'
p2754
I2
ss(g2301
g1745
g1746
tp2755
(dp2756
g1747
I2
ss(g709
S'that'
p2757
S'chair'
p2758
tp2759
(dp2760
S'he'
p2761
I2
ss(S'had'
p2762
S'the'
p2763
S'vendor'
p2764
tp2765
(dp2766
g641
I2
ss(S'snapped'
p2767
S'his'
p2768
S'fingers'
p2769
tp2770
(dp2771
S'at'
p2772
I2
ss(S'sound'
p2773
S'familiar'
p2774
S'to'
p2775
tp2776
(dp2777
S'you'
p2778
I2
ss(S'a'
g1282
g1285
tp2779
(dp2780
g2762
I2
ss(S'hope'
p2781
S'to'
p2782
S'control'
p2783
tp2784
(dp2785
S'my'
p2786
I2
ss(g2097
g2100
S'saw'
p2787
tp2788
(dp2789
S'people'
p2790
I2
ss(S'the'
p2791
S'weight'
p2792
g2570
tp2793
(dp2794
g2571
I2
ss(S'biographer'
p2795
S'he'
p2796
S'told'
p2797
tp2798
(dp2799
S'me'
p2800
I2
ss(S'to'
p2801
S'the'
p2802
S'car'
p2803
tp2804
(dp2805
S'and'
p2806
I2
ss(S'he'
p2807
S'wished'
p2808
g1425
tp2809
(dp2810
g1426
I2
ss(g2803
g2806
S'handed'
p2811
tp2812
(dp2813
S'me'
p2814
I2
ss(g1236
S'and'
p2815
S'i'
tp2816
(dp2817
S'appreciated'
p2818
I2
ss(g814
g900
g901
tp2819
(dp2820
g902
I2
ss(S'or'
p2821
S'a'
S'bull'
p2822
tp2823
(dp2824
S'trampling'
p2825
I2
ss(S'other'
p2826
S'women'
p2827
S'was'
p2828
tp2829
(dp2830
S'an'
p2831
I2
ss(S'curtly'
p2832
S'or'
p2833
g2767
tp2834
(dp2835
g2768
I2
ss(g1159
g1162
S'with'
p2836
tp2837
(dp2838
g2826
I2
ss(g1415
g1416
g1419
tp2839
(dp2840
S'it'
p2841
I2
ss(S'begun'
p2842
g25
g26
tp2843
(dp2844
g27
I2
ss(g2806
g2811
g2814
tp2845
(dp2846
S'half'
p2847
I2
ss(g113
S'you'
p2848
S'think'
p2849
tp2850
(dp2851
S'im'
p2852
I2
ss(S'to'
p2853
S'the'
p2854
S'memory'
p2855
tp2856
(dp2857
S'of'
p2858
I2
ss(S'i'
g865
g331
tp2859
(dp2860
g332
I2
ss(S'the'
p2861
S'bar'
p2862
S'a'
tp2863
(dp2864
S'place'
p2865
I2
ss(S'asked'
p2866
S'if'
p2867
S'i'
tp2868
(dp2869
g162
I2
ss(S'example'
p2870
S'of'
p2871
S'how'
p2872
tp2873
(dp2874
S'he'
p2875
I2
ss(S'nearby'
p2876
S'plant'
p2877
g270
tp2878
(dp2879
g271
I2
ss(S'that'
p2880
S'i'
S'existed'
p2881
tp2882
(dp2883
S'how'
p2884
I2
ss(S'avoid'
p2885
S'speaking'
p2886
S'to'
p2887
tp2888
(dp2889
g2516
I2
ss(S'hearing'
p2890
S'none'
p2891
S'i'
tp2892
(dp2893
S'began'
p2894
I2
ss(S'and'
p2895
g906
g907
tp2896
(dp2897
g908
I2
ss(S'back'
p2898
S'had'
p2899
g2842
tp2900
(dp2901
g25
I2
ss(S'as'
p2902
S'symptomatic'
p2903
g950
tp2904
(dp2905
S'a'
I2
sg951
I2
ss(S'speaks'
p2906
S'to'
p2907
S'me'
p2908
tp2909
(dp2910
g1903
I2
ss(S'of'
p2911
S'comments'
p2912
S'id'
p2913
tp2914
(dp2915
S'made'
p2916
I2
ss(S'around'
p2917
S'him'
p2918
S'to'
p2919
tp2920
(dp2921
S'feel'
p2922
I2
ss(S'leave'
p2923
S'exhausted'
p2924
g1985
tp2925
(dp2926
g1986
I2
ss(S'i'
S'think'
p2927
S'ill'
p2928
tp2929
(dp2930
g1455
I2
ss(g865
g331
g332
tp2931
(dp2932
g333
I2
ss(g1518
S'my'
p2933
S'only'
p2934
tp2935
(dp2936
S'wife'
p2937
I2
ss(S'force'
p2938
S'those'
p2939
S'who'
p2940
tp2941
(dp2942
g2539
I2
ss(g2040
g2041
g1774
tp2943
(dp2944
g1775
I2
ss(S'shook'
p2945
S'my'
p2946
g1403
tp2947
(dp2948
g1404
I2
ss(S'me'
p2949
S'although'
p2950
S'i'
tp2951
(dp2952
S'doubt'
p2953
I2
ss(S'bolger'
p2954
g156
g157
tp2955
(dp2956
g158
I2
ss(S'take'
p2957
S'having'
p2958
S'his'
p2959
tp2960
(dp2961
S'skin'
p2962
I2
ss(S'you'
p2963
S'can'
p2964
S'last'
p2965
tp2966
(dp2967
S'maybe'
p2968
I2
ss(S'office'
p2969
S'screwing'
p2970
S'a'
tp2971
(dp2972
S'young'
p2973
I2
ss(S'i'
S'shook'
p2974
g2607
tp2975
(dp2976
g2608
I2
ss(S'of'
p2977
S'honor'
p2978
S'reserved'
p2979
tp2980
(dp2981
S'for'
p2982
I2
ss(S'always'
p2983
S'sat'
p2984
S'with'
p2985
tp2986
(dp2987
S'bolger'
p2988
I2
ss(S'he'
p2989
S'commented'
p2990
S'but'
p2991
tp2992
(dp2993
S'sometime'
p2994
I2
ss(g210
g213
S'to'
p2995
tp2996
(dp2997
g527
I2
ss(S'made'
p2998
g515
g516
tp2999
(dp3000
g517
I2
ss(S'lie'
p3001
S'to'
p3002
S'me'
p3003
tp3004
(dp3005
S'he'
p3006
I2
ss(S'hed'
p3007
S'dictate'
p3008
S'the'
p3009
tp3010
(dp3011
S'book'
p3012
I2
ss(g1770
g1773
S'taking'
p3013
tp3014
(dp3015
S'a'
I2
ss(g577
g1507
S'the'
p3016
tp3017
(dp3018
S'situation'
p3019
I2
ss(S'thought'
p3020
S'the'
p3021
S'most'
p3022
tp3023
(dp3024
g1797
I2
ss(g1712
S'a'
S'challenge'
p3025
tp3026
(dp3027
S'to'
p3028
I2
ss(g2978
g2979
g2982
tp3029
(dp3030
S'those'
p3031
I2
ss(g1362
S'wife'
p3032
S'reacted'
p3033
tp3034
(dp3035
S'with'
p3036
I2
ss(S'people'
p3037
g1704
g1705
tp3038
(dp3039
g1706
I2
ss(g625
g628
S'whatever'
p3040
tp3041
(dp3042
S'id'
p3043
I2
ss(S'it'
p3044
S'good'
p3045
S'he'
p3046
tp3047
(dp3048
S'asked'
p3049
I2
ss(S'feel'
p3050
S'lingering'
p3051
S'loyalty'
p3052
tp3053
(dp3054
S'toward'
p3055
I2
ss(S'interrupt'
p3056
S'me'
p3057
S'to'
p3058
tp3059
(dp3060
S'greet'
p3061
I2
ss(g323
S'nothing'
p3062
S'to'
p3063
tp3064
(dp3065
S'suggest'
p3066
I2
ss(S'mind'
p3067
S'at'
p3068
S'all'
p3069
tp3070
(dp3071
g658
I2
ss(g2135
g1219
g1220
tp3072
(dp3073
g1221
I2
ss(S'out'
p3074
S'bolger'
p3075
g2050
tp3076
(dp3077
g2051
I2
ss(g688
g689
S'i'
tp3078
(dp3079
S'didnt'
p3080
I2
sg2535
I2
ss(S'we'
p3081
S'had'
p3082
g57
tp3083
(dp3084
g58
I2
ss(S'wife'
p3085
g1519
g1520
tp3086
(dp3087
g1521
I2
ss(S'hadnt'
p3088
S'found'
p3089
S'it'
p3090
tp3091
(dp3092
S'i'
I2
ss(g1980
g1981
g1984
tp3093
(dp3094
S'and'
p3095
I2
ss(g1482
S'confided'
p3096
g214
tp3097
(dp3098
g215
I2
ss(S'subside'
p3099
S'in'
p3100
g1344
tp3101
(dp3102
g1345
I2
ss(S'once'
p3103
S'that'
p3104
S'my'
p3105
tp3106
(dp3107
g393
I2
ss(g2052
g2055
S'read'
p3108
tp3109
(dp3110
S'and'
p3111
I2
sS'a'
I2
ss(S'everything'
p3112
g2917
g2918
tp3113
(dp3114
g2919
I2
ss(g2841
S'had'
p3115
S'to'
p3116
tp3117
(dp3118
g2003
I2
ss(S'the'
p3119
S'space'
p3120
S'ice'
p3121
tp3122
(dp3123
S'occupied'
p3124
I2
ss(g951
g952
g955
tp3125
(dp3126
S'a'
I2
ss(S'he'
p3127
S'wanted'
p3128
S'to'
p3129
tp3130
(dp3131
g594
I2
sS'be'
p3132
I3
sg1266
I2
ss(S'it'
p3133
S'take'
p3134
S'you'
p3135
tp3136
(dp3137
S'to'
p3138
I2
ss(g2700
g223
g224
tp3139
(dp3140
S'stood'
p3141
I2
sg225
I2
ss(S'i'
g2881
g2884
tp3142
(dp3143
S'could'
p3144
I2
ss(S'noticed'
p3145
S'me'
p3146
S'there'
p3147
tp3148
(dp3149
S'and'
p3150
I2
ss(S'tried'
p3151
S'to'
p3152
S'steal'
p3153
tp3154
(dp3155
S'from'
p3156
I2
ss(g574
g577
g1507
tp3157
(dp3158
g3016
I2
ss(S'and'
p3159
S'drink'
p3160
g2148
tp3161
(dp3162
g2149
I2
ss(S'as'
p3163
S'if'
p3164
S'his'
p3165
tp3166
(dp3167
S'eyes'
p3168
I2
ss(g27
S'a'
S'way'
p3169
tp3170
(dp3171
S'that'
p3172
I2
ss(S'like'
p3173
S'to'
p3174
S'hear'
p3175
tp3176
(dp3177
S'yourself'
p3178
I2
ss(S'while'
p3179
S'he'
p3180
S'slept'
p3181
tp3182
(dp3183
S'and'
p3184
I2
ss(S'wife'
p3185
S'not'
p3186
S'while'
p3187
tp3188
(dp3189
S'he'
p3190
I2
ss(g1544
g1186
g1187
tp3191
(dp3192
g840
I2
ss(S'didnt'
p3193
g197
g198
tp3194
(dp3195
S'one'
p3196
I2
sg199
I2
ss(g1540
S'their'
p3197
S'coats'
p3198
tp3199
(dp3200
S'and'
p3201
I2
ss(g1876
g670
g671
tp3202
(dp3203
g672
I2
ss(S'this'
p3204
S'part'
p3205
S'of'
p3206
tp3207
(dp3208
S'his'
p3209
I2
ss(g675
S'forced'
p3210
S'the'
p3211
tp3212
(dp3213
S'hamburger'
p3214
I2
ss(g3006
S'smiled'
p3215
g2468
tp3216
(dp3217
g2469
I2
ss(S'force'
p3218
S'i'
S'didnt'
p3219
tp3220
(dp3221
S'like'
p3222
I2
ss(g822
S'bothered'
p3223
S'bolger'
p3224
tp3225
(dp3226
g1201
I2
ss(S'as'
p3227
g1357
g1358
tp3228
(dp3229
g1359
I2
ss(S'drink'
p3230
S'away'
p3231
S'how'
p3232
tp3233
(dp3234
S'long'
p3235
I2
ss(g853
g854
g857
tp3236
(dp3237
S'favorite'
p3238
I2
ss(S'went'
p3239
S'to'
p3240
S'a'
tp3241
(dp3242
g2337
I2
ss(S'customers'
p3243
S'or'
p3244
g1146
tp3245
(dp3246
g1147
I2
ss(S'i'
g1744
S'tell'
p3247
tp3248
(dp3249
S'hed'
p3250
I2
ss(g2875
S'might'
p3251
S'behave'
p3252
tp3253
(dp3254
S'better'
p3255
I2
ss(S'him'
p3256
S'bolger'
p3257
S'said'
p3258
tp3259
(dp3260
S'his'
p3261
I2
ss(g3144
S'i'
g710
tp3262
(dp3263
g711
I2
ss(S'me'
p3264
S'from'
p3265
S'growing'
p3266
tp3267
(dp3268
S'into'
p3269
I2
ss(g607
g610
g578
tp3270
(dp3271
g579
I2
ss(g1187
g840
g841
tp3272
(dp3273
g842
I2
ss(S'really'
p3274
g1937
S'i'
tp3275
(dp3276
g1938
I2
ss(S'saw'
p3277
S'it'
p3278
S'and'
p3279
tp3280
(dp3281
S'when'
p3282
I2
ss(g2200
g1664
g1665
tp3283
(dp3284
g1666
I2
ss(g2271
g2274
g611
tp3285
(dp3286
g612
I2
ss(S'i'
S'spoke'
p3287
S'and'
p3288
tp3289
(dp3290
g1622
I2
ss(g1715
g1718
g1461
tp3291
(dp3292
g1462
I2
ss(g654
g657
S'if'
p3293
tp3294
(dp3295
S'the'
p3296
I2
ss(S'their'
p3297
S'divorce'
p3298
S'and'
p3299
tp3300
(dp3301
S'probably'
p3302
I2
ss(g1660
g1663
S'two'
p3303
tp3304
(dp3305
g52
I2
ss(S'the'
p3306
S'circumstances'
p3307
S'surrounding'
p3308
tp3309
(dp3310
S'the'
p3311
I2
ss(g2255
S'the'
p3312
S'front'
p3313
tp3314
(dp3315
S'seat'
p3316
I2
ss(g819
g822
g3223
tp3317
(dp3318
g3224
I2
ss(S'me'
p3319
S'and'
p3320
S'he'
p3321
tp3322
(dp3323
g1925
I2
sS'trusted'
p3324
I2
ss(S'to'
p3325
S'learn'
p3326
S'information'
p3327
tp3328
(dp3329
S'about'
p3330
I2
ss(S'hed'
p3331
S'intimidated'
p3332
S'with'
p3333
tp3334
(dp3335
S'violence'
p3336
I2
ss(g830
S'first'
p3337
S'taste'
p3338
tp3339
(dp3340
S'son'
p3341
I2
ss(S'to'
S'see'
p3342
S'a'
tp3343
(dp3344
S'book'
p3345
I2
ss(g3232
g3235
S'will'
p3346
tp3347
(dp3348
g3133
I2
ss(g1053
g1056
S'the'
p3349
tp3350
(dp3351
S'book'
p3352
I2
ss(g1558
g1561
S'occasionally'
p3353
tp3354
(dp3355
S'a'
I2
ss(g2740
g2743
S'to'
p3356
tp3357
(dp3358
S'convince'
p3359
I2
ss(S'i'
g2688
g2691
tp3360
(dp3361
S'that'
p3362
I2
ss(S'might'
p3363
g2321
g2322
tp3364
(dp3365
g2323
I2
ss(S'it'
p3366
S'he'
p3367
S'said'
p3368
tp3369
(dp3370
S'i'
I2
sS'again'
p3371
I2
ss(S'himself'
p3372
g1894
g823
tp3373
(dp3374
g35
I2
ss(S'you'
p3375
S'like'
p3376
S'it'
p3377
tp3378
(dp3379
S'or'
p3380
I2
ss(g2004
g2005
S'i'
tp3381
(dp3382
g2688
I2
ss(g2019
g2022
S'he'
p3383
tp3384
(dp3385
g2528
I2
ss(S'selfimage'
p3386
S'or'
p3387
S'a'
tp3388
(dp3389
S'version'
p3390
I2
ss(g382
g383
g386
tp3391
(dp3392
S'to'
p3393
I2
ss(S'spoke'
p3394
S'to'
p3395
S'them'
p3396
tp3397
(dp3398
g2832
I2
ss(g1910
g1911
g1914
tp3399
(dp3400
S'an'
p3401
I2
ss(S'italics'
p3402
S'only'
p3403
S'he'
p3404
tp3405
(dp3406
g1964
I2
ss(S'grease'
p3407
g2188
g2189
tp3408
(dp3409
g2190
I2
ss(g1195
g2649
S'a'
tp3410
(dp3411
S'swollen'
p3412
I2
ss(S'the'
p3413
g1994
g1995
tp3414
(dp3415
g1205
I2
ss(S'stared'
p3416
g551
g552
tp3417
(dp3418
g553
I2
ss(g14
g15
g18
tp3419
(dp3420
S'but'
p3421
I2
ss(g2683
S'i'
S'had'
p3422
tp3423
(dp3424
g1286
I2
ss(g3002
g3003
g3006
tp3425
(dp3426
g3215
I2
ss(g1026
S'over'
p3427
S'and'
p3428
tp3429
(dp3430
g3239
I2
ss(S'me'
p3431
S'alone'
p3432
S'at'
p3433
tp3434
(dp3435
S'the'
p3436
I2
ss(S'she'
p3437
S'started'
p3438
S'the'
p3439
tp3440
(dp3441
g1414
I2
ss(S'or'
p3442
S'if'
p3443
S'he'
p3444
tp3445
(dp3446
S'entered'
p3447
I2
sS'knew'
p3448
I2
sg1148
I2
ss(S'sales'
p3449
S'force'
p3450
S'id'
p3451
tp3452
(dp3453
S'told'
p3454
I2
ss(S'i'
g1476
S'exhausted'
p3455
tp3456
(dp3457
S'when'
p3458
I2
ss(g3444
g3447
S'them'
p3459
tp3460
(dp3461
S'on'
p3462
I2
ss(S'his'
p3463
S'drinks'
p3464
g2008
tp3465
(dp3466
g2009
I2
ss(S'that'
p3467
S'he'
p3468
S'thought'
p3469
tp3470
(dp3471
g3363
I2
ss(g860
g863
S'them'
p3472
tp3473
(dp3474
g300
I2
sS'in'
p3475
I2
ss(g1227
g1230
S'to'
p3476
tp3477
(dp3478
S'them'
p3479
I2
ss(g3209
S'nature'
p3480
S'either'
p3481
tp3482
(dp3483
S'which'
p3484
I2
ss(S'i'
g91
g92
tp3485
(dp3486
g93
I2
ss(g110
g113
g2848
tp3487
(dp3488
g2849
I2
sg2129
I2
ss(g1650
S'i'
g1653
tp3489
(dp3490
S'didnt'
p3491
I2
ss(S'to'
p3492
S'me'
p3493
S'was'
p3494
tp3495
(dp3496
g1585
I2
ss(S'should'
p3497
S'be'
p3498
S'in'
p3499
tp3500
(dp3501
S'the'
p3502
I2
ss(g803
S'to'
p3503
g594
tp3504
(dp3505
g595
I2
ss(g2326
S'asked'
p3506
S'me'
p3507
tp3508
(dp3509
g1839
I2
ss(S'heard'
p3510
S'his'
p3511
S'voice'
p3512
tp3513
(dp3514
S'immediately'
p3515
I2
ss(g3178
S'talk'
p3516
S'youd'
p3517
tp3518
(dp3519
S'rather'
p3520
I2
ss(g3349
g3352
S'was'
p3521
tp3522
(dp3523
S'that'
p3524
I2
ss(S'with'
p3525
S''
g382
tp3526
(dp3527
S'to'
p3528
I2
sg383
I2
ss(S'married'
p3529
S'to'
p3530
S'his'
p3531
tp3532
(dp3533
S'first'
p3534
I2
ss(S'you'
p3535
S'listen'
p3536
S'the'
p3537
tp3538
(dp3539
g108
I2
ss(S'with'
p3540
S'her'
p3541
S'purse'
p3542
tp3543
(dp3544
g3179
I2
ss(g3321
g3324
S'me'
p3545
tp3546
(dp3547
S'to'
p3548
I2
ss(S'i'
S'think'
p3549
S'you'
p3550
tp3551
(dp3552
S'come'
p3553
I2
ss(S'couldnt'
p3554
g2957
g2958
tp3555
(dp3556
g2959
I2
ss(g3296
g2704
g2705
tp3557
(dp3558
g2706
I2
ss(S'less'
p3559
S'about'
p3560
S'his'
p3561
tp3562
(dp3563
S'wives'
p3564
I2
ss(g1421
S'a'
g1424
tp3565
(dp3566
S'about'
p3567
I2
ss(S'in'
p3568
S'his'
p3569
S'sleep'
p3570
tp3571
(dp3572
S'bolger'
p3573
I2
ss(g875
g876
g879
tp3574
(dp3575
S'a'
I2
ss(S'time'
p3576
S'he'
p3577
S'refused'
p3578
tp3579
(dp3580
S'to'
p3581
I2
ss(g3353
S'a'
g1350
tp3582
(dp3583
g1351
I2
ss(g2229
g2232
S'voice'
p3584
tp3585
(dp3586
S'still'
p3587
I2
ss(S'i'
S'left'
p3588
S'his'
p3589
tp3590
(dp3591
g203
I2
ss(g2038
g2314
S'i'
tp3592
(dp3593
g2998
I2
ss(S'the'
p3594
S'book'
p3595
S'your'
p3596
tp3597
(dp3598
S'outlook'
p3599
I2
ss(g3472
g3475
S'front'
p3600
tp3601
(dp3602
S'of'
p3603
I2
ss(g2625
S'and'
p3604
S'he'
p3605
tp3606
(dp3607
S'saw'
p3608
I2
ss(S'to'
p3609
S'confess'
p3610
S'she'
p3611
tp3612
(dp3613
S'didnt'
p3614
I2
ss(g1826
g2194
g2197
tp3615
(dp3616
S'his'
p3617
I2
ss(g269
g1675
g1678
tp3618
(dp3619
S'my'
p3620
I2
ss(g1654
g1657
g2346
tp3621
(dp3622
g2347
I2
ss(S'ordered'
p3623
S'a'
S'drink'
p3624
tp3625
(dp3626
S'and'
p3627
I2
ss(S'my'
p3628
S'opinion'
p3629
S'he'
p3630
tp3631
(dp3632
S'wasnt'
p3633
I2
ss(g2894
S'to'
p3634
S'wonder'
p3635
tp3636
(dp3637
g864
I2
ss(S'pad'
p3638
g3442
g3443
tp3639
(dp3640
g3444
I2
ss(g289
g290
g293
tp3641
(dp3642
S'wife'
p3643
I2
ss(g1621
S'when'
p3644
S'he'
p3645
tp3646
(dp3647
S'saw'
p3648
I2
ss(g947
g387
g388
tp3649
(dp3650
g389
I2
ss(g3605
g3608
S'me'
p3651
tp3652
(dp3653
S'and'
p3654
I2
sS'as'
p3655
I2
ss(S'up'
p3656
S'with'
p3657
S'him'
p3658
tp3659
(dp3660
S'talking'
p3661
I2
ss(S''
S'or'
p3662
g3528
tp3663
(dp3664
S'browbeat'
p3665
I2
ss(g3377
g3380
S'not'
p3666
tp3667
(dp3668
S'you'
p3669
I2
ss(g2435
S'bolgers'
p3670
S'bar'
p3671
tp3672
(dp3673
S'but'
p3674
I2
ss(g1121
S'with'
p3675
S'a'
tp3676
(dp3677
g456
I2
ss(g1145
S'fundamental'
p3678
S'difference'
p3679
tp3680
(dp3681
S'between'
p3682
I2
ss(S'if'
p3683
S'he'
p3684
g3448
tp3685
(dp3686
S'the'
p3687
I2
ss(S'that'
p3688
g2153
g1574
tp3689
(dp3690
g1575
I2
ss(g2691
g3362
S'if'
p3691
tp3692
(dp3693
S'you'
p3694
I2
ss(g2529
g2530
g2533
tp3695
(dp3696
S'living'
p3697
I2
ss(S'the'
p3698
S'time'
p3699
S'but'
p3700
tp3701
(dp3702
g1579
I2
ss(S'slugged'
p3703
S'him'
p3704
g3540
tp3705
(dp3706
g3541
I2
ss(S'might'
p3707
S'cause'
p3708
S'social'
p3709
tp3710
(dp3711
S'media'
p3712
I2
ss(g2018
g2019
g2022
tp3713
(dp3714
g3383
I2
ss(g3393
S'listen'
p3715
S'to'
p3716
tp3717
(dp3718
S'me'
p3719
I3
ss(g1693
g1694
S'a'
tp3720
(dp3721
S'thorough'
p3722
I2
ss(S'acquaintances'
p3723
S'at'
p3724
g2701
tp3725
(dp3726
g2293
I2
ss(g2680
S'flee'
p3727
S'when'
p3728
tp3729
(dp3730
S'he'
p3731
I2
ss(g2073
g2074
g2077
tp3732
(dp3733
g2143
I2
ss(S'see'
p3734
S'fit'
p3735
S'to'
p3736
tp3737
(dp3738
g2558
I2
ss(g3214
g1633
g1634
tp3739
(dp3740
g1635
I2
ss(S'more'
p3741
S'frequently'
p3742
S'near'
p3743
tp3744
(dp3745
S'holidays'
p3746
I2
ss(S'than'
p3747
S'control'
p3748
S'of'
p3749
tp3750
(dp3751
S'everyone'
p3752
I2
ss(S'left'
p3753
g2732
g831
tp3754
(dp3755
g832
I2
ss(S'face'
p3756
g358
S'become'
p3757
tp3758
(dp3759
g1089
I2
ss(S'him'
p3760
S'that'
p3761
S'i'
tp3762
(dp3763
g796
I2
ss(S'forward'
p3764
S'to'
p3765
S'your'
p3766
tp3767
(dp3768
S'stretches'
p3769
I2
ss(S'first'
p3770
g3185
g3186
tp3771
(dp3772
g3187
I2
ss(g1555
S'without'
p3773
S'specifying'
p3774
tp3775
(dp3776
S'what'
p3777
I2
ss(S'us'
p3778
S'took'
p3779
S'to'
p3780
tp3781
(dp3782
g2250
I2
ss(S'yourself'
p3783
S'over'
p3784
S'and'
p3785
tp3786
(dp3787
g2652
I2
ss(S'his'
p3788
S'trousers'
p3789
S'and'
p3790
tp3791
(dp3792
S'hed'
p3793
I2
ss(g3484
S'didnt'
p3794
S'seem'
p3795
tp3796
(dp3797
S'to'
p3798
I2
ss(S'walked'
p3799
S'into'
p3800
g144
tp3801
(dp3802
g145
I2
ss(S'people'
p3803
S'when'
p3804
S'you'
p3805
tp3806
(dp3807
S'come'
p3808
I2
ss(S'bolger'
p3809
S'said'
p3810
S'verbally'
p3811
tp3812
(dp3813
S'swaggering'
p3814
I2
ss(S'be'
p3815
S'inside'
p3816
S'the'
p3817
tp3818
(dp3819
S'head'
p3820
I2
ss(g78
g557
g560
tp3821
(dp3822
g2622
I2
ss(g1314
S'of'
p3823
S'the'
p3824
tp3825
(dp3826
S'sources'
p3827
I2
ss(g1816
g1817
g1820
tp3828
(dp3829
S'nature'
p3830
I3
ss(S'with'
p3831
S'as'
p3832
S'far'
p3833
tp3834
(dp3835
S'as'
p3836
I2
ss(S'and'
p3837
S'i'
S'could'
p3838
tp3839
(dp3840
S'only'
p3841
I2
ss(S'bolger'
p3842
S'and'
p3843
S'that'
p3844
tp3845
(dp3846
S'he'
p3847
I2
ss(g1843
g1959
S'a'
tp3848
(dp3849
g1960
I2
ss(g330
S'feared'
p3850
g1751
tp3851
(dp3852
g1752
I2
ss(S'only'
p3853
g561
g562
tp3854
(dp3855
g563
I2
ss(S'i'
S'asked'
p3856
S'her'
p3857
tp3858
(dp3859
g2084
I2
ss(g742
S'ice'
p3860
S'or'
p3861
tp3862
(dp3863
S'to'
p3864
I2
ss(g1987
S'i'
g1897
tp3865
(dp3866
g1898
I2
ss(S'fights'
p3867
g1591
g784
tp3868
(dp3869
g785
I2
ss(g1898
g1899
g1902
tp3870
(dp3871
S'does'
p3872
I2
ss(g1426
g1427
g1430
tp3873
(dp3874
g2525
I2
ss(g1726
g1727
g1730
tp3875
(dp3876
g1164
I2
ss(g1727
g1730
g1164
tp3877
(dp3878
g1165
I2
ss(S'for'
p3879
S'almost'
p3880
S'as'
p3881
tp3882
(dp3883
S'long'
p3884
I2
ss(g2129
g2132
S'the'
p3885
tp3886
(dp3887
g247
I2
ss(S'of'
p3888
g3778
g3779
tp3889
(dp3890
g3780
I2
ss(g3784
g3785
g2652
tp3891
(dp3892
g2653
I2
ss(g419
g422
S'just'
p3893
tp3894
(dp3895
S'as'
p3896
I2
ss(g3299
g3302
S'after'
p3897
tp3898
(dp3899
S'mine'
p3900
I2
ss(g2183
g2184
g2187
tp3901
(dp3902
S'you'
p3903
I2
ss(S'it'
p3904
S'but'
p3905
S'she'
p3906
tp3907
(dp3908
S'couldnt'
p3909
I2
ss(g837
S'i'
g2735
tp3910
(dp3911
g2430
I2
ss(g2443
g2444
g2447
tp3912
(dp3913
S'the'
p3914
I2
ss(S'bolger'
p3915
S'that'
p3916
S'in'
p3917
tp3918
(dp3919
g3628
I2
ss(g2169
g2170
g2173
tp3920
(dp3921
S'be'
p3922
I2
ss(g1216
S'i'
S'waited'
p3923
tp3924
(dp3925
S'a'
I2
ss(g2953
S'if'
p3926
S'you'
p3927
tp3928
(dp3929
S'agree'
p3930
I2
ss(g3905
g3906
g3909
tp3931
(dp3932
S'embrace'
p3933
I2
ss(S'of'
p3934
S'animal'
p3935
S'dont'
p3936
tp3937
(dp3938
g1275
I2
ss(S'bar'
p3939
S'though'
p3940
S'i'
tp3941
(dp3942
S'left'
p3943
I2
ss(S'the'
p3944
g1525
g1526
tp3945
(dp3946
g1527
I2
ss(g2300
g2301
g1745
tp3947
(dp3948
g1746
I2
ss(g2575
S'did'
p3949
g306
tp3950
(dp3951
g307
I2
ss(S'to'
p3952
S'his'
p3953
S'biography'
p3954
tp3955
(dp3956
S'a'
I2
ss(S'and'
p3957
S'had'
p3958
S'used'
p3959
tp3960
(dp3961
S'me'
p3962
I2
ss(g2100
g2787
g2790
tp3963
(dp3964
S'as'
p3965
I2
ss(S'of'
p3966
S'a'
S'squeamishness'
p3967
tp3968
(dp3969
S'that'
p3970
I2
ss(S'car'
p3971
g588
g589
tp3972
(dp3973
g590
I2
ss(S'a'
g837
S'i'
tp3974
(dp3975
g2735
I2
ss(g3515
S'when'
p3976
S'i'
tp3977
(dp3978
g2284
I2
ss(g1405
g732
g733
tp3979
(dp3980
g734
I2
ss(S'something'
p3981
S'meaningful'
p3982
S'to'
p3983
tp3984
(dp3985
S'show'
p3986
I2
ss(g3658
g3661
S'back'
p3987
tp3988
(dp3989
g2853
I2
ss(g711
g712
g715
tp3990
(dp3991
S'impression'
p3992
I2
ss(g2913
g2916
S'to'
p3993
tp3994
(dp3995
S'him'
p3996
I2
ss(g3824
g3827
S'of'
p3997
tp3998
(dp3999
S'my'
p4000
I2
ss(S'tangled'
p4001
S'in'
p4002
S'the'
p4003
tp4004
(dp4005
g772
I3
ss(S'bolger'
p4006
S'said'
p4007
g3007
tp4008
(dp4009
g3008
I2
ss(g511
g514
S'title'
p4010
tp4011
(dp4012
S'bolger'
p4013
I2
ss(g2482
g2485
S'what'
p4014
tp4015
(dp4016
S'she'
p4017
I2
ss(S'after'
p4018
g3297
g3298
tp4019
(dp4020
g3299
I2
ss(g1766
S'assaulting'
p4021
S'him'
p4022
tp4023
(dp4024
g3568
I2
ss(g1468
g1469
g191
tp4025
(dp4026
g192
I2
ss(g1981
g1984
g3095
tp4027
(dp4028
S'almost'
p4029
I2
ss(g3777
g2807
g2808
tp4030
(dp4031
g1425
I2
ss(S'up'
p4032
S'to'
p4033
g2534
tp4034
(dp4035
S'i'
I2
ss(S'me'
p4036
S'you'
p4037
S'dont'
p4038
tp4039
(dp4040
S'have'
p4041
I2
ss(S'i'
S'saw'
p4042
S'at'
p4043
tp4044
(dp4045
g3103
I2
ss(g563
g566
S'when'
p4046
tp4047
(dp4048
S'i'
I2
ss(S'people'
p4049
S'wouldnt'
p4050
g545
tp4051
(dp4052
g546
I2
ss(S'the'
p4053
S'food'
p4054
S'in'
p4055
tp4056
(dp4057
S'his'
p4058
I2
ss(g439
S'him'
p4059
S'in'
p4060
tp4061
(dp4062
S'a'
I2
ss(g2456
g1398
S'i'
tp4063
(dp4064
g1399
I2
ss(g3600
g3603
S'staff'
p4065
tp4066
(dp4067
S'he'
p4068
I2
ss(g1456
g1457
g1460
tp4069
(dp4070
g1697
I2
ss(g357
g1770
g1773
tp4071
(dp4072
g3013
I2
sg687
I2
ss(S'a'
S'biography'
p4073
g3707
tp4074
(dp4075
g3708
I2
ss(S'did'
p4076
g2258
g2259
tp4077
(dp4078
g2260
I2
ss(S'and'
p4079
S'i'
S'sat'
p4080
tp4081
(dp4082
S'there'
p4083
I2
ss(S'of'
p4084
S'his'
p4085
S'voice'
p4086
tp4087
(dp4088
S'and'
p4089
I2
ss(g87
g90
g2681
tp4090
(dp4091
g2682
I2
ss(g140
g143
S'almost'
p4092
tp4093
(dp4094
S'the'
p4095
I2
ss(S'it'
p4096
S'in'
p4097
S'a'
tp4098
(dp4099
S'divorce'
p4100
I2
ss(S'at'
p4101
S'his'
p4102
S'cafbar'
p4103
tp4104
(dp4105
S'and'
p4106
I2
ss(g1413
S'acknowledging'
p4107
S'the'
p4108
tp4109
(dp4110
S'interruption'
p4111
I2
ss(g847
g848
g851
tp4112
(dp4113
S'strut'
p4114
I2
ss(g2632
S'the'
p4115
g2640
tp4116
(dp4117
g1176
I2
ss(S'sales'
S'force'
p4118
S'would'
p4119
tp4120
(dp4121
S'stay'
p4122
I2
ss(S'siege'
p4123
S'of'
p4124
S'threats'
p4125
tp4126
(dp4127
S'he'
p4128
I2
ss(g3976
S'i'
g2284
tp4129
(dp4130
g2285
I2
ss(g2735
g2430
g2431
tp4131
(dp4132
g2432
I2
ss(g3997
g4000
S'distaste'
p4133
tp4134
(dp4135
S'and'
p4136
I2
ss(g2675
S'trouble'
p4137
S'her'
p4138
tp4139
(dp4140
S'with'
p4141
I2
ss(g1536
g1537
g1540
tp4142
(dp4143
g3197
I2
ss(g1711
g1712
S'a'
tp4144
(dp4145
g3025
I2
ss(S'knew'
p4146
S'id'
p4147
S'respect'
p4148
tp4149
(dp4150
S'his'
p4151
I2
ss(S'through'
p4152
g3788
g3789
tp4153
(dp4154
g3790
I2
ss(S'customer'
p4155
S'he'
p4156
g1385
tp4157
(dp4158
g1386
I2
ss(S'to'
p4159
S'read'
p4160
S'it'
p4161
tp4162
(dp4163
g1827
I2
ss(S'things'
p4164
S'in'
p4165
S'people'
p4166
tp4167
(dp4168
S'in'
p4169
I2
ss(S'you'
p4170
S'get'
p4171
S'bored'
p4172
tp4173
(dp4174
S'and'
p4175
I2
ss(S'his'
p4176
g3067
g3068
tp4177
(dp4178
g3069
I2
ss(g468
g469
g472
tp4179
(dp4180
S'she'
p4181
I2
ss(S'he'
p4182
g3416
g551
tp4183
(dp4184
g552
I2
ss(S'voices'
p4185
S'returned'
p4186
S'the'
p4187
tp4188
(dp4189
g888
I2
ss(S'to'
p4190
S'expose'
p4191
S'the'
p4192
tp4193
(dp4194
S'dozens'
p4195
I2
ss(S'a'
g2023
g874
tp4196
(dp4197
S'you'
p4198
I2
sg875
I2
ss(g754
S'the'
p4199
S'attack'
p4200
tp4201
(dp4202
S'i'
I2
ss(g1075
g3783
g3784
tp4203
(dp4204
g3785
I2
ss(g404
g2216
g1649
tp4205
(dp4206
g1650
I2
ss(g2571
g2572
g2575
tp4207
(dp4208
g3949
I2
ss(g3671
g3674
S'i'
tp4209
(dp4210
g3510
I2
ss(S'i'
S'asked'
p4211
g749
tp4212
(dp4213
g750
I2
ss(S'and'
p4214
S'hold'
p4215
g3306
tp4216
(dp4217
g3307
I2
ss(S'considering'
p4218
S'why'
p4219
S'he'
p4220
tp4221
(dp4222
S'would'
p4223
I2
ss(S'write'
p4224
S'a'
S'book'
p4225
tp4226
(dp4227
S'about'
p4228
I2
ss(g3830
S'and'
p4229
S'she'
p4230
tp4231
(dp4232
S'shouldnt'
p4233
I2
ss(g1949
g1952
g2017
tp4234
(dp4235
g2018
I2
ss(S'look'
p4236
S'when'
p4237
S'he'
p4238
tp4239
(dp4240
g3394
I2
ss(S'almost'
p4241
S'no'
p4242
S'one'
p4243
tp4244
(dp4245
S'would'
p4246
I2
ss(S'men'
p4247
S'with'
p4248
g1679
tp4249
(dp4250
g1680
I2
ss(g1965
g1966
g1969
tp4251
(dp4252
S'book'
p4253
I2
ss(g4022
g3568
g3569
tp4254
(dp4255
g3570
I2
ss(S'but'
p4256
g2890
g2891
tp4257
(dp4258
S'i'
I2
ss(g2091
g2094
S'crook'
p4259
tp4260
(dp4261
S'of'
p4262
I2
ss(g1820
g3830
g4229
tp4263
(dp4264
g4230
I2
ss(g2174
g880
g881
tp4265
(dp4266
g882
I2
ss(S'mexico'
p4267
g1021
g1022
tp4268
(dp4269
g1023
I2
ss(S'on'
p4270
S'sticking'
p4271
S'with'
p4272
tp4273
(dp4274
S'his'
p4275
I2
ss(g2406
g940
g941
tp4276
(dp4277
g942
I2
ss(g1570
g1573
S'eyes'
p4278
tp4279
(dp4280
g1942
I2
ss(S'wives'
p4281
S'of'
p4282
S'men'
p4283
tp4284
(dp4285
S'he'
p4286
I2
ss(g2881
g2884
g3144
tp4287
(dp4288
S'i'
I2
ss(g646
S'he'
p4289
S'rushed'
p4290
tp4291
(dp4292
S'back'
p4293
I2
ss(S'peoplerevulsion'
p4294
S'fix'
p4295
S'bolger'
p4296
tp4297
(dp4298
g2665
I2
ss(g3082
g57
g58
tp4299
(dp4300
g59
I2
ss(S'believed'
p4301
S'he'
p4302
S'was'
p4303
tp4304
(dp4305
S'entitled'
p4306
I2
ss(S'reasonable'
p4307
S'explanation'
p4308
S'for'
p4309
tp4310
(dp4311
S'my'
p4312
I2
ss(g2334
g533
g534
tp4313
(dp4314
g535
I2
ss(g290
g293
g3643
tp4315
(dp4316
g2474
I2
ss(S'listened'
p4317
S'to'
p4318
S'his'
p4319
tp4320
(dp4321
S'thunder'
p4322
I2
ss(g2337
g2338
g1281
tp4323
(dp4324
S'a'
I2
ss(g532
S'his'
p4325
S'socalled'
p4326
tp4327
(dp4328
S'bare'
p4329
I2
ss(S'that'
p4330
S'may'
p4331
S'have'
p4332
tp4333
(dp4334
S'been'
p4335
I2
ss(S'details'
p4336
S'or'
p4337
S'embellish'
p4338
tp4339
(dp4340
S'his'
p4341
I2
ss(g3697
S'his'
p4342
S'life'
p4343
tp4344
(dp4345
S'in'
p4346
I2
ss(g1262
g1265
S'with'
p4347
tp4348
(dp4349
S'himself'
p4350
I2
ss(g587
S'his'
p4351
S'sizzling'
p4352
tp4353
(dp4354
g918
I2
ss(S'want'
p4355
S'to'
p4356
S'leave'
p4357
tp4358
(dp4359
S'without'
p4360
I2
ss(S'a'
g571
g2026
tp4361
(dp4362
g1731
I2
ss(g3507
g1839
g1840
tp4363
(dp4364
S'i'
I2
ss(S'be'
p4365
g1779
g1780
tp4366
(dp4367
g1781
I2
ss(S'bounced'
p4368
S'ten'
p4369
S'feet'
p4370
tp4371
(dp4372
S'in'
p4373
I2
ss(S'that'
p4374
g85
g86
tp4375
(dp4376
g87
I2
ss(g4303
g4306
S'to'
p4377
tp4378
(dp4379
S'have'
p4380
I2
ss(S'there'
p4381
S'had'
p4382
g567
tp4383
(dp4384
g568
I2
ss(g1479
g1482
g3096
tp4385
(dp4386
g214
I2
ss(g3856
g3857
g2084
tp4387
(dp4388
g2085
I2
ss(g2872
g2875
g3251
tp4389
(dp4390
g3252
I2
ss(S'the'
p4391
S'noise'
p4392
g4084
tp4393
(dp4394
g4085
I2
ss(g1573
g4278
g1942
tp4395
(dp4396
S'i'
I2
ss(g3396
g2832
g2833
tp4397
(dp4398
g2767
I2
ss(S'people'
p4399
g3331
g3332
tp4400
(dp4401
g3333
I2
ss(g3965
S'customers'
p4402
S'i'
tp4403
(dp4404
g1791
I2
ss(g2119
g359
g360
tp4405
(dp4406
g361
I2
ss(g2782
g2783
g2786
tp4407
(dp4408
S'environment'
p4409
I2
ss(S'another'
p4410
S'time'
p4411
S'with'
p4412
tp4413
(dp4414
S'her'
p4415
I2
ss(g1501
g1502
S'a'
tp4416
(dp4417
S'loudmouth'
p4418
I2
ss(g3992
g2033
g2034
tp4419
(dp4420
g2035
I2
ss(S'come'
p4421
S'back'
p4422
g1408
tp4423
(dp4424
g1409
I2
ss(g3896
S'he'
p4425
S'did'
p4426
tp4427
(dp4428
S'i'
I2
ss(S'confess'
p4429
S'to'
p4430
S'him'
p4431
tp4432
(dp4433
S'and'
p4434
I2
ss(g1249
S'i'
g2242
tp4435
(dp4436
g2243
I2
ss(S'bolger'
p4437
g2
g3
tp4438
(dp4439
g4
I2
ss(S'remembered'
p4440
S'he'
p4441
S'enjoyed'
p4442
tp4443
(dp4444
S'what'
p4445
I2
ss(g2184
g2187
g3903
tp4446
(dp4447
S'slept'
p4448
I2
ss(g738
g739
g742
tp4449
(dp4450
g3860
I2
ss(S'known'
p4451
S'one'
p4452
g485
tp4453
(dp4454
g486
I2
ss(S'sit'
p4455
S'in'
p4456
S'it'
p4457
tp4458
(dp4459
S'he'
p4460
I2
ss(S'i'
g2953
g3926
tp4461
(dp4462
g3927
I2
ss(g53
g54
S'a'
tp4463
(dp4464
g2876
I2
ss(S'didnt'
p4465
S'flinch'
p4466
S'once'
p4467
tp4468
(dp4469
S'as'
p4470
I2
ss(S'bar'
p4471
S'late'
p4472
S'and'
p4473
tp4474
(dp4475
S'bolgers'
p4476
I2
ss(g3455
g3458
S'i'
tp4477
(dp4478
g3588
I2
ss(S'with'
p4479
g1947
g1948
tp4480
(dp4481
g1949
I2
ss(g779
g780
g783
tp4482
(dp4483
g2060
I2
ss(g478
S'though'
p4484
S'his'
p4485
tp4486
(dp4487
S'third'
p4488
I2
ss(g3223
g3224
g1201
tp4489
(dp4490
g1202
I2
ss(S'was'
p4491
g969
g970
tp4492
(dp4493
g971
I2
ss(S'like'
p4494
S'about'
p4495
S'bolger'
p4496
tp4497
(dp4498
S'including'
p4499
I2
ss(S'off'
p4500
g1420
g1421
tp4501
(dp4502
S'a'
I2
ss(S'have'
p4503
g1330
g1331
tp4504
(dp4505
g1332
I2
ss(S'to'
p4506
S'read'
p4507
g4006
tp4508
(dp4509
g4007
I2
ss(S'i'
S'didnt'
p4510
S'want'
p4511
tp4512
(dp4513
S'to'
p4514
I3
ss(g4043
g3103
g3104
tp4515
(dp4516
g3105
I2
ss(g3678
g3679
g3682
tp4517
(dp4518
S'us'
p4519
I2
ss(S'whod'
p4520
g3151
g3152
tp4521
(dp4522
g3153
I2
ss(S'through'
p4523
S'a'
S'town'
p4524
tp4525
(dp4526
S'square'
p4527
I2
ss(S'had'
p4528
g858
g859
tp4529
(dp4530
g860
I2
ss(g785
g786
g789
tp4531
(dp4532
g2029
I2
ss(S'here'
p4533
S'to'
p4534
S'listen'
p4535
tp4536
(dp4537
S'to'
p4538
I2
ss(S'services'
p4539
S'he'
p4540
g3554
tp4541
(dp4542
g2957
I2
ss(g3589
g203
S'i'
tp4543
(dp4544
g204
I2
ss(g2728
g2731
S'not'
p4545
tp4546
(dp4547
S'what'
p4548
I2
ss(g1975
g1978
S'a'
tp4549
(dp4550
g2119
I2
ss(S'not'
p4551
S'me'
p4552
g2895
tp4553
(dp4554
g906
I2
sg2671
I2
ss(g2887
g2516
g2517
tp4555
(dp4556
g761
I2
ss(S'bolger'
g2576
g2577
tp4557
(dp4558
S'a'
I2
ss(S'when'
p4559
S'i'
g1568
tp4560
(dp4561
g1569
I2
ss(g4102
g4103
g4106
tp4562
(dp4563
S'it'
p4564
I2
ss(S'his'
p4565
S'injuries'
p4566
S'he'
p4567
tp4568
(dp4569
S'said'
p4570
I2
ss(S'table'
p4571
g4079
S'i'
tp4572
(dp4573
g4080
I2
ss(g3036
S'aggression'
p4574
S'whenever'
p4575
tp4576
(dp4577
S'she'
p4578
I2
ss(S'with'
p4579
g3842
g3843
tp4580
(dp4581
S'why'
p4582
I2
sg3844
I2
ss(S'i'
g2014
g1370
tp4583
(dp4584
g1371
I2
ss(S'portray'
p4585
g2555
g19
tp4586
(dp4587
g20
I2
ss(S'anyone'
p4588
S'thought'
p4589
g1979
tp4590
(dp4591
g1980
I2
ss(S'of'
p4592
S'him'
p4593
S'and'
p4594
tp4595
(dp4596
g1438
I2
ss(g2362
g1658
g1659
tp4597
(dp4598
g1660
I2
ss(S'its'
p4599
S'content'
p4600
S'to'
p4601
tp4602
(dp4603
g3099
I2
ss(g2470
g2473
g2375
tp4604
(dp4605
g2376
I2
ss(S'could'
p4606
g1467
g1468
tp4607
(dp4608
g1469
I2
ss(g4055
g4058
S'caf'
p4609
tp4610
(dp4611
S'was'
p4612
I2
ss(g923
g1115
g1118
tp4613
(dp4614
S'had'
p4615
I2
ss(S'was'
p4616
S'selfevident'
p4617
S'he'
p4618
tp4619
(dp4620
S'and'
p4621
I2
ss(g4329
S'hands'
p4622
S'how'
p4623
tp4624
(dp4625
S'hot'
p4626
I2
ss(S'narratives'
p4627
S'sexual'
p4628
S'or'
p4629
tp4630
(dp4631
S'otherwise'
p4632
I2
ss(S'a'
g1604
g1605
tp4633
(dp4634
g1606
I2
ss(g1282
g1285
g2762
tp4635
(dp4636
g2763
I2
ss(S'first'
p4637
g3085
g1519
tp4638
(dp4639
g1520
I2
ss(S'i'
g2643
g2644
tp4640
(dp4641
g1869
I2
ss(S'of'
p4642
S'himself'
p4643
S'bolger'
p4644
tp4645
(dp4646
g4465
I2
ss(g3459
g3462
g2486
tp4647
(dp4648
g2487
I2
ss(g1427
g1430
g2525
tp4649
(dp4650
g1339
I2
ss(g3708
g3709
g3712
tp4651
(dp4652
S'to'
p4653
I2
ss(g734
S'i'
S'called'
p4654
tp4655
(dp4656
g2492
I2
ss(S'didnt'
p4657
S'hesitate'
p4658
S'to'
p4659
tp4660
(dp4661
g3056
I2
ss(S'what'
p4662
g4588
g4589
tp4663
(dp4664
g1979
I2
ss(S'voice'
p4665
g185
g186
tp4666
(dp4667
g187
I2
ss(g324
S'interested'
p4668
S'in'
p4669
tp4670
(dp4671
S'me'
p4672
I2
ss(g1207
g1210
S'his'
p4673
tp4674
(dp4675
S'laughter'
p4676
I2
ss(S'from'
p4677
S'me'
p4678
S'man'
p4679
tp4680
(dp4681
S'to'
p4682
I2
ss(g3958
g3959
g3962
tp4683
(dp4684
S'as'
p4685
I2
ss(g4147
g4148
g4151
tp4686
(dp4687
g1692
I2
ss(g3794
g3795
g3798
tp4688
(dp4689
S'surprise'
p4690
I2
ss(g1466
S'my'
p4691
S'shoulder'
p4692
tp4693
(dp4694
S'with'
p4695
I2
ss(S's'
S'sex'
p4696
S'life'
p4697
tp4698
(dp4699
S'or'
p4700
I2
ss(g1665
g1666
g1669
tp4701
(dp4702
g2116
I2
ss(g1507
g3016
g3019
tp4703
(dp4704
S'called'
p4705
I2
ss(g4106
g4564
S'was'
p4706
tp4707
(dp4708
g1562
I2
ss(g3790
g3793
S'collapsed'
p4709
tp4710
(dp4711
S'in'
p4712
I2
ss(g42
S'a'
g45
tp4713
(dp4714
g4236
I2
ss(g3040
g3043
S'been'
p4715
tp4716
(dp4717
S'saying'
p4718
I2
ss(S'slept'
p4719
S'with'
p4720
S'his'
p4721
tp4722
(dp4723
g3770
I2
ss(S'him'
p4724
S'and'
p4725
g1449
tp4726
(dp4727
g1450
I2
ss(g3578
g3581
S'divorce'
p4728
tp4729
(dp4730
S'his'
p4731
I2
ss(g2080
g2083
S'choose'
p4732
tp4733
(dp4734
S'to'
p4735
I2
ss(g4415
S'fist'
p4736
S'bolger'
p4737
tp4738
(dp4739
S'held'
p4740
I2
ss(S'hed'
p4741
g4368
g4369
tp4742
(dp4743
g4370
I2
ss(g971
S'i'
g1866
tp4744
(dp4745
S'speak'
p4746
I2
ss(g1680
g1681
g1535
tp4747
(dp4748
g1536
I2
ss(S'book'
p4749
S'about'
p4750
S'him'
p4751
tp4752
(dp4753
S'i'
I2
sg4725
I3
ss(g4342
g4343
g4346
tp4754
(dp4755
g3402
I2
ss(g2517
g761
g762
tp4756
(dp4757
g763
I2
ss(g939
S'he'
p4758
S'claimed'
p4759
tp4760
(dp4761
g4741
I2
ss(S'third'
p4762
S'wife'
p4763
S'until'
p4764
tp4765
(dp4766
S'he'
p4767
I2
ss(S'the'
p4768
S'mass'
p4769
S'of'
p4770
tp4771
(dp4772
S'people'
p4773
I2
ss(S'and'
p4774
S'i'
S'thought'
p4775
tp4776
(dp4777
S'he'
p4778
I2
ss(g1059
S'time'
p4779
g963
tp4780
(dp4781
g964
I2
ss(g2274
g611
g612
tp4782
(dp4783
g613
I2
ss(g1860
g1863
S'other'
p4784
tp4785
(dp4786
S'woman'
p4787
I2
ss(g750
g751
g754
tp4788
(dp4789
g4199
I2
ss(g1151
g4281
g4282
tp4790
(dp4791
g4283
I2
ss(g4511
g4514
S'eat'
p4792
tp4793
(dp4794
S'street'
p4795
I2
ss(g2399
g2402
S'a'
tp4796
(dp4797
g2520
I2
ss(g1450
g1451
g1454
tp4798
(dp4799
S'enemies'
p4800
I2
ss(g1694
S'a'
g3722
tp4801
(dp4802
S'account'
p4803
I2
ss(S'often'
p4804
g41
g42
tp4805
(dp4806
S'a'
I2
ss(S'bolger'
p4807
S'on'
p4808
S'a'
tp4809
(dp4810
g405
I2
ss(g986
g989
S'that'
p4811
tp4812
(dp4813
S'hed'
p4814
I2
ss(S'confess'
p4815
S'id'
p4816
S'ask'
p4817
tp4818
(dp4819
S'you'
p4820
I2
ss(S'his'
p4821
S'wives'
p4822
g1858
tp4823
(dp4824
g1859
I2
ss(g4466
g4467
g4470
tp4825
(dp4826
S'i'
I2
ss(g2990
g2991
g2994
tp4827
(dp4828
g4018
I2
ss(g1367
S'he'
p4829
S'did'
p4830
tp4831
(dp4832
S'hed'
p4833
I2
ss(g2207
g2210
S'once'
p4834
tp4835
(dp4836
S'that'
p4837
I2
ss(S'thing'
p4838
S'im'
p4839
S'saying'
p4840
tp4841
(dp4842
S'i'
I2
ss(S'and'
p4843
g836
S'a'
tp4844
(dp4845
g837
I2
ss(g1635
g1638
g2954
tp4846
(dp4847
g156
I2
ss(g2847
S'eat'
p4848
g3366
tp4849
(dp4850
g3367
I2
ss(g4187
g888
g889
tp4851
(dp4852
S'i'
I2
ss(g4767
S'changed'
p4853
S'his'
p4854
tp4855
(dp4856
S'mind'
p4857
I2
ss(g3096
g214
g215
tp4858
(dp4859
g216
I2
ss(g3450
g3451
g3454
tp4860
(dp4861
g4807
I2
ss(S'a'
g4123
g4124
tp4862
(dp4863
g4125
I2
ss(g2452
g2453
g2456
tp4864
(dp4865
g1398
I2
ss(S'he'
p4866
g2391
g2392
tp4867
(dp4868
g2393
I2
ss(g2603
g2604
g1140
tp4869
(dp4870
g3630
I2
sg1141
I2
ss(S'comes'
p4871
S'out'
p4872
S'of'
p4873
tp4874
(dp4875
S'my'
p4876
I2
ss(g4306
g4377
g4380
tp4877
(dp4878
S'sex'
p4879
I2
ss(g2899
g2842
g25
tp4880
(dp4881
S'sag'
p4882
I2
sg26
I2
ss(g3800
g144
g145
tp4883
(dp4884
g4472
I2
sg1741
I2
sg146
I2
ss(S'talking'
p4885
S'especially'
p4886
g4551
tp4887
(dp4888
g4552
I2
ss(g1587
g1590
g4719
tp4889
(dp4890
g4720
I2
ss(S'know'
p4891
S'he'
p4892
S'was'
p4893
tp4894
(dp4895
S'in'
p4896
I2
ss(g3808
g4533
g4534
tp4897
(dp4898
g4535
I2
ss(S'shown'
p4899
g1051
g1052
tp4900
(dp4901
g1053
I2
ss(g3872
S'any'
p4902
S'of'
p4903
tp4904
(dp4905
S'that'
p4906
I2
ss(S'his'
p4907
S'question'
p4908
S'would'
p4909
tp4910
(dp4911
S'he'
p4912
I2
ss(g4172
g4175
S'creep'
p4913
tp4914
(dp4915
S'out'
p4916
I2
ss(g4282
g4283
g4286
tp4917
(dp4918
g1556
I2
ss(g2193
S'legs'
p4919
S'and'
p4920
tp4921
(dp4922
S'burned'
p4923
I2
ss(g4913
g4916
g1128
tp4924
(dp4925
g1129
I2
ss(S'were'
p4926
S'both'
p4927
S'in'
p4928
tp4929
(dp4930
g1477
I2
ss(g2060
g2061
g2064
tp4931
(dp4932
g1157
I2
ss(g4060
S'a'
S'hospital'
p4933
tp4934
(dp4935
S'bed'
p4936
I2
ss(g870
g873
g1508
tp4937
(dp4938
g1509
I2
ss(g1233
g1237
S'but'
p4939
tp4940
(dp4941
g3463
I2
ss(g1363
g1364
g1367
tp4942
(dp4943
g4829
I2
ss(S'i'
g796
S'i'
tp4944
(dp4945
g797
I2
ss(S'joining'
p4946
g3723
g3724
tp4947
(dp4948
g2701
I2
ss(g2143
g2144
g2147
tp4949
(dp4950
S'endured'
p4951
I2
ss(S'hed'
p4952
S'become'
p4953
S'how'
p4954
tp4955
(dp4956
S'could'
p4957
I2
ss(g2618
S'from'
p4958
S'crashing'
p4959
tp4960
(dp4961
g934
I2
ss(S'as'
p4962
S'they'
p4963
g423
tp4964
(dp4965
g424
I2
ss(g1737
g893
g894
tp4966
(dp4967
g376
I2
ss(g3324
g3545
g3548
tp4968
(dp4969
g4585
I2
ss(S'listening'
p4970
S'for'
p4971
S'footsteps'
p4972
tp4973
(dp4974
S'behind'
p4975
I2
ss(g2802
g2803
g2806
tp4976
(dp4977
g2811
I2
ss(g894
g376
g377
tp4978
(dp4979
g378
I2
ss(g3823
g3824
g3827
tp4980
(dp4981
g3997
I2
ss(g4125
g4128
g4146
tp4982
(dp4983
g4147
I2
ss(g375
S'anyone'
p4984
g4506
tp4985
(dp4986
g4507
I2
ss(g4352
g918
g919
tp4987
(dp4988
g920
I2
ss(g1889
g467
g468
tp4989
(dp4990
g469
I2
ss(g3061
g3037
g1704
tp4991
(dp4992
g1705
I2
ss(g2783
g2786
g4409
tp4993
(dp4994
S'i'
I2
ss(S'to'
p4995
S'estimate'
p4996
g1844
tp4997
(dp4998
g1845
I2
ss(S'put'
p4999
g4096
g4097
tp5000
(dp5001
S'a'
I2
ss(g1644
g1645
g1648
tp5002
(dp5003
S'him'
p5004
I2
ss(S'really'
p5005
S'seeing'
p5006
S'you'
p5007
tp5008
(dp5009
S'personally'
p5010
I2
ss(S'and'
p5011
S'hed'
p5012
S'probably'
p5013
tp5014
(dp5015
S'seem'
p5016
I2
ss(g3412
S'nose'
p5017
S'after'
p5018
tp5019
(dp5020
S'his'
p5021
I2
ss(S'years'
p5022
S'starting'
p5023
S'when'
p5024
tp5025
(dp5026
S'he'
p5027
I2
ss(S'me'
p5028
S'in'
p5029
S'his'
p5030
tp5031
(dp5032
g3939
I2
ss(g1285
g2762
g2763
tp5033
(dp5034
g2764
I2
ss(g4691
g4692
g4695
tp5035
(dp5036
S'his'
p5037
I2
ss(g3644
g3645
g3648
tp5038
(dp5039
S'me'
p5040
I2
ss(g3970
S'would'
p5041
S'keep'
p5042
tp5043
(dp5044
g3264
I2
ss(g640
S'his'
p5045
g2156
tp5046
(dp5047
g2157
I2
ss(g186
g187
g190
tp5048
(dp5049
S'grip'
p5050
I2
ss(S'something'
p5051
S'to'
p5052
g4429
tp5053
(dp5054
g4430
I2
sg4816
I2
ss(g2877
g270
g271
tp5055
(dp5056
g272
I2
ss(g985
g986
g989
tp5057
(dp5058
g4811
I2
ss(g1298
g1299
g1302
tp5059
(dp5060
g2880
I2
ss(S'hed'
p5061
S'slept'
p5062
g3831
tp5063
(dp5064
g3832
I2
ss(g4278
g1942
S'i'
tp5065
(dp5066
g1943
I2
ss(g3531
g3534
S'wife'
p5067
tp5068
(dp5069
S'and'
p5070
I4
sg3186
I2
sg320
I3
sg1519
I2
sg1446
I2
ss(S'and'
p5071
g3623
S'a'
tp5072
(dp5073
g3624
I2
ss(g4080
g4083
g4218
tp5074
(dp5075
g4219
I2
ss(g653
g654
g657
tp5076
(dp5077
g3293
I2
ss(S'if'
p5078
S'i'
S'had'
p5079
tp5080
(dp5081
g5051
I2
ss(g143
g4092
g4095
tp5082
(dp5083
S'same'
p5084
I2
ss(g236
g237
g240
tp5085
(dp5086
S'both'
p5087
I2
ss(g2946
g1403
g1404
tp5088
(dp5089
g1405
I2
ss(S'years'
p5090
S'past'
p5091
S'you'
p5092
tp5093
(dp5094
S'confirm'
p5095
I2
ss(S'said'
p5096
S'he'
p5097
g3141
tp5098
(dp5099
S'and'
p5100
I2
ss(g3003
g3006
g3215
tp5101
(dp5102
g2468
I2
ss(g4046
S'i'
g4491
tp5103
(dp5104
g969
I2
ss(S'told'
p5105
S'me'
p5106
S'he'
p5107
tp5108
(dp5109
S'said'
p5110
I2
ss(g4470
S'i'
g3287
tp5111
(dp5112
g3288
I2
ss(g1118
g4615
g4001
tp5113
(dp5114
g4002
I2
ss(g4488
S'wife'
p5115
S'liked'
p5116
tp5117
(dp5118
S'to'
p5119
I2
ss(g1958
g605
g606
tp5120
(dp5121
g607
I2
ss(g327
g330
g3850
tp5122
(dp5123
g1751
I2
ss(S'forming'
p5124
S'a'
g1501
tp5125
(dp5126
g1502
I2
ss(g4412
g4415
g4736
tp5127
(dp5128
g4737
I2
ss(S'that'
p5129
g1163
S'another'
p5130
tp5131
(dp5132
S'occasion'
p5133
I2
ss(g1639
g1642
S'any'
p5134
tp5135
(dp5136
S'drinks'
p5137
I2
ss(g885
g652
g653
tp5138
(dp5139
g654
I2
ss(S'i'
g4491
g969
tp5140
(dp5141
g970
I2
ss(g2173
g3922
S'with'
p5142
tp5143
(dp5144
S'any'
p5145
I2
ss(g3255
S'if'
p5146
g1888
tp5147
(dp5148
g1889
I2
ss(g5040
g3654
S'if'
p5149
tp5150
(dp5151
S'we'
p5152
I2
ss(g2066
g2067
g698
tp5153
(dp5154
g699
I2
ss(g2815
S'i'
g2818
tp5155
(dp5156
g599
I2
ss(g2234
g2235
g2238
tp5157
(dp5158
S'sound'
p5159
I2
ss(S'curiosity'
p5160
g4053
g4054
tp5161
(dp5162
g4055
I2
ss(g4290
g4293
g2801
tp5163
(dp5164
g2802
I2
ss(S'passing'
p5165
S'server'
p5166
g235
tp5167
(dp5168
g236
I2
ss(S'as'
p5169
S'their'
p5170
S'mission'
p5171
tp5172
(dp5173
S'to'
p5174
I2
ss(S'i'
g3853
g561
tp5175
(dp5176
g562
I2
ss(g1351
g1354
S'the'
p5177
tp5178
(dp5179
g1740
I2
ss(g3669
S'cant'
p5180
S'separate'
p5181
tp5182
(dp5183
S'these'
p5184
I2
ss(S'around'
p5185
S'a'
S'quiet'
p5186
tp5187
(dp5188
g722
I2
ss(g3312
g3313
g3316
tp5189
(dp5190
S'of'
p5191
I2
ss(g523
g526
g1297
tp5192
(dp5193
g1298
I2
ss(g1469
g191
g192
tp5194
(dp5195
g193
I2
ss(g3499
g3502
S'book'
p5196
tp5197
(dp5198
S'and'
p5199
I2
ss(S'food'
p5200
S'and'
p5201
S'passersby'
p5202
tp5203
(dp5204
g1610
I2
ss(g3596
g3599
S'is'
p5205
tp5206
(dp5207
g2198
I2
ss(g1162
g2836
g2826
tp5208
(dp5209
g2827
I2
ss(g2487
g2488
g2491
tp5210
(dp5211
g3683
I2
ss(g2457
S'i'
S'did'
p5212
tp5213
(dp5214
g1616
I2
ss(g1491
S'desire'
p5215
g4330
tp5216
(dp5217
g4331
I2
ss(g4133
g4136
S'i'
tp5218
(dp5219
g3853
I2
ss(S'shed'
p5220
g3703
g3704
tp5221
(dp5222
g3540
I2
ss(g1197
g1200
S'at'
p5223
tp5224
(dp5225
S'all'
p5226
I2
ss(g1828
g1829
g1832
tp5227
(dp5228
S'release'
p5229
I2
ss(S'his'
p5230
g3756
g358
tp5231
(dp5232
g3757
I2
ss(g2441
g4185
g4186
tp5233
(dp5234
g4187
I2
ss(g2453
g2456
g1398
tp5235
(dp5236
S'i'
I2
ss(S'he'
p5237
S'didnt'
p5238
S'like'
p5239
tp5240
(dp5241
g737
I2
ss(g1434
g1435
g984
tp5242
(dp5243
g985
I2
ss(S'alone'
p5244
S'all'
p5245
S'of'
p5246
tp5247
(dp5248
g3698
I2
ss(S'a'
S'trip'
p5249
S'the'
p5250
tp5251
(dp5252
S'four'
p5253
I2
ss(S'for'
p5254
g4391
g4392
tp5255
(dp5256
g4084
I2
ss(S'or'
p5257
S'ask'
p5258
S'around'
p5259
tp5260
(dp5261
S'about'
p5262
I2
ss(g4770
g4773
S'as'
p5263
tp5264
(dp5265
S'the'
p5266
I2
sS'members'
p5267
I2
ss(g1311
g1314
g3823
tp5268
(dp5269
g3824
I2
ss(g4854
g4857
S'one'
p5270
tp5271
(dp5272
S'night'
p5273
I2
ss(S'to'
p5274
S'worry'
p5275
S'about'
p5276
tp5277
(dp5278
S'what'
p5279
I2
ss(g4882
S'but'
p5280
g2791
tp5281
(dp5282
g2792
I2
ss(g3959
g3962
g4685
tp5283
(dp5284
S'an'
p5285
I2
ss(g636
g637
g640
tp5286
(dp5287
g5045
I2
ss(S'a'
g3722
g4803
tp5288
(dp5289
S'of'
p5290
I2
ss(S'everyone'
p5291
g2269
g2270
tp5292
(dp5293
g2271
I2
ss(g490
S'he'
p5294
S'care'
p5295
tp5296
(dp5297
S'now'
p5298
I2
ss(g4653
S'light'
p5299
S'up'
p5300
tp5301
(dp5302
S'with'
p5303
I2
ss(S'boomed'
p5304
S'out'
p5305
g4592
tp5306
(dp5307
g4593
I2
ss(g4524
g4527
S'that'
p5308
tp5309
(dp5310
S'i'
I2
ss(S'her'
p5311
S'bolger'
p5312
S'declared'
p5313
tp5314
(dp5315
S'with'
p5316
I2
ss(g2761
S'said'
p5317
S'are'
p5318
tp5319
(dp5320
S'you'
p5321
I2
ss(S'names'
p5322
S'of'
p5323
S'all'
p5324
tp5325
(dp5326
S'of'
p5327
I2
ss(g3326
g3327
g3330
tp5328
(dp5329
S's'
I2
ss(S'about'
p5330
S'when'
p5331
g4381
tp5332
(dp5333
g4382
I2
ss(g2577
S'a'
g14
tp5334
(dp5335
g15
I2
ss(S'told'
p5336
S'me'
p5337
S'only'
p5338
tp5339
(dp5340
S'he'
p5341
I2
ss(g5316
S'an'
p5342
g778
tp5343
(dp5344
g779
I2
ss(g1338
S'his'
p5345
g1472
tp5346
(dp5347
g1473
I2
ss(g2912
g2913
g2916
tp5348
(dp5349
g3993
I2
ss(g3537
g108
g109
tp5350
(dp5351
g110
I2
ss(g1030
g1033
S'would'
p5352
tp5353
(dp5354
S'break'
p5355
I2
ss(g2790
g3965
g4402
tp5356
(dp5357
S'i'
I2
ss(S'listen'
p5358
S'to'
p5359
g2949
tp5360
(dp5361
S'and'
p5362
I2
sg1070
I2
sg2950
I2
ss(S'or'
p5363
g3386
g3387
tp5364
(dp5365
S'a'
I2
ss(g10
g13
g899
tp5366
(dp5367
S'drinking'
p5368
I2
ss(g3599
g5205
g2198
tp5369
(dp5370
g2199
I2
ss(g3906
g3909
g3933
tp5371
(dp5372
S'what'
p5373
I2
ss(g4171
g4172
g4175
tp5374
(dp5375
g4913
I2
ss(g1609
S'or'
p5376
g3325
tp5377
(dp5378
g3326
I2
ss(S'look'
p5379
g3764
g3765
tp5380
(dp5381
g3766
I2
ss(S'though'
p5382
S'bolger'
p5383
g4301
tp5384
(dp5385
g4302
I2
ss(S'selfserving'
p5386
S'motive'
p5387
g2497
tp5388
(dp5389
g2498
I2
ss(g5305
g4592
g4593
tp5390
(dp5391
g4594
I2
ss(S'i'
g1008
S'not'
p5392
tp5393
(dp5394
g1293
I2
ss(g3152
g3153
g3156
tp5395
(dp5396
S'him'
p5397
I2
ss(S'not'
p5398
S'at'
p5399
g1225
tp5400
(dp5401
g1226
I2
ss(g451
g452
g455
tp5402
(dp5403
S'workers'
p5404
I2
ss(S'to'
p5405
g2590
g2591
tp5406
(dp5407
g2592
I2
ss(g2612
S'he'
p5408
S'repeated'
p5409
tp5410
(dp5411
S'and'
p5412
I2
ss(S'away'
p5413
g4946
g3723
tp5414
(dp5415
g3724
I2
ss(g2979
g2982
g3031
tp5416
(dp5417
S'closest'
p5418
I2
ss(g3675
S'a'
g456
tp5419
(dp5420
g457
I2
ss(S'a'
S'drink'
p5421
g1483
tp5422
(dp5423
g1484
I2
ss(g4418
g5382
g5383
tp5424
(dp5425
g4301
I2
ss(g5376
g3325
g3326
tp5426
(dp5427
g3327
I2
ss(g3012
S'to'
p5428
g3319
tp5429
(dp5430
g3320
I2
ss(S'you'
p5431
g617
g618
tp5432
(dp5433
g619
I2
sg3594
I2
ss(S'about'
p5434
S'himself'
p5435
S'to'
p5436
tp5437
(dp5438
S'his'
p5439
I2
ss(g1911
g1914
g3401
tp5440
(dp5441
S'incoming'
p5442
I2
ss(S'what'
p5443
S'he'
p5444
S'admitted'
p5445
tp5446
(dp5447
g3492
I2
ss(g3481
g3484
g3794
tp5448
(dp5449
g3795
I2
ss(g5013
g5016
S'more'
p5450
tp5451
(dp5452
S'outrageous'
p5453
I2
ss(S'out'
p5454
S'for'
p5455
g5200
tp5456
(dp5457
g5201
I2
ss(S'i'
S'want'
p5458
g5431
tp5459
(dp5460
g617
I2
ss(g2000
g1040
S'i'
tp5461
(dp5462
g366
I2
sg1041
I2
ss(g3063
g3066
S'she'
p5463
tp5464
(dp5465
S'was'
p5466
I2
ss(S'everything'
p5467
S'that'
p5468
S'gets'
p5469
tp5470
(dp5471
S'in'
p5472
I2
ss(g1990
g509
g510
tp5473
(dp5474
g511
I2
ss(g3838
g3841
S'listen'
p5475
tp5476
(dp5477
S'to'
p5478
I2
ss(S'them'
p5479
S'he'
p5480
S'said'
p5481
tp5482
(dp5483
g259
I2
ss(S'to'
p5484
g4224
S'a'
tp5485
(dp5486
g4225
I2
ss(S'of'
p5487
g5479
g5480
tp5488
(dp5489
g5481
I2
ss(g4356
g4357
g4360
tp5490
(dp5491
S'answering'
p5492
I2
ss(g3337
g3338
g3341
tp5493
(dp5494
g1874
I2
ss(g73
S'hed'
p5495
g4421
tp5496
(dp5497
g4422
I2
ss(g2494
g743
g744
tp5498
(dp5499
g745
I2
ss(g5202
g1610
g1611
tp5500
(dp5501
g1612
I2
ss(g3748
g3749
g3752
tp5502
(dp5503
S'and'
p5504
I2
ss(g4848
g3366
g3367
tp5505
(dp5506
g5409
I2
sg3368
I2
ss(g1884
g1887
g1303
tp5507
(dp5508
g1304
I2
ss(g2488
g2491
g3683
tp5509
(dp5510
g3684
I2
ss(S'up'
p5511
S'with'
p5512
S'for'
p5513
tp5514
(dp5515
S'why'
p5516
I2
ss(g1256
g1257
g1260
tp5517
(dp5518
S'up'
p5519
I2
ss(g4086
g4089
S'the'
p5520
tp5521
(dp5522
S'inevitable'
p5523
I2
ss(g1744
g3247
g3250
tp5524
(dp5525
g150
I2
ss(g4763
g4764
g4767
tp5526
(dp5527
g4853
I2
ss(S'underneath'
p5528
S'the'
p5529
S'way'
p5530
tp5531
(dp5532
g3535
I2
ss(S'i'
g1938
g1941
tp5533
(dp5534
S'what'
p5535
I2
ss(g2150
S'i'
g8
tp5536
(dp5537
g9
I2
ss(g345
S'him'
p5538
S'alive'
p5539
tp5540
(dp5541
S'as'
p5542
I2
ss(g1029
S'a'
g647
tp5543
(dp5544
g648
I2
ss(g4601
g3099
g3100
tp5545
(dp5546
g1344
I2
ss(g45
g4236
g4237
tp5547
(dp5548
g4238
I2
ss(S'off'
p5549
g473
g474
tp5550
(dp5551
g475
I2
ss(g1552
g1555
g3773
tp5552
(dp5553
g3774
I2
ss(S'him'
p5554
S'feel'
p5555
g1170
tp5556
(dp5557
g1171
I2
ss(g4779
g963
g964
tp5558
(dp5559
g965
I2
ss(g5480
g5481
g259
tp5560
(dp5561
g2328
I2
sg260
I2
ss(S'should'
p5562
S'be'
p5563
S'written'
p5564
tp5565
(dp5566
S'he'
p5567
I2
ss(g3128
g3129
g3132
tp5568
(dp5569
g4440
I2
sS'loved'
p5570
I2
sg3816
I2
ss(g1451
g1454
g4800
tp5571
(dp5572
S'might'
p5573
I2
ss(g4540
g3554
g2957
tp5574
(dp5575
g2958
I2
ss(S'he'
p5576
g138
g139
tp5577
(dp5578
g140
I2
ss(S'he'
p5579
g1925
g1926
tp5580
(dp5581
g4148
I2
sg1927
I2
ss(g718
g721
g4503
tp5582
(dp5583
g1330
I2
ss(g2970
S'a'
g2973
tp5584
(dp5585
S'woman'
p5586
I2
ss(g1440
g1443
S'importance'
p5587
tp5588
(dp5589
S'remained'
p5590
I2
ss(g2566
S'a'
g5165
tp5591
(dp5592
g5166
I2
ss(S'caught'
p5593
S'fire'
p5594
S'in'
p5595
tp5596
(dp5597
S'his'
p5598
I2
ss(g4357
g4360
g5492
tp5599
(dp5600
S'him'
p5601
I2
ss(g1663
g3303
g52
tp5602
(dp5603
g53
I2
ss(S'power'
p5604
S'of'
p5605
S'speech'
p5606
tp5607
(dp5608
S'he'
p5609
I2
ss(g3387
S'a'
g3390
tp5610
(dp5611
S'of'
p5612
I2
ss(g4773
g5263
g5266
tp5613
(dp5614
g3449
I2
ss(g2559
g2560
g2563
tp5615
(dp5616
g4539
I2
ss(S'a'
g852
g853
tp5617
(dp5618
g854
I2
ss(S'needed'
p5619
S'total'
p5620
S'control'
p5621
tp5622
(dp5623
S'of'
p5624
I2
ss(S'she'
p5625
S'may'
p5626
S'have'
p5627
tp5628
(dp5629
S'been'
p5630
I2
ss(g5598
g208
g209
tp5631
(dp5632
g210
I2
ss(g5595
g5598
g208
tp5633
(dp5634
g209
I2
ss(g1271
g4677
g4678
tp5635
(dp5636
g4679
I2
ss(g3498
g3499
g3502
tp5637
(dp5638
g5196
I2
ss(g514
g4010
g4013
tp5639
(dp5640
g4479
I2
ss(g5570
g417
g418
tp5641
(dp5642
g419
I2
ss(g2535
g2538
S'her'
p5643
tp5644
(dp5645
g5257
I2
ss(S'id'
p5646
g4317
g4318
tp5647
(dp5648
g4319
I2
ss(g5530
g3535
g3536
tp5649
(dp5650
g3537
I2
ss(g2089
g2906
g2907
tp5651
(dp5652
g2908
I2
ss(S'yourself'
p5653
S'as'
p5654
S'being'
p5655
tp5656
(dp5657
S'in'
p5658
I2
ss(g1139
S'megalomania'
p5659
S'i'
tp5660
(dp5661
S'seldom'
p5662
I2
ss(g4954
g4957
S'i'
tp5663
(dp5664
g710
I2
sg2781
I2
ss(g2540
g521
g522
tp5665
(dp5666
g523
I2
ss(g3949
g306
g307
tp5667
(dp5668
g308
I2
ss(g466
S'but'
p5669
g2613
tp5670
(dp5671
g2614
I2
ss(g3530
g3531
g3534
tp5672
(dp5673
g5067
I2
ss(S'for'
p5674
g3981
g3982
tp5675
(dp5676
g3983
I2
ss(g744
g745
g748
tp5677
(dp5678
S'had'
p5679
I2
ss(S'around'
p5680
S'people'
p5681
S'again'
p5682
tp5683
(dp5684
S'you'
p5685
I2
ss(g2405
g2406
g940
tp5686
(dp5687
g941
I2
ss(g3608
g3651
g3655
tp5688
(dp5689
S'a'
I2
ss(S'for'
p5690
S'twentyplus'
p5691
S'years'
p5692
tp5693
(dp5694
g2415
I2
ss(g2891
S'i'
g2894
tp5695
(dp5696
g3634
I2
ss(g3780
g2250
g2251
tp5697
(dp5698
g2252
I2
ss(g3447
g3459
g3462
tp5699
(dp5700
g2486
I2
ss(g4192
g4195
S'of'
p5701
tp5702
(dp5703
S'married'
p5704
I2
ss(S'asking'
p5705
S'you'
p5706
S'to'
p5707
tp5708
(dp5709
S'write'
p5710
I2
ss(g1177
g1178
g623
tp5711
(dp5712
g624
I2
ss(S'but'
p5713
S'i'
g3088
tp5714
(dp5715
g3089
I2
ss(S'to'
p5716
S'legions'
p5717
S'of'
p5718
tp5719
(dp5720
S'women'
p5721
I2
ss(g5145
S'woman'
p5722
S'hed'
p5723
tp5724
(dp5725
S'ever'
p5726
I2
ss(g5259
g5262
S'her'
p5727
tp5728
(dp5729
S'business'
p5730
I2
ss(g1268
g1271
g4677
tp5731
(dp5732
g4678
I2
ss(g628
g3040
g3043
tp5733
(dp5734
g4715
I2
ss(S'hed'
p5735
S'gradually'
p5736
S'be'
p5737
tp5738
(dp5739
g1931
I2
ss(g3512
g3515
g3976
tp5740
(dp5741
S'i'
I2
ss(g805
g806
g809
tp5742
(dp5743
S'and'
p5744
I2
ss(S'i'
g4775
g4778
tp5745
(dp5746
g1246
I2
sg2278
I2
ss(g1634
g1635
g1638
tp5747
(dp5748
g2954
I2
ss(g3493
g3494
g1585
tp5749
(dp5750
g1586
I2
ss(S'saw'
p5751
g4559
S'i'
tp5752
(dp5753
g1568
I2
ss(g2398
g2399
g2402
tp5754
(dp5755
S'a'
I2
ss(S'but'
p5756
S'he'
p5757
S'appeared'
p5758
tp5759
(dp5760
g2451
I2
ss(g3897
g3900
S'he'
p5761
tp5762
(dp5763
S'fantasized'
p5764
I2
ss(g2329
g2332
S'into'
p5765
tp5766
(dp5767
g4176
I2
ss(g5017
g5018
g5021
tp5768
(dp5769
g2341
I2
ss(g5119
g1761
g1762
tp5770
(dp5771
g1763
I2
ss(g3550
g3553
S'here'
p5772
tp5773
(dp5774
g4534
I2
sS'either'
p5775
I2
ss(g3524
S'id'
p5776
g3050
tp5777
(dp5778
g3051
I2
ss(g3120
g3121
g3124
tp5779
(dp5780
S'in'
p5781
I2
ss(S'what'
p5782
S'i'
g5458
tp5783
(dp5784
g5431
I2
ss(g3662
g3528
g3665
tp5785
(dp5786
g1272
I2
ss(g243
g246
S'people'
p5787
tp5788
(dp5789
g132
I2
ss(g3438
g3439
g1414
tp5790
(dp5791
g1415
I2
ss(g4690
S'him'
p5792
g3227
tp5793
(dp5794
g1357
I2
ss(g1377
g1378
g1381
tp5795
(dp5796
g2436
I2
ss(g2604
g1140
g1141
tp5797
(dp5798
g1142
I2
ss(g4431
g4434
g1594
tp5799
(dp5800
g1595
I2
ss(g406
g407
g410
tp5801
(dp5802
g446
I2
ss(g4452
g485
g486
tp5803
(dp5804
g487
I2
ss(S'any'
p5805
S'number'
p5806
S'of'
p5807
tp5808
(dp5809
S'other'
p5810
I2
ss(g400
g401
g404
tp5811
(dp5812
g2216
I2
ss(S'to'
p5813
S'him'
p5814
S'i'
tp5815
(dp5816
S'pondered'
p5817
I2
ss(S'do'
p5818
S'if'
p5819
g2619
tp5820
(dp5821
g2480
I2
ss(g4984
g4506
g4507
tp5822
(dp5823
g4006
I2
ss(g3095
g4029
g1045
tp5824
(dp5825
g1046
I2
ss(g4715
g4718
S'to'
p5826
tp5827
(dp5828
S'him'
p5829
I2
ss(g3983
g3986
S'its'
p5830
tp5831
(dp5832
S'face'
p5833
I2
ss(S'a'
g2795
g2796
tp5834
(dp5835
g2797
I2
ss(g62
g728
g731
tp5836
(dp5837
g5022
I2
ss(S'not'
p5838
S'understand'
p5839
S'about'
p5840
tp5841
(dp5842
S'his'
p5843
I2
ss(S'but'
p5844
S'you'
p5845
g167
tp5846
(dp5847
g168
I2
ss(S'trust'
p5848
S'him'
p5849
S'to'
p5850
tp5851
(dp5852
g4365
I2
ss(g766
g1857
g5398
tp5853
(dp5854
g5399
I2
ss(g4953
g4954
g4957
tp5855
(dp5856
S'i'
I2
ss(g342
g345
g5538
tp5857
(dp5858
g5539
I2
ss(g2187
g3903
g4448
tp5859
(dp5860
g3525
I2
ss(g5436
g5439
S'audience'
p5861
tp5862
(dp5863
S'of'
p5864
I2
ss(S'to'
p5865
S'hear'
p5866
S'why'
p5867
tp5868
(dp5869
S'i'
I2
ss(g2328
g2329
g2332
tp5870
(dp5871
g5765
I2
ss(S'for'
p5872
S'his'
p5873
g2724
tp5874
(dp5875
g629
I2
ss(g442
g445
g3230
tp5876
(dp5877
g3231
I2
ss(g2323
g2326
g3506
tp5878
(dp5879
g3507
I2
ss(g942
g945
g676
tp5880
(dp5881
g677
I2
ss(g2797
g2800
S'though'
p5882
tp5883
(dp5884
S'id'
p5885
I2
ss(g4916
g1128
g1129
tp5886
(dp5887
g1130
I2
ss(g1323
S'i'
S'always'
p5888
tp5889
(dp5890
g2409
I2
ss(g388
g389
g392
tp5891
(dp5892
S'whether'
p5893
I2
ss(g663
g2723
g4662
tp5894
(dp5895
g4588
I2
ss(g3439
g1414
g1415
tp5896
(dp5897
g1416
I2
ss(S'nothing'
p5898
g3609
g3610
tp5899
(dp5900
g3611
I2
ss(g5814
S'i'
g5817
tp5901
(dp5902
S'a'
I2
ss(g2715
S'to'
p5903
S'see'
p5904
tp5905
(dp5906
S'a'
I2
sg5653
I2
ss(g2322
g2323
g2326
tp5907
(dp5908
g3506
I2
ss(g1215
S'expressionless'
p5909
S'face'
p5910
tp5911
(dp5912
g3837
I2
ss(S'more'
p5913
g3809
g3810
tp5914
(dp5915
g3811
I2
ss(S'a'
g2865
g2977
tp5916
(dp5917
g2978
I2
ss(g69
g70
g73
tp5918
(dp5919
g5495
I2
ss(g3561
g3564
S'anger'
p5920
tp5921
(dp5922
S'over'
p5923
I2
ss(g3172
S'suggested'
p5924
S'a'
tp5925
(dp5926
S'question'
p5927
I2
ss(g67
S'reason'
p5928
S'you'
p5929
tp5930
(dp5931
S'dont'
p5932
I2
ss(g1521
g1524
S'to'
p5933
tp5934
(dp5935
S'be'
p5936
I2
ss(g3506
g3507
g1839
tp5937
(dp5938
g1840
I2
ss(g1605
g1606
g1609
tp5939
(dp5940
g5376
I2
ss(g3224
g1201
g1202
tp5941
(dp5942
g450
I2
ss(g2827
g2828
g2831
tp5943
(dp5944
g1815
I2
ss(g3553
g5772
g5775
tp5945
(dp5946
S'you'
p5947
I2
ss(g3327
g3330
S's'
tp5948
(dp5949
g4696
I2
ss(S'wild'
p5950
S'dog'
p5951
g2821
tp5952
(dp5953
S'a'
I2
ss(S'his'
p5954
S'glass'
p5955
S'and'
p5956
tp5957
(dp5958
g3119
I2
ss(g3105
g393
g394
tp5959
(dp5960
g395
I2
ss(g261
g264
g572
tp5961
(dp5962
g573
I2
ss(g5904
g5653
g5654
tp5963
(dp5964
g5655
I2
ss(g2056
g2265
g2268
tp5965
(dp5966
g2386
I2
ss(g4065
g4068
S'needed'
p5967
tp5968
(dp5969
S'to'
p5970
I2
ss(g5737
g1931
g1932
tp5971
(dp5972
g1933
I2
ss(g1672
S'a'
g4155
tp5973
(dp5974
g4156
I2
ss(g2862
S'a'
g2865
tp5975
(dp5976
g2977
I2
ss(g547
g550
g4962
tp5977
(dp5978
g4963
I2
ss(g3169
g3172
g5924
tp5979
(dp5980
S'a'
I2
ss(S'to'
p5981
S'initiate'
p5982
S'contact'
p5983
tp5984
(dp5985
S'but'
p5986
I2
ss(S'id'
p5987
S'never'
p5988
S'written'
p5989
tp5990
(dp5991
S'for'
p5992
I2
ss(g3320
g3321
g3324
tp5993
(dp5994
g3545
I2
ss(g1302
g2880
S'i'
tp5995
(dp5996
g2881
I2
ss(g2763
g2764
g641
tp5997
(dp5998
g642
I2
ss(S'said'
p5999
S'waiting'
p6000
g5254
tp6001
(dp6002
g4391
I2
ss(g2521
g2522
g1809
tp6003
(dp6004
g1810
I2
ss(S'wrote'
p6005
S'about'
p6006
S'me'
p6007
tp6008
(dp6009
S'being'
p6010
I2
ss(S'in'
p6011
g5954
g5955
tp6012
(dp6013
g5956
I2
ss(g5142
g5145
g5722
tp6014
(dp6015
g5723
I2
ss(S'guts'
p6016
S'to'
p6017
S'do'
p6018
tp6019
(dp6020
S'that'
p6021
I2
ss(S'he'
p6022
S'referred'
p6023
S'to'
p6024
tp6025
(dp6026
g767
I2
ss(g3252
g3255
g5146
tp6027
(dp6028
g1888
I2
ss(g584
g587
g4351
tp6029
(dp6030
g4352
I2
ss(g5253
g3888
g3778
tp6031
(dp6032
g3779
I2
ss(S'everything'
p6033
S'within'
p6034
S'his'
p6035
tp6036
(dp6037
S'reach'
p6038
I2
ss(S'affair'
p6039
S'shed'
p6040
S'found'
p6041
tp6042
(dp6043
S'out'
p6044
I2
ss(S'firm'
p6045
g4270
g4271
tp6046
(dp6047
g4272
I2
ss(g5453
S'to'
p6048
S'others'
p6049
tp6050
(dp6051
S'than'
p6052
I2
ss(g4769
g4770
g4773
tp6053
(dp6054
g5263
I2
ss(S'sit'
p6055
S'at'
p6056
S'his'
p6057
tp6058
(dp6059
S'table'
p6060
I2
ss(S'few'
p6061
S'minutes'
p6062
S'he'
p6063
tp6064
(dp6065
g3145
I2
ss(g4460
S'gave'
p6066
S'me'
p6067
tp6068
(dp6069
S'a'
I2
ss(S'he'
p6070
S'contended'
p6071
S'that'
p6072
tp6073
(dp6074
S'he'
p6075
I2
ss(g1681
g1535
g1536
tp6076
(dp6077
g1537
I2
ss(g1580
g1581
g1584
tp6078
(dp6079
S'of'
p6080
I2
ss(g3421
g3081
g3082
tp6081
(dp6082
g57
I2
ss(S'in'
p6083
g4267
g1021
tp6084
(dp6085
g1022
I2
ss(S'walked'
p6086
g5413
g4946
tp6087
(dp6088
g3723
I2
ss(g5408
g5409
g5412
tp6089
(dp6090
S'bit'
p6091
I2
ss(g4682
S'man'
p6092
S'i'
tp6093
(dp6094
S'replied'
p6095
I2
ss(S'want'
p6096
g4190
g4191
tp6097
(dp6098
g4192
I2
ss(S'his'
p6099
S'spirit'
p6100
S'had'
p6101
tp6102
(dp6103
g3753
I2
ss(g876
g879
S'a'
tp6104
(dp6105
g30
I2
ss(g1705
g1706
g1709
tp6106
(dp6107
g2211
I2
ss(g3403
g3404
g1964
tp6108
(dp6109
g1965
I3
ss(g271
g272
g275
tp6110
(dp6111
S'of'
p6112
I2
ss(g3699
g3700
g1579
tp6113
(dp6114
g1580
I2
ss(g694
g697
S'sleeping'
p6115
tp6116
(dp6117
S'with'
p6118
I2
ss(g4787
g5061
g5062
tp6119
(dp6120
g3831
I2
ss(g5352
g5355
S'loose'
p6121
tp6122
(dp6123
S'bolger'
p6124
I2
ss(g2380
S'spent'
p6125
g704
tp6126
(dp6127
g705
I2
ss(S'in'
p6128
S'a'
g852
tp6129
(dp6130
g853
I2
ss(g3587
g5304
g5305
tp6131
(dp6132
g4592
I2
ss(g5682
g5685
S'dont'
p6133
tp6134
(dp6135
S'want'
p6136
I2
ss(S'be'
p6137
S'left'
p6138
g3074
tp6139
(dp6140
g3075
I2
ss(g5201
g5202
g1610
tp6141
(dp6142
g1611
I2
ss(g4346
g3402
g3403
tp6143
(dp6144
g3404
I2
ss(g552
g553
g556
tp6145
(dp6146
S'me'
p6147
I2
ss(S'i'
S'thought'
p6148
S'of'
p6149
tp6150
(dp6151
g4768
I2
ss(g2622
g2626
g2418
tp6152
(dp6153
g2419
I2
ss(g1212
g1215
g5909
tp6154
(dp6155
g5910
I2
ss(g1924
g5713
S'i'
tp6156
(dp6157
g3088
I2
ss(g4886
g4551
g4552
tp6158
(dp6159
g2895
I2
ss(g2347
g2350
S'it'
p6160
tp6161
(dp6162
S'was'
p6163
I2
ss(g3043
g4715
g4718
tp6164
(dp6165
g5826
I2
ss(g795
g6011
g5954
tp6166
(dp6167
g5955
I2
ss(g1966
g1969
g4253
tp6168
(dp6169
g5562
I2
ss(g4138
g4141
g4907
tp6170
(dp6171
g4908
I2
ss(g5095
S'your'
p6172
S'worst'
p6173
tp6174
(dp6175
S'fears'
p6176
I2
ss(g842
g845
g2898
tp6177
(dp6178
g2899
I2
ss(S'it'
p6179
S'contained'
p6180
S'a'
tp6181
(dp6182
g5386
I2
ss(g4545
g4548
g365
tp6183
(dp6184
S'i'
I2
ss(g2499
S'a'
g1604
tp6185
(dp6186
g1605
I2
ss(g1854
S'skin'
p6187
S'on'
p6188
tp6189
(dp6190
g5230
I2
ss(g1914
g3401
g5442
tp6191
(dp6192
g1321
I2
ss(S'about'
p6193
S'me'
p6194
S'as'
p6195
tp6196
(dp6197
S'a'
I2
ss(S'a'
g4524
g4527
tp6198
(dp6199
g5308
I2
ss(g3422
g1286
g692
tp6200
(dp6201
g3610
I2
sg693
I2
ss(S'a'
g1424
g3567
tp6202
(dp6203
S'sleeping'
p6204
I2
ss(S'a'
g928
g1551
tp6205
(dp6206
g1552
I2
ss(S'i'
g5999
g6000
tp6207
(dp6208
g5254
I2
ss(g1596
g1599
g3163
tp6209
(dp6210
g3164
I2
ss(g4623
g4626
g3407
tp6211
(dp6212
g2188
I2
ss(g1386
S'i'
g1389
tp6213
(dp6214
g2177
I2
ss(S'did'
p6215
S'have'
p6216
S'something'
p6217
tp6218
(dp6219
S'to'
p6220
I2
ss(g1424
g3567
g6204
tp6221
(dp6222
S'with'
p6223
I2
ss(g1932
g1933
g1936
tp6224
(dp6225
S'if'
p6226
I2
ss(S'for'
p6227
S'so'
p6228
g1009
tp6229
(dp6230
g1010
I2
ss(S'confronted'
p6231
g4247
g4248
tp6232
(dp6233
g1679
I2
ss(S'thousand'
p6234
g810
g811
tp6235
(dp6236
S'i'
I2
ss(g3279
g3282
S'i'
tp6237
(dp6238
g1623
I2
sS'said'
p6239
I2
ss(g2991
g2994
g4018
tp6240
(dp6241
g3297
I2
ss(g4041
g5274
g5275
tp6242
(dp6243
g5276
I2
ss(g3709
g3712
g4653
tp6244
(dp6245
g5299
I2
ss(g2677
g2680
g3727
tp6246
(dp6247
g3728
I2
ss(g5845
g167
g168
tp6248
(dp6249
g169
I2
ss(g2419
g2420
g2423
tp6250
(dp6251
S'a'
I2
ss(S'write'
p6252
S'in'
p6253
S'an'
p6254
tp6255
(dp6256
S'imaginary'
p6257
I2
ss(g3468
g3469
g3363
tp6258
(dp6259
g2321
I2
ss(g2473
g2375
g2376
tp6260
(dp6261
g2377
I2
ss(S'sell'
p6262
S'an'
p6263
S'idea'
p6264
tp6265
(dp6266
g5363
I2
ss(g1617
g1618
g1621
tp6267
(dp6268
g3644
I2
ss(g4369
g4370
g4373
tp6269
(dp6270
S'the'
p6271
I2
ss(g474
g475
g478
tp6272
(dp6273
g4484
I2
ss(S'legal'
p6274
g3638
g3442
tp6275
(dp6276
g3443
I2
ss(g13
g899
g5368
tp6277
(dp6278
S'with'
p6279
I2
ss(S'sales'
p6280
g3218
S'i'
tp6281
(dp6282
g3219
I2
ss(g2235
g2238
g5159
tp6283
(dp6284
S'of'
p6285
I2
ss(g1220
g1221
g1224
tp6286
(dp6287
g1654
I2
ss(g522
g523
g526
tp6288
(dp6289
g1297
I2
ss(S'a'
S'book'
p6290
S'about'
p6291
tp6292
(dp6293
g4724
I3
ss(g4751
S'i'
g3193
tp6294
(dp6295
g197
I2
ss(g2984
g2985
g2988
tp6296
(dp6297
g539
I2
ss(g1010
g1011
g1014
tp6298
(dp6299
S'overwhelmed'
p6300
I2
ss(g1669
g2116
S'i'
tp6301
(dp6302
S'do'
p6303
I2
ss(g2010
g2013
g1236
tp6304
(dp6305
g2815
I2
ss(g1551
g1552
g1555
tp6306
(dp6307
g3773
I2
ss(g4909
g4912
S'have'
p6308
tp6309
(dp6310
S'seen'
p6311
I2
ss(g5303
S'stories'
p6312
S'from'
p6313
tp6314
(dp6315
g4399
I2
ss(S'be'
p6316
g5680
g5681
tp6317
(dp6318
g5682
I2
ss(S'i'
g3088
g3089
tp6319
(dp6320
g3090
I2
ss(g70
g73
g5495
tp6321
(dp6322
g4421
I2
ss(g1653
g3491
g4355
tp6323
(dp6324
g4356
I2
ss(S'ever'
p6325
S'imagined'
p6326
S'i'
tp6327
(dp6328
g1196
I2
ss(g2922
S'comfortable'
p6329
S'bolger'
p6330
tp6331
(dp6332
g1103
I2
ss(g2629
g2632
g4115
tp6333
(dp6334
g2640
I2
ss(S'eye'
p6335
g3159
g3160
tp6336
(dp6337
g2148
I2
ss(g2693
g1837
g2676
tp6338
(dp6339
g2677
I2
ss(S'air'
p6340
S'i'
g2983
tp6341
(dp6342
g2984
I2
ss(g3476
g3479
S'and'
p6343
tp6344
(dp6345
S'you'
p6346
I2
ss(g5205
g2198
g2199
tp6347
(dp6348
g2200
I2
ss(g2705
g2706
g2709
tp6349
(dp6350
g5716
I2
ss(g4927
g4928
g1477
tp6351
(dp6352
g1478
I2
ss(g502
S'trips'
p6353
g5454
tp6354
(dp6355
g5455
I2
ss(S'example'
p6356
g5487
g5479
tp6357
(dp6358
g5480
I2
ss(g4165
g4166
g4169
tp6359
(dp6360
S'your'
p6361
I2
ss(g264
g572
g573
tp6362
(dp6363
g574
I2
ss(g3534
g5067
g5070
tp6364
(dp6365
S'i'
I2
sg1153
I2
sg4215
I2
ss(g6048
g6049
g6052
tp6366
(dp6367
S'hed'
p6368
I2
ss(g3250
g150
g151
tp6369
(dp6370
g152
I2
ss(g499
g502
g6353
tp6371
(dp6372
g5454
I2
ss(g553
g556
g6147
tp6373
(dp6374
g1803
I2
ss(g6010
S'sold'
p6375
S'in'
p6376
tp6377
(dp6378
S'this'
p6379
I2
ss(g1773
g3013
S'a'
tp6380
(dp6381
S'nap'
p6382
I2
ss(g15
g18
g3421
tp6383
(dp6384
g3081
I2
ss(g3779
g3780
g2250
tp6385
(dp6386
g2251
I2
ss(g4996
g1844
g1845
tp6387
(dp6388
g1846
I2
ss(g2711
g2712
g2715
tp6389
(dp6390
g5903
I6
ss(g452
g455
g5404
tp6391
(dp6392
g4520
I2
ss(g5692
g2415
g1531
tp6393
(dp6394
g1532
I2
ss(g4626
g3407
g2188
tp6395
(dp6396
g2189
I2
ss(g115
g116
g119
tp6397
(dp6398
S'fully'
p6399
I2
ss(g4238
g3394
g3395
tp6400
(dp6401
g3396
I2
ss(S'that'
p6402
g4076
g2258
tp6403
(dp6404
g2259
I2
ss(g5885
S'consistently'
p6405
g4899
tp6406
(dp6407
g1051
I2
ss(g1799
g1802
g5838
tp6408
(dp6409
g5839
I2
ss(g3930
S'with'
p6410
S'a'
tp6411
(dp6412
g4838
I2
ss(S'own'
p6413
g2625
g3604
tp6414
(dp6415
g3605
I2
ss(g4308
g4309
g4312
tp6416
(dp6417
g716
I2
ss(g5091
g5092
g5095
tp6418
(dp6419
g6172
I2
ss(g3302
g3897
g3900
tp6420
(dp6421
g5761
I2
ss(g242
g243
g246
tp6422
(dp6423
g5787
I2
ss(g6056
g6057
g6060
tp6424
(dp6425
g4843
I3
ss(g4237
g4238
g3394
tp6426
(dp6427
g3395
I2
ss(g5392
g1293
g1294
tp6428
(dp6429
g253
I2
ss(g1832
g5229
S'of'
p6430
tp6431
(dp6432
S'a'
I2
ss(g786
g789
g2029
tp6433
(dp6434
S'a'
I2
ss(g3933
g5373
g114
tp6435
(dp6436
g115
I2
ss(S'look'
p6437
S'before'
p6438
S'leaving'
p6439
tp6440
(dp6441
g3431
I2
ss(S'staff'
p6442
S'and'
p6443
g4866
tp6444
(dp6445
g2391
I2
ss(g2410
g2411
g2414
tp6446
(dp6447
g3656
I2
ss(g1805
g1808
S'impression'
p6448
tp6449
(dp6450
g4374
I2
ss(g5982
g5983
g5986
tp6451
(dp6452
S'he'
p6453
I2
ss(S'but'
p6454
S'he'
p6455
S'didnt'
p6456
tp6457
(dp6458
S'let'
p6459
I2
ss(g4892
g4893
g4896
tp6460
(dp6461
S'his'
p6462
I2
ss(g1419
g2841
g3115
tp6463
(dp6464
g3116
I2
ss(g3235
g3346
g3133
tp6465
(dp6466
g3134
I2
ss(g5681
g5682
g5685
tp6467
(dp6468
g6133
I2
ss(S'mouth'
p6469
S'that'
p6470
g2963
tp6471
(dp6472
g2964
I2
ss(g1642
g5134
g5137
tp6473
(dp6474
S'at'
p6475
I2
ss(g1678
g3620
S'gender'
p6476
tp6477
(dp6478
S'as'
p6479
I2
ss(g5258
g5259
g5262
tp6480
(dp6481
g5727
I2
ss(S'more'
p6482
S'drinks'
p6483
g4606
tp6484
(dp6485
g1467
I2
ss(g6091
g2545
g2546
tp6486
(dp6487
g2547
I2
ss(S'came'
p6488
S'over'
p6489
S'he'
p6490
tp6491
(dp6492
g2945
I2
ss(g1576
S'i'
S'know'
p6493
tp6494
(dp6495
S'she'
p6496
I2
ss(S'body'
p6497
S'bouncing'
p6498
g434
tp6499
(dp6500
g435
I2
ss(g2591
g2592
g2595
tp6501
(dp6502
g2127
I2
ss(g534
g535
g538
tp6503
(dp6504
S'me'
p6505
I2
ss(S'a'
g4933
g4936
tp6506
(dp6507
S'for'
p6508
I2
ss(S'hands'
p6509
S'and'
p6510
S'toss'
p6511
tp6512
(dp6513
S'it'
p6514
I2
ss(g2706
g2709
g5716
tp6515
(dp6516
g5717
I2
ss(g2046
g2049
S'whats'
p6517
tp6518
(dp6519
g5528
I2
ss(g4725
g1449
g1450
tp6520
(dp6521
g1451
I2
ss(g4467
g4470
S'i'
tp6522
(dp6523
g3287
I2
ss(g3922
g5142
g5145
tp6524
(dp6525
g5722
I2
ss(g4839
g4840
S'i'
tp6526
(dp6527
g4042
I2
ss(g1381
g2436
g2437
tp6528
(dp6529
g2438
I2
ss(g3168
g1015
g1016
tp6530
(dp6531
g1017
I2
ss(S'i'
g2894
g3634
tp6532
(dp6533
g3635
I2
ss(g1638
g2954
g156
tp6534
(dp6535
g157
I2
ss(g3833
g3836
S'i'
tp6536
(dp6537
S'knew'
p6538
I2
ss(g5246
g3698
g3699
tp6539
(dp6540
g1689
I2
sg3700
I2
ss(g181
g184
g5674
tp6541
(dp6542
g3981
I2
ss(g341
g342
g345
tp6543
(dp6544
g5538
I2
ss(S'words'
p6545
g3467
g3468
tp6546
(dp6547
g3469
I2
ss(g792
g795
g6011
tp6548
(dp6549
g5954
I2
ss(g959
g962
g3204
tp6550
(dp6551
g3205
I2
ss(g4037
g4038
g4041
tp6552
(dp6553
g5274
I2
sg3885
I2
ss(g146
g149
g1190
tp6554
(dp6555
g1191
I2
ss(S'biography'
p6556
S'material'
p6557
g4241
tp6558
(dp6559
g4242
I2
ss(g901
g902
g905
tp6560
(dp6561
S'them'
p6562
I2
ss(g480
g481
g484
tp6563
(dp6564
g2740
I2
ss(g1358
g1359
g1362
tp6565
(dp6566
g3032
I2
ss(g589
g590
g593
tp6567
(dp6568
S'his'
p6569
I2
ss(g857
g3238
S'stories'
p6570
tp6571
(dp6572
g5434
I2
ss(g4229
g4230
g4233
tp6573
(dp6574
S'be'
p6575
I2
ss(g2147
g4951
S'all'
p6576
tp6577
(dp6578
g3944
I2
ss(g6430
S'a'
g4073
tp6579
(dp6580
g3707
I2
ss(g2786
g4409
S'i'
tp6581
(dp6582
g1244
I2
ss(g1332
g1335
S'me'
p6583
tp6584
(dp6585
g5078
I2
ss(g1948
g1949
g1952
tp6586
(dp6587
g2017
I2
ss(S'to'
p6588
S'sell'
p6589
S'his'
p6590
tp6591
(dp6592
S'image'
p6593
I2
ss(g6180
S'a'
g5386
tp6594
(dp6595
g5387
I2
ss(g1502
S'a'
g4418
tp6596
(dp6597
g5382
I2
ss(S'not'
p6598
S'deal'
p6599
S'with'
p6600
tp6601
(dp6602
S'a'
I2
ss(g873
g1508
g1509
tp6603
(dp6604
g1510
I2
ss(S'make'
p6605
g5756
g5757
tp6606
(dp6607
g5758
I2
ss(g1443
g5587
g5590
tp6608
(dp6609
S'unchanged'
p6610
I2
ss(g6610
S'i'
g6148
tp6611
(dp6612
g6149
I2
ss(g418
g419
g422
tp6613
(dp6614
g3893
I2
ss(g724
g727
g2059
tp6615
(dp6616
S'had'
p6617
I2
ss(g4582
S'did'
p6618
S'i'
tp6619
(dp6620
S'listen'
p6621
I2
ss(g2908
g1903
g1904
tp6622
(dp6623
g1905
I2
ss(g2432
g2435
g3670
tp6624
(dp6625
g3671
I2
ss(S'she'
p6626
S'was'
p6627
g5124
tp6628
(dp6629
S'a'
I2
ss(S'female'
p6630
g1953
g1954
tp6631
(dp6632
g1955
I2
ss(S'to'
p6633
S'drive'
p6634
S'in'
p6635
tp6636
(dp6637
S'mexico'
p6638
I2
ss(g1077
S'i'
g635
tp6639
(dp6640
g636
I2
ss(g562
g563
g566
tp6641
(dp6642
g4046
I2
ss(g4732
g4735
g6252
tp6643
(dp6644
g6253
I2
ss(g4912
g6308
g6311
tp6645
(dp6646
S'my'
p6647
I2
ss(g3993
g3996
S'in'
p6648
tp6649
(dp6650
g5090
I2
ss(g2551
g2554
S'hed'
p6651
tp6652
(dp6653
S'rather'
p6654
I2
ss(g252
g1088
S'want'
p6655
tp6656
(dp6657
g2315
I2
ss(g6470
g2963
g2964
tp6658
(dp6659
g2965
I2
ss(g1202
g450
g451
tp6660
(dp6661
g452
I2
ss(g2696
g2697
g2700
tp6662
(dp6663
g223
I2
ss(g5726
S'been'
p6664
S'with'
p6665
tp6666
(dp6667
S'i'
I2
ss(g4271
g4272
g4275
tp6668
(dp6669
g4762
I2
ss(S'wife'
p6670
g4214
g4215
tp6671
(dp6672
g3306
I2
ss(g6017
g6018
g6021
tp6673
(dp6674
g2989
I2
ss(g5106
g5107
g5110
tp6675
(dp6676
g2327
I2
ss(g851
g4114
S'how'
p6677
tp6678
(dp6679
S'many'
p6680
I2
ss(g4672
g3957
g3958
tp6681
(dp6682
g3959
I2
ss(g6006
g6007
g6010
tp6683
(dp6684
g6375
I2
ss(S'a'
g405
g406
tp6685
(dp6686
g407
I2
ss(S'i'
g1897
g1898
tp6687
(dp6688
g1899
I2
ss(S'his'
p6689
g4437
g2
tp6690
(dp6691
g3
I2
ss(g677
g678
g681
tp6692
(dp6693
g4692
I2
sg2090
I2
ss(S'the'
p6694
g6335
g3159
tp6695
(dp6696
g3160
I2
ss(S'table'
p6697
g5071
g3623
tp6698
(dp6699
S'a'
I2
ss(g2177
g2178
g2181
tp6700
(dp6701
g3173
I2
ss(S'i'
g427
S'up'
p6702
tp6703
(dp6704
g5913
I2
ss(g5986
g6453
S'wanted'
p6705
tp6706
(dp6707
S'to'
p6708
I2
ss(S'failed'
p6709
S'to'
p6710
S'open'
p6711
tp6712
(dp6713
g1821
I2
ss(g6621
g5813
g5814
tp6714
(dp6715
S'i'
I2
sg6227
I2
ss(S'i'
g1568
g1569
tp6716
(dp6717
g1570
I2
ss(g4919
g4920
g4923
tp6718
(dp6719
g4152
I2
ss(g4097
S'a'
g4100
tp6720
(dp6721
S'not'
p6722
I2
ss(g1993
S'see'
p6723
S'it'
p6724
tp6725
(dp6726
g2902
I2
ss(g1899
g1902
g3872
tp6727
(dp6728
g4902
I2
ss(g6617
S'to'
p6729
g2744
tp6730
(dp6731
g2745
I2
ss(S'a'
g2277
S'just'
p6732
tp6733
(dp6734
S'as'
p6735
I2
ss(g1810
g1811
g1814
tp6736
(dp6737
g5848
I2
ss(g1152
g1153
g1156
tp6738
(dp6739
g1879
I2
ss(g4253
g5562
g5563
tp6740
(dp6741
g5564
I2
ss(g5967
g5970
S'make'
p6742
tp6743
(dp6744
S'an'
p6745
I2
ss(S'hed'
p6746
g6231
g4247
tp6747
(dp6748
g4248
I2
ss(g125
g584
g587
tp6749
(dp6750
g4351
I2
ss(g4262
S'his'
p6751
S'elbow'
p6752
tp6753
(dp6754
S'son'
p6755
I2
ss(S'a'
g2032
S'back'
p6756
tp6757
(dp6758
S'down'
p6759
I2
ss(g305
g1066
g1069
tp6760
(dp6761
S'to'
p6762
I2
ss(g4156
g1385
g1386
tp6763
(dp6764
S'i'
I2
ss(g1955
g1958
g605
tp6765
(dp6766
g606
I2
ss(g255
g258
g1338
tp6767
(dp6768
g5345
I2
ss(g2731
g4545
g4548
tp6769
(dp6770
g365
I2
ss(g3298
g3299
g3302
tp6771
(dp6772
g3897
I2
ss(g3368
S'i'
g2974
tp6773
(dp6774
g2607
I2
ss(g4764
g4767
g4853
tp6775
(dp6776
g4854
I2
ss(g2792
g2570
g2571
tp6777
(dp6778
g2572
I2
ss(g2377
g2380
g6125
tp6779
(dp6780
g704
I2
ss(g2346
g2347
g2350
tp6781
(dp6782
g6160
I2
ss(g2249
S'what'
p6783
g4871
tp6784
(dp6785
g4872
I2
ss(g2709
g5716
g5717
tp6786
(dp6787
g5718
I2
ss(S'a'
g4418
g5382
tp6788
(dp6789
g5383
I2
ss(S'my'
p6790
S'status'
p6791
S'in'
p6792
tp6793
(dp6794
S'the'
p6795
I2
ss(g98
g99
S'a'
tp6796
(dp6797
g5249
I2
ss(g5184
g4164
g4165
tp6798
(dp6799
g4166
I2
ss(g3811
g3814
S'bolger'
p6800
tp6801
(dp6802
g5105
I2
ss(S'a'
S'deepseated'
p6803
S'need'
p6804
tp6805
(dp6806
g6588
I2
ss(g995
g996
g999
tp6807
(dp6808
S'i'
I2
ss(g4632
S'he'
p6809
S'never'
p6810
tp6811
(dp6812
g2656
I2
ss(g6041
g6044
g5330
tp6813
(dp6814
g5331
I2
ss(g1706
g1709
g2211
tp6815
(dp6816
g2212
I2
ss(g1763
g1766
g4021
tp6817
(dp6818
g4022
I2
ss(g848
g851
g4114
tp6819
(dp6820
g6677
I2
ss(g5727
g5730
g5844
tp6821
(dp6822
g5845
I2
ss(g2228
g2229
g2232
tp6823
(dp6824
g3584
I2
ss(g2022
g3383
g2528
tp6825
(dp6826
g2529
I2
ss(g2927
g2928
g1455
tp6827
(dp6828
g1456
I2
ss(g4833
g2448
g2351
tp6829
(dp6830
g2352
I2
ss(g4095
g5084
S'age'
p6831
tp6832
(dp6833
S'and'
p6834
I2
ss(g550
g4962
g4963
tp6835
(dp6836
g423
I2
ss(g1969
g4253
g5562
tp6837
(dp6838
g5563
I2
ss(S'weeks'
p6839
S'i'
S'sat'
p6840
tp6841
(dp6842
S'at'
p6843
I2
ss(g4141
g4907
g4908
tp6844
(dp6845
g4909
I2
ss(g2376
g2377
g2380
tp6846
(dp6847
g6125
I2
ss(g739
g742
g3860
tp6848
(dp6849
g3861
I2
ss(S'in'
p6850
S'conflicts'
p6851
g6402
tp6852
(dp6853
g4076
I2
ss(g6125
g704
g705
tp6854
(dp6855
g706
I2
ss(g2103
g2106
g3371
tp6856
(dp6857
S'isnt'
p6858
I2
ss(g4676
S'cascading'
p6859
S'over'
p6860
tp6861
(dp6862
S'the'
p6863
I2
ss(g6804
g6588
g6589
tp6864
(dp6865
g6590
I2
ss(g3356
g3359
S'me'
p6866
tp6867
(dp6868
S'to'
p6869
I2
ss(g2161
g1393
g1394
tp6870
(dp6871
g1395
I2
ss(g6498
g434
g435
tp6872
(dp6873
g436
I2
ss(g6075
S'cared'
p6874
g3559
tp6875
(dp6876
g3560
I2
ss(g4792
g4795
S'food'
p6877
tp6878
(dp6879
g6083
I2
ss(g4778
g2278
g2279
tp6880
(dp6881
g2280
I2
ss(g4295
g4296
g2665
tp6882
(dp6883
g2666
I2
ss(g3785
g2652
g2653
tp6884
(dp6885
g2233
I2
ss(g2364
g2365
g2368
tp6886
(dp6887
g2635
I2
ss(g6583
g5078
S'i'
tp6888
(dp6889
g5079
I2
ss(S'being'
p6890
g5185
S'a'
tp6891
(dp6892
g5186
I2
ss(g6576
g3944
g1525
tp6893
(dp6894
g1526
I2
ss(g4338
g4341
g4627
tp6895
(dp6896
g4628
I2
ss(g902
g905
g6562
tp6897
(dp6898
S'if'
p6899
I2
ss(g2746
g2749
S'bolger'
p6900
tp6901
(dp6902
S'that'
p6903
I2
ss(S'again'
p6904
g6070
g6071
tp6905
(dp6906
g6072
I2
ss(S'divorced'
p6907
g6904
g6070
tp6908
(dp6909
g6071
I2
ss(g2635
g2636
g2639
tp6910
(dp6911
S'deepest'
p6912
I2
ss(g712
g715
g3992
tp6913
(dp6914
g2033
I2
ss(g4594
g1438
g1439
tp6915
(dp6916
g1440
I2
ss(g3793
g4709
g4712
tp6917
(dp6918
S'a'
I2
ss(g3704
g3540
g3541
tp6919
(dp6920
g3542
I2
ss(S'above'
p6921
g3413
g1994
tp6922
(dp6923
g1995
I2
ss(S'i'
g686
g1392
tp6924
(dp6925
g4970
I2
ss(g337
g276
g277
tp6926
(dp6927
g278
I2
ss(S'by'
p6928
S'heart'
p6929
g2304
tp6930
(dp6931
g2305
I2
ss(g103
g104
g107
tp6932
(dp6933
g497
I2
ss(S'with'
p6934
g5805
g5806
tp6935
(dp6936
g5807
I2
ss(g6361
g2710
g2711
tp6937
(dp6938
g2712
I2
ss(g6313
g4399
g3331
tp6939
(dp6940
g3332
I2
ss(g706
g709
g2757
tp6941
(dp6942
g2758
I2
ss(g5936
g5570
g417
tp6943
(dp6944
g418
I2
ss(g2688
g2691
g3362
tp6945
(dp6946
g3691
I2
ss(g3864
g790
g791
tp6947
(dp6948
g792
I2
ss(S'held'
p6949
S'forth'
p6950
g6128
tp6951
(dp6952
S'a'
I2
ss(g4829
g4830
g4833
tp6953
(dp6954
g2448
I2
ss(g240
g5087
S'of'
p6955
tp6956
(dp6957
g2296
I2
ss(S'i'
g4080
g4083
tp6958
(dp6959
g4218
I2
ss(g1320
S'that'
p6960
S'he'
p6961
tp6962
(dp6963
S'wanted'
p6964
I2
ss(g6124
S'believed'
p6965
S'he'
p6966
tp6967
(dp6968
g5619
I2
sg4303
I2
ss(g5807
g5810
S'women'
p6969
tp6970
(dp6971
g5443
I2
ss(g2928
g1455
g1456
tp6972
(dp6973
g1457
I2
ss(g2538
g5643
g5257
tp6974
(dp6975
g5258
I2
ss(g395
g398
g5267
tp6976
(dp6977
S'of'
p6978
I2
ss(g4445
g6022
g6023
tp6979
(dp6980
g6024
I2
ss(g806
g809
g5744
tp6981
(dp6982
S'besides'
p6983
I2
ss(g3630
g3633
g6556
tp6984
(dp6985
g6557
I2
ss(S'my'
p6986
S'table'
p6987
g5237
tp6988
(dp6989
g5238
I2
ss(g6285
S'people'
p6990
g4885
tp6991
(dp6992
g4886
I2
ss(g5317
g5318
g5321
tp6993
(dp6994
S'sure'
p6995
I2
ss(S'i'
g4926
g4927
tp6996
(dp6997
g4928
I2
ss(g1416
g1419
g2841
tp6998
(dp6999
g3115
I2
ss(S'that'
p7000
S'i'
g3856
tp7001
(dp7002
g3857
I2
ss(g2664
g4336
g4337
tp7003
(dp7004
g4338
I2
ss(g2132
g3885
g247
tp7005
(dp7006
g248
I2
ss(g1974
g1975
g1978
tp7007
(dp7008
S'a'
I2
ss(S'a'
g1960
g1963
tp7009
(dp7010
g6605
I2
ss(g3728
g3731
g1909
tp7011
(dp7012
g1910
I2
ss(g1615
S'without'
p7013
g5005
tp7014
(dp7015
g5006
I2
ss(S'hed'
p7016
g4528
g858
tp7017
(dp7018
g859
I2
ss(S'lawyers'
p7019
S'would'
p7020
g3734
tp7021
(dp7022
g3735
I2
ss(g2848
g2849
g2852
tp7023
(dp7024
S'some'
p7025
I2
sS'like'
p7026
I2
ss(g6379
g411
g412
tp7027
(dp7028
g413
I2
ss(g1277
g1280
g7026
tp7029
(dp7030
S'some'
p7031
I2
ss(g2111
g2112
g2115
tp7032
(dp7033
S'perform'
p7034
I2
ss(g6538
S'and'
p7035
S'his'
p7036
tp7037
(dp7038
S'first'
p7039
I2
ss(g5455
g5200
g5201
tp7040
(dp7041
g5202
I2
ss(S'i'
g1389
g2177
tp7042
(dp7043
g2178
I2
ss(g5442
g1321
g1322
tp7044
(dp7045
g1323
I2
ss(g3761
S'i'
g796
tp7046
(dp7047
S'i'
I2
ss(S'speaking'
p7048
S'his'
p7049
S'mind'
p7050
tp7051
(dp7052
S'and'
p7053
I2
ss(g4837
S'hed'
p7054
S'bedded'
p7055
tp7056
(dp7057
S'over'
p7058
I2
ss(S'i'
g5817
S'a'
tp7059
(dp7060
g4307
I2
ss(g1798
g1799
g1802
tp7061
(dp7062
g5838
I2
ss(g3462
g2486
g2487
tp7063
(dp7064
g2488
I2
ss(g4574
g4575
g4578
tp7065
(dp7066
S'learned'
p7067
I2
ss(g3028
S'his'
p7068
g1883
tp7069
(dp7070
S'a'
I2
ss(g3257
g3258
g3261
tp7071
(dp7072
g2667
I2
sS'main'
p7073
I2
ss(g4411
g4412
g4415
tp7074
(dp7075
g4736
I2
ss(g1056
g3349
g3352
tp7076
(dp7077
g3521
I2
ss(g2342
g2343
S'a'
tp7078
(dp7079
S'fivepound'
p7080
I2
ss(g2251
g2252
g2255
tp7081
(dp7082
g3312
I2
ss(S'see'
p7083
g2065
g2066
tp7084
(dp7085
g2067
I2
ss(g3458
S'i'
g3588
tp7086
(dp7087
g3589
I2
ss(g5504
g6033
g6034
tp7088
(dp7089
g6035
I2
ss(g3595
g3596
g3599
tp7090
(dp7091
g5205
I2
ss(g4736
g4737
g4740
tp7092
(dp7093
g6045
I2
ss(g5458
g5431
g617
tp7094
(dp7095
g618
I2
ss(S'a'
S'bad'
p7096
S'idea'
p7097
tp7098
(dp7099
g5705
I2
ss(g2658
g2661
S'of'
p7100
tp7101
(dp7102
S'his'
p7103
I2
sg255
I2
sg6990
I2
ss(g6809
g6810
g2656
tp7104
(dp7105
g2657
I2
ss(g4319
g4322
g5690
tp7106
(dp7107
g5691
I2
ss(S'bag'
p7108
g2239
g2122
tp7109
(dp7110
g352
I2
ss(S'the'
p7111
S'silence'
p7112
g1376
tp7113
(dp7114
g1377
I2
ss(g832
g833
S'a'
tp7115
(dp7116
g120
I2
ss(S'their'
p7117
S'own'
p7118
g2095
tp7119
(dp7120
g2096
I2
ss(g5042
g3264
g3265
tp7121
(dp7122
g3266
I2
ss(g4971
g4972
g4975
tp7123
(dp7124
S'me'
p7125
I2
ss(g2547
g2550
g2101
tp7126
(dp7127
g2102
I2
ss(S'the'
p7128
g1919
g440
tp7129
(dp7130
g441
I2
ss(g6562
g6899
S'he'
p7131
tp7132
(dp7133
g2162
I2
ss(g5270
g5273
g2397
tp7134
(dp7135
g2398
I2
ss(g1033
g5352
g5355
tp7136
(dp7137
g6121
I2
ss(g3643
g2474
g2475
tp7138
(dp7139
g2476
I2
ss(S'a'
g3025
g3028
tp7140
(dp7141
g7068
I2
ss(g2636
g2639
g6912
tp7142
(dp7143
S'parts'
p7144
I2
ss(g275
g6112
S'them'
p7145
tp7146
(dp7147
S'i'
I2
ss(g5308
S'i'
g4510
tp7148
(dp7149
g4511
I2
ss(S'bit'
p7150
g7000
S'i'
tp7151
(dp7152
g3856
I2
ss(g6329
g6330
g1103
tp7153
(dp7154
g1104
I2
ss(g5266
g3449
g3450
tp7155
(dp7156
S'seeing'
p7157
I2
sg4119
I2
sS'i'
I2
sg3451
I2
sg1671
I2
sg2939
I2
sg946
I3
ss(g2371
g2374
S'i'
tp7158
(dp7159
S'knew'
p7160
I2
ss(g6840
g6843
S'his'
p7161
tp7162
(dp7163
g6697
I2
ss(g213
g2995
g527
tp7164
(dp7165
g528
I2
ss(g2149
g2150
S'i'
tp7166
(dp7167
g8
I2
ss(g2886
g2887
g2516
tp7168
(dp7169
g2517
I2
ss(g3068
g3069
g658
tp7170
(dp7171
g659
I2
ss(g2353
g2356
g6907
tp7172
(dp7173
g6904
I2
ss(g6762
g1736
g1737
tp7174
(dp7175
g893
I2
ss(g1752
g1753
g1756
tp7176
(dp7177
g5735
I2
ss(g2628
g2629
g2632
tp7178
(dp7179
g4115
I2
ss(g1047
g1050
g7048
tp7180
(dp7181
g7049
I2
ss(S'consistently'
p7182
S'rude'
p7183
S'to'
p7184
tp7185
(dp7186
S'his'
p7187
I2
ss(g456
g457
g460
tp7188
(dp7189
g6630
I2
ss(g1340
g1341
g755
tp7190
(dp7191
g756
I2
ss(S'didnt'
p7192
S'ask'
p7193
S'him'
p7194
tp7195
(dp7196
g4995
I2
ss(g4122
g4579
g3842
tp7197
(dp7198
g3843
I2
ss(g4700
S'a'
g6803
tp7199
(dp7200
g6804
I2
ss(g5006
g5007
g5010
tp7201
(dp7202
S'you'
p7203
I2
ss(g5110
g2327
g2328
tp7204
(dp7205
g2329
I2
ss(g3633
g6556
g6557
tp7206
(dp7207
g4241
I2
ss(g3935
g3936
g1275
tp7208
(dp7209
g1276
I2
ss(g2438
g2441
g4185
tp7210
(dp7211
g4186
I2
ss(g1141
g1142
g1145
tp7212
(dp7213
g3678
I2
ss(S'a'
g6274
g3638
tp7214
(dp7215
g3442
I2
ss(g2554
g6651
g6654
tp7216
(dp7217
g6598
I2
ss(g3746
S'according'
p7218
S'to'
p7219
tp7220
(dp7221
S'bolger'
p7222
I2
ss(g3436
g4571
g4079
tp7223
(dp7224
S'i'
I2
ss(S'a'
S'long'
p7225
g3576
tp7226
(dp7227
g3577
I2
ss(g3164
g3165
g3168
tp7228
(dp7229
g1015
I2
ss(g2288
S'tangled'
p7230
S'in'
p7231
tp7232
(dp7233
S'the'
p7234
I2
ss(g3008
g3009
g3012
tp7235
(dp7236
g5428
I2
ss(g5840
g5843
g4637
tp7237
(dp7238
g3085
I2
ss(g1933
g1936
g6226
tp7239
(dp7240
S'i'
I2
ss(g6514
g461
g462
tp7241
(dp7242
g463
I2
ss(g4617
g4618
g4621
tp7243
(dp7244
S'i'
I2
ss(g4195
g5701
g5704
tp7245
(dp7246
S'women'
p7247
I2
ss(g6475
g6986
g6987
tp7248
(dp7249
g5237
I2
ss(g1586
g1587
g1590
tp7250
(dp7251
g4719
I2
ss(g4272
g4275
g4762
tp7252
(dp7253
g4763
I2
ss(g6627
g5124
S'a'
tp7254
(dp7255
g1501
I2
ss(S'i'
g2781
g2782
tp7256
(dp7257
g2783
I2
ss(g5345
g1472
g1473
tp7258
(dp7259
S'i'
I2
ss(S'want'
p7260
g5865
g5866
tp7261
(dp7262
g5867
I2
ss(g231
g234
S'for'
p7263
tp7264
(dp7265
S'your'
p7266
I2
ss(g3196
g7150
g7000
tp7267
(dp7268
S'i'
I2
ss(g26
g27
S'a'
tp7269
(dp7270
g3169
I2
ss(g3367
g3368
S'i'
tp7271
(dp7272
g2974
I2
ss(g416
g2135
g1219
tp7273
(dp7274
g1220
I2
ss(g881
g882
g885
tp7275
(dp7276
g652
I2
ss(g2158
g2161
g1393
tp7277
(dp7278
g1394
I2
ss(g3635
g864
S'i'
tp7279
(dp7280
g865
I2
ss(g1183
S'i'
S'didnt'
p7281
tp7282
(dp7283
S'want'
p7284
I2
ss(g7193
g7194
g4995
tp7285
(dp7286
g4996
I2
ss(S'i'
S'wondered'
p7287
g1098
tp7288
(dp7289
g1099
I2
ss(g2232
g3584
g3587
tp7290
(dp7291
g5304
I2
ss(g6635
g6638
S'a'
tp7292
(dp7293
g265
I2
ss(g5215
g4330
g4331
tp7294
(dp7295
g4332
I2
ss(g7112
g1376
g1377
tp7296
(dp7297
g1378
I2
ss(g360
g361
g364
tp7298
(dp7299
S'to'
p7300
I2
ss(g5539
g5542
S'he'
p7301
tp7302
(dp7303
g4999
I2
ss(g2937
S'i'
g2014
tp7304
(dp7305
g1370
I2
ss(g6220
g4815
g4816
tp7306
(dp7307
g4817
I2
ss(g1575
g1576
S'i'
tp7308
(dp7309
g6493
I2
ss(g3201
g7016
g4528
tp7310
(dp7311
g858
I2
ss(g2215
S'voice'
p7312
S'booming'
p7313
tp7314
(dp7315
g6921
I2
ss(S'could'
p7316
S'know'
p7317
S'what'
p7318
tp7319
(dp7320
g3497
I2
ss(g2164
g2167
S'a'
tp7321
(dp7322
g6274
I2
ss(g3219
g3222
S'what'
p7323
tp7324
(dp7325
S'i'
I2
ss(g945
g676
g677
tp7326
(dp7327
g678
I2
ss(S'wed'
p7328
g4451
g4452
tp7329
(dp7330
g485
I2
ss(g3511
g3512
g3515
tp7331
(dp7332
g3976
I2
ss(S'sales'
p7333
g1670
g1671
tp7334
(dp7335
g1672
I2
ss(g6647
S'sleeping'
p7336
g1710
tp7337
(dp7338
g1711
I2
ss(g1115
g1118
g4615
tp7339
(dp7340
g4001
I2
ss(S'to'
p7341
g479
g480
tp7342
(dp7343
g6228
I2
sg481
I2
ss(g1569
g1570
g1573
tp7344
(dp7345
g4278
I2
ss(g5166
g235
g236
tp7346
(dp7347
g237
I2
ss(S'in'
p7348
S'mexico'
p7349
S'as'
p7350
tp7351
(dp7352
S'symptomatic'
p7353
I2
ss(g3722
g4803
g5290
tp7354
(dp7355
S'this'
p7356
I2
ss(g4211
g749
g750
tp7357
(dp7358
S'was'
p7359
I2
sg751
I2
ss(g447
g241
g242
tp7360
(dp7361
g243
I2
ss(g4709
g4712
S'a'
tp7362
(dp7363
S'chair'
p7364
I2
ss(g1476
g3455
g3458
tp7365
(dp7366
S'i'
I2
ss(g1260
g5519
S'enough'
p7367
tp7368
(dp7369
g4049
I2
ss(g1133
g6316
g5680
tp7370
(dp7371
g5681
I2
ss(g993
g1122
g1123
tp7372
(dp7373
g1124
I2
ss(g4822
g1858
g1859
tp7374
(dp7375
g1860
I2
ss(g6060
g4843
g836
tp7376
(dp7377
S'a'
I2
ss(g1196
g1197
g1200
tp7378
(dp7379
g5223
I2
ss(g277
g278
g281
tp7380
(dp7381
g4821
I2
ss(g5149
g5152
S'would'
p7382
tp7383
(dp7384
g6055
I2
ss(g6810
g2656
g2657
tp7385
(dp7386
g2658
I2
ss(S'other'
p7387
S'staff'
p7388
S'to'
p7389
tp7390
(dp7391
g4891
I2
ss(g4038
g4041
g5274
tp7392
(dp7393
g5275
I2
ss(g3884
S'as'
p7394
g7328
tp7395
(dp7396
g4451
I2
ss(g3261
g7073
S'concern'
p7397
tp7398
(dp7399
g6193
I2
ss(g5171
g5174
g6262
tp7400
(dp7401
g6263
I2
ss(g2608
g2609
g2612
tp7402
(dp7403
g5408
I2
ss(g4740
g6045
g4270
tp7404
(dp7405
g4271
I2
ss(g892
S'come'
p7406
g5511
tp7407
(dp7408
g5512
I2
ss(S'inkling'
p7409
S'that'
p7410
S'his'
p7411
tp7412
(dp7413
g318
I2
ss(g3100
g1344
g1345
tp7414
(dp7415
g1346
I2
ss(g475
g478
g4484
tp7416
(dp7417
g4485
I2
ss(g5587
g5590
g6610
tp7418
(dp7419
S'i'
I2
ss(g4834
g4837
g7054
tp7420
(dp7421
g7055
I2
ss(g1863
g4784
g4787
tp7422
(dp7423
g5061
I2
ss(g4628
g4629
g4632
tp7424
(dp7425
g6809
I2
ss(g2919
g2922
g6329
tp7426
(dp7427
g6330
I2
ss(g2396
g5872
g5873
tp7428
(dp7429
g2724
I2
ss(g5736
g5737
g1931
tp7430
(dp7431
g1932
I2
ss(g5275
g5276
g5279
tp7432
(dp7433
S'ill'
p7434
I2
ss(g6490
g2945
g2946
tp7435
(dp7436
g1403
I2
ss(g5373
g114
g115
tp7437
(dp7438
g116
I2
ss(S'write'
g5782
S'i'
tp7439
(dp7440
g5458
I2
ss(g311
g5604
g5605
tp7441
(dp7442
g5606
I2
ss(g975
S'i'
g978
tp7443
(dp7444
S'his'
p7445
I2
ss(S'cant'
p7446
g2885
g2886
tp7447
(dp7448
g2887
I2
ss(g4853
g4854
g4857
tp7449
(dp7450
g5270
I2
ss(g4054
g4055
g4058
tp7451
(dp7452
g4609
I2
ss(g5655
g5658
S'the'
p7453
tp7454
(dp7455
g7333
I3
ss(g6071
g6072
g6075
tp7456
(dp7457
g6874
I2
ss(g3881
g3884
g7394
tp7458
(dp7459
g7328
I2
ss(g3175
g3178
g3516
tp7460
(dp7461
g3517
I2
ss(g7203
g7446
g2885
tp7462
(dp7463
g2886
I2
ss(g5439
g5861
g5864
tp7464
(dp7465
g1627
I2
ss(g5062
g3831
g3832
tp7466
(dp7467
g3833
I2
ss(g1210
g4673
g4676
tp7468
(dp7469
g6859
I2
ss(g192
g193
g196
tp7470
(dp7471
g2227
I2
ss(g845
g2898
g2899
tp7472
(dp7473
g2842
I2
ss(g5717
g5718
g5721
tp7474
(dp7475
g4616
I2
ss(g5435
g5436
g5439
tp7476
(dp7477
g5861
I2
ss(g5826
g5829
S'bolger'
p7478
tp7479
(dp7480
S'was'
p7481
I2
ss(g1849
g3243
g3244
tp7482
(dp7483
g1146
I2
ss(g190
g5050
S'they'
p7484
tp7485
(dp7486
S'had'
p7487
I2
ss(g6160
g6163
S'a'
tp7488
(dp7489
g7096
I2
ss(g157
g158
g161
tp7490
(dp7491
g5028
I2
ss(g5238
g5239
g737
tp7492
(dp7493
g738
I2
ss(g1753
g1756
g5735
tp7494
(dp7495
g5736
I2
ss(g4784
g4787
g5061
tp7496
(dp7497
g5062
I2
ss(S'i'
g1866
g4746
tp7498
(dp7499
S'he'
p7500
I2
ss(g1232
g1233
g1237
tp7501
(dp7502
g4939
I2
ss(g2481
g2482
g2485
tp7503
(dp7504
g4014
I2
ss(g1567
g6949
g6950
tp7505
(dp7506
g6128
I2
ss(g6900
g6903
g6626
tp7507
(dp7508
g6627
I2
ss(g4622
g4623
g4626
tp7509
(dp7510
g3407
I2
ss(g4928
g1477
g1478
tp7511
(dp7512
g1479
I2
ss(S'and'
p7513
S'snippets'
p7514
g2911
tp7515
(dp7516
g2912
I2
ss(g3926
g3927
g3930
tp7517
(dp7518
g6410
I2
ss(g3198
g3201
g7016
tp7519
(dp7520
g4528
I2
ss(g882
g885
g652
tp7521
(dp7522
g653
I2
ss(S'with'
p7523
S'a'
g2696
tp7524
(dp7525
g2697
I2
ss(g6443
g4866
g2391
tp7526
(dp7527
g2392
I2
ss(g1632
g5593
g5594
tp7528
(dp7529
g5595
I2
ss(S'and'
p7530
S'birthmarks'
p7531
S'i'
tp7532
(dp7533
g7192
I2
ss(g3031
g5418
g7341
tp7534
(dp7535
g479
I2
ss(S'does'
p7536
S'is'
p7537
g4032
tp7538
(dp7539
g4033
I2
ss(g5321
g6995
S'you'
p7540
tp7541
(dp7542
S'want'
p7543
I2
ss(S'whos'
p7544
g2044
g2045
tp7545
(dp7546
g2046
I2
ss(g2988
g539
g540
tp7547
(dp7548
g541
I2
ss(g4073
g3707
g3708
tp7549
(dp7550
g3709
I2
ss(g3712
g4653
g5299
tp7551
(dp7552
g5300
I2
ss(g5294
g5295
g5298
tp7553
(dp7554
g1080
I2
ss(S'like'
p7555
g2138
g2139
tp7556
(dp7557
g2140
I2
ss(g2985
g2988
g539
tp7558
(dp7559
g540
I2
ss(S'to'
p7560
g3815
g3816
tp7561
(dp7562
g3817
I2
ss(S'i'
g7160
g2333
tp7563
(dp7564
g2334
I2
ss(g6483
g4606
g1467
tp7565
(dp7566
g1468
I2
ss(S'a'
g4100
g6722
tp7567
(dp7568
S'to'
p7569
I2
ss(g6965
g6966
g5619
tp7570
(dp7571
g5620
I2
ss(g2653
g2233
g2234
tp7572
(dp7573
g2235
I2
ss(S'bad'
p7574
S'he'
p7575
S'confessed'
p7576
tp7577
(dp7578
g4774
I2
ss(g919
g920
g923
tp7579
(dp7580
g1115
I2
ss(g109
g110
g113
tp7581
(dp7582
g2848
I2
ss(g1859
g1860
g1863
tp7583
(dp7584
g4784
I2
ss(g326
g327
g330
tp7585
(dp7586
g3850
I2
ss(g3584
g3587
g5304
tp7587
(dp7588
g5305
I2
ss(g6405
g4899
g1051
tp7589
(dp7590
g1052
I2
ss(g6172
g6173
g6176
tp7591
(dp7592
S'about'
p7593
I2
ss(g2774
g2775
g2778
tp7594
(dp7595
S'had'
p7596
I2
ss(g2858
g1998
g1999
tp7597
(dp7598
g2000
I2
ss(g1014
g6300
S'my'
p7599
tp7600
(dp7601
g5160
I2
ss(g1999
g2000
g1040
tp7602
(dp7603
S'i'
I2
ss(g358
g3757
g1089
tp7604
(dp7605
g1090
I2
ss(S'i'
g1653
g3491
tp7606
(dp7607
g4355
I2
ss(g7266
g4294
g4295
tp7608
(dp7609
g4296
I2
ss(S'i'
g4654
g2492
tp7610
(dp7611
g2493
I2
ss(g353
g354
g357
tp7612
(dp7613
g1770
I2
ss(g4972
g4975
g7125
tp7614
(dp7615
g4256
I2
ss(g4360
g5492
g5601
tp7616
(dp7617
g5646
I2
ss(g6511
g6514
g461
tp7618
(dp7619
g462
I2
ss(g2533
g3697
g4342
tp7620
(dp7621
g4343
I2
ss(g4409
S'i'
g1244
tp7622
(dp7623
g1245
I2
ss(S'i'
g1943
g1946
tp7624
(dp7625
g974
I2
ss(g6291
g4724
g4725
tp7626
(dp7627
g2169
I2
sg1449
I2
ss(S'i'
g5079
g5051
tp7628
(dp7629
g5052
I2
ss(g968
S'annoyed'
p7630
g3760
tp7631
(dp7632
g3761
I2
ss(S'the'
p7633
S'actualized'
p7634
S'man'
p7635
tp7636
(dp7637
g4952
I2
ss(S'told'
p7638
g5311
g5312
tp7639
(dp7640
g5313
I2
ss(g7537
g4032
g4033
tp7641
(dp7642
g2534
I2
ss(S'want'
p7643
g7387
g7388
tp7644
(dp7645
g7389
I2
ss(g336
g2457
S'i'
tp7646
(dp7647
g5212
I2
ss(g728
g731
g5022
tp7648
(dp7649
g5023
I2
ss(S'a'
g5186
g722
tp7650
(dp7651
g723
I2
ss(g2316
g2317
g2320
tp7652
(dp7653
S'dont'
p7654
I2
ss(g5601
g5646
g4317
tp7655
(dp7656
g4318
I2
ss(g3238
g6570
g5434
tp7657
(dp7658
g5435
I2
ss(g1520
g1521
g1524
tp7659
(dp7660
g5933
I2
ss(S'a'
g6437
g6438
tp7661
(dp7662
g6439
I2
ss(g7103
g6413
g2625
tp7663
(dp7664
g3604
I2
ss(g2224
S'a'
S'journal'
p7665
tp7666
(dp7667
S'that'
p7668
I2
ss(g455
g5404
g4520
tp7669
(dp7670
g3151
I2
ss(g5097
g3141
g5100
tp7671
(dp7672
g6086
I2
ss(g936
g939
g4758
tp7673
(dp7674
g4759
I2
ss(g1243
g1786
S'i'
tp7675
(dp7676
g1787
I2
ss(g6448
g4374
g85
tp7677
(dp7678
g86
I2
ss(S'to'
p7679
S'happen'
p7680
g3741
tp7681
(dp7682
g3742
I2
ss(g178
g222
S'a'
tp7683
(dp7684
g7225
I2
ss(g2079
g2080
g2083
tp7685
(dp7686
g4732
I2
ss(g1331
g1332
g1335
tp7687
(dp7688
g6583
I2
ss(S'he'
p7689
S'added'
p7690
S'what'
p7691
tp7692
(dp7693
S'his'
p7694
I2
ss(S'wanted'
p7695
S'to'
p7696
g7083
tp7697
(dp7698
g2065
I2
ss(g7406
g5511
g5512
tp7699
(dp7700
g5513
I2
ss(g3135
g3138
S'remember'
p7701
tp7702
(dp7703
g1034
I2
ss(g193
g196
g2227
tp7704
(dp7705
g2228
I2
ss(g3936
g1275
g1276
tp7706
(dp7707
g1277
I2
ss(S'i'
g814
g900
tp7708
(dp7709
g901
I2
sg7194
I2
ss(g445
g3230
g3231
tp7710
(dp7711
g3232
I2
ss(g5130
g5133
g5220
tp7712
(dp7713
g3703
I2
ss(g6035
g6038
S'i'
tp7714
(dp7715
g7695
I2
ss(S'i'
g929
g930
tp7716
(dp7717
g931
I2
ss(g1756
g5735
g5736
tp7718
(dp7719
g5737
I2
ss(g990
g993
g1122
tp7720
(dp7721
g1123
I2
ss(g1446
g288
g289
tp7722
(dp7723
g290
I2
ss(g4233
g6575
S'angered'
p7724
tp7725
(dp7726
S'by'
p7727
I2
ss(g3129
g3132
g4440
tp7728
(dp7729
g4441
I2
ss(g1611
g1612
g1615
tp7730
(dp7731
g7013
I2
ss(g5867
S'i'
g3549
tp7732
(dp7733
g3550
I2
ss(g3316
g5191
S'our'
p7734
tp7735
(dp7736
S'rent'
p7737
I2
ss(g2602
g6179
g6180
tp7738
(dp7739
S'a'
I2
ss(S'i'
g827
g830
tp7740
(dp7741
g3337
I2
ss(g4903
g4906
g2773
tp7742
(dp7743
g2774
I2
ss(g1317
g1320
g6960
tp7744
(dp7745
g6961
I2
ss(g7727
g3904
g3905
tp7746
(dp7747
g3906
I2
ss(g2343
S'a'
g7080
tp7748
(dp7749
g7108
I2
ss(g2522
g1809
g1810
tp7750
(dp7751
g1811
I2
ss(S'a'
g5165
g5166
tp7752
(dp7753
g235
I2
ss(g3943
S'some'
p7754
g2357
tp7755
(dp7756
g2358
I2
ss(g3153
g3156
g5397
tp7757
(dp7758
S'which'
p7759
I2
ss(g833
S'a'
g120
tp7760
(dp7761
g121
I2
ss(g1399
g1402
S'him'
p7762
tp7763
(dp7764
S'what'
p7765
I2
ss(g1100
S'i'
S'didnt'
p7766
tp7767
(dp7768
g7555
I2
ss(g6831
g6834
S'though'
p7769
tp7770
(dp7771
g1076
I2
ss(g4902
g4903
g4906
tp7772
(dp7773
g2773
I2
ss(g671
g672
g675
tp7774
(dp7775
g3210
I2
ss(S'i'
g3020
g3021
tp7776
(dp7777
g3022
I2
ss(g3147
g3150
g6488
tp7778
(dp7779
g6489
I2
ss(g705
g706
g709
tp7780
(dp7781
g2757
I2
ss(g5463
g5466
S'ever'
p7782
tp7783
(dp7784
S'attracted'
p7785
I2
ss(g4552
g2895
g906
tp7786
(dp7787
g2923
I2
sg907
I2
ss(g2757
g2758
g2761
tp7788
(dp7789
g5317
I2
ss(S'through'
p7790
g5467
g5468
tp7791
(dp7792
g5469
I2
ss(g1561
g3353
S'a'
tp7793
(dp7794
g1350
I2
ss(g1299
g1302
g2880
tp7795
(dp7796
S'i'
I2
ss(g6257
g4749
g4750
tp7797
(dp7798
g4751
I2
ss(S'of'
p7799
g5291
g2269
tp7800
(dp7801
g2270
I2
ss(g4830
g4833
g2448
tp7802
(dp7803
g2351
I2
ss(g5368
g6279
g7544
tp7804
(dp7805
g2044
I2
ss(g2170
g2173
g3922
tp7806
(dp7807
g5142
I2
ss(g4242
g4243
g4246
tp7808
(dp7809
S'want'
p7810
I2
ss(g6742
g6745
g6356
tp7811
(dp7812
g5487
I2
ss(g1946
g974
g975
tp7813
(dp7814
S'i'
I2
ss(g5787
g132
g133
tp7815
(dp7816
g134
I2
ss(S'i'
g5662
g1309
tp7817
(dp7818
g1310
I2
ss(g4495
g4496
g4499
tp7819
(dp7820
S'his'
p7821
I2
ss(g517
g520
g6790
tp7822
(dp7823
g6791
I2
ss(g3210
g3211
g3214
tp7824
(dp7825
g1633
I2
ss(g4434
g1594
g1595
tp7826
(dp7827
g1596
I2
ss(g5586
S'i'
g7287
tp7828
(dp7829
g1098
I2
ss(g1857
g5398
g5399
tp7830
(dp7831
g1225
I2
ss(g1171
g1172
g1175
tp7832
(dp7833
g2206
I2
ss(g3757
g1089
g1090
tp7834
(dp7835
g1091
I2
ss(g5910
g3837
S'i'
tp7836
(dp7837
g3838
I2
ss(g1169
S'table'
g1838
tp7838
(dp7839
S'didnt'
p7840
I2
ss(g361
g364
g7300
tp7841
(dp7842
g7128
I2
ss(g7096
g7097
g5705
tp7843
(dp7844
g5706
I2
ss(g1226
g1227
g1230
tp7845
(dp7846
g3476
I2
ss(g7055
g7058
S'a'
tp7847
(dp7848
g6234
I2
ss(g1732
g1733
g912
tp7849
(dp7850
g913
I2
ss(g3287
g3288
g1622
tp7851
(dp7852
S'i'
I2
ss(g689
S'i'
g3080
tp7853
(dp7854
S'have'
p7855
I2
ss(g3982
g3983
g3986
tp7856
(dp7857
g5830
I2
ss(g6664
g6665
S'i'
tp7858
(dp7859
g3020
I2
ss(g2865
g2977
g2978
tp7860
(dp7861
g2979
I2
ss(g7596
S'bolger'
p7862
S'told'
p7863
tp7864
(dp7865
S'me'
p7866
I2
ss(g2682
g2683
S'i'
tp7867
(dp7868
g3422
I2
ss(g3251
g3252
g3255
tp7869
(dp7870
g5146
I2
ss(g648
g651
g1769
tp7871
(dp7872
S'i'
I2
ss(g6665
S'i'
g3020
tp7873
(dp7874
g3021
I2
ss(g196
g2227
g2228
tp7875
(dp7876
g2229
I2
ss(g5337
g5338
g5341
tp7877
(dp7878
g7316
I2
ss(S'a'
g2822
g2825
tp7879
(dp7880
g7790
I2
ss(g1206
g1207
g1210
tp7881
(dp7882
g4673
I2
ss(g7026
g7031
g5950
tp7883
(dp7884
g5951
I2
ss(g3108
g3111
S'did'
p7885
tp7886
(dp7887
S'not'
p7888
I2
ss(g3049
g826
S'i'
tp7889
(dp7890
g827
I2
ss(g3380
g3666
g3669
tp7891
(dp7892
g5180
I2
ss(g1527
g1530
g1850
tp7893
(dp7894
g1851
I2
ss(g657
g3293
g3296
tp7895
(dp7896
g2704
I2
ss(g3104
g3105
g393
tp7897
(dp7898
g394
I2
ss(g3564
g5920
g5923
tp7899
(dp7900
g664
I2
ss(g4593
g4594
g1438
tp7901
(dp7902
g1439
I2
ss(S'his'
p7903
S'biography'
p7904
g4182
tp7905
(dp7906
g3416
I2
ss(S'him'
g2168
g2169
tp7907
(dp7908
g2170
I2
ss(g930
g931
S'a'
tp7909
(dp7910
g2371
I2
sg4933
I2
ss(g6995
g7540
g7543
tp7911
(dp7912
S'to'
p7913
I2
ss(g2836
g2826
g2827
tp7914
(dp7915
g2828
I2
ss(S'conjecture'
p7916
g7513
g7514
tp7917
(dp7918
g2911
I2
ss(g21
g24
g3127
tp7919
(dp7920
g3128
I2
ss(g526
g1297
g1298
tp7921
(dp7922
g1299
I2
ss(g4042
g4043
g3103
tp7923
(dp7924
g3104
I2
ss(g4906
g2773
g2774
tp7925
(dp7926
g2775
I2
ss(g4816
g4817
g4820
tp7927
(dp7928
g3688
I2
ss(g2639
g6912
g7144
tp7929
(dp7930
S'of'
p7931
I2
ss(g1350
g1351
g1354
tp7932
(dp7933
g5177
I2
ss(g3333
g3336
S'or'
p7934
tp7935
(dp7936
S'threats'
p7937
I2
ss(g1936
g6226
S'i'
tp7938
(dp7939
g929
I2
ss(g2569
g6454
g6455
tp7940
(dp7941
g6456
I2
ss(g7073
g7397
g6193
tp7942
(dp7943
g6194
I2
ss(g1129
g1130
g1133
tp7944
(dp7945
g6316
I2
ss(g4679
g4682
g6092
tp7946
(dp7947
S'i'
I2
ss(g2512
S'apply'
p7948
g3952
tp7949
(dp7950
g3953
I2
ss(g4223
S'believe'
p7951
S'her'
p7952
tp7953
(dp7954
g2582
I2
ss(g745
g748
g5679
tp7955
(dp7956
g5898
I2
ss(g5444
g5445
g3492
tp7957
(dp7958
g3493
I2
ss(g999
S'i'
g4211
tp7959
(dp7960
g749
I2
ss(g5134
g5137
g6475
tp7961
(dp7962
g6986
I2
ss(g3836
S'i'
g6538
tp7963
(dp7964
g7035
I2
ss(g6311
g6647
g7336
tp7965
(dp7966
g1710
I2
ss(g6187
g6188
g5230
tp7967
(dp7968
g3756
I2
ss(g1392
g4970
g4971
tp7969
(dp7970
g4972
I2
ss(g6510
g6511
g6514
tp7971
(dp7972
g461
I2
ss(g7145
S'i'
g2072
tp7973
(dp7974
g2073
I2
ss(g3069
g658
g659
tp7975
(dp7976
g660
I2
ss(g6476
g6479
S'he'
p7977
tp7978
(dp7979
g3277
I2
ss(g1648
g5004
g979
tp7980
(dp7981
g980
I2
ss(g700
g703
g1924
tp7982
(dp7983
g5713
I2
ss(g1599
g3163
g3164
tp7984
(dp7985
g3165
I2
ss(S'he'
p7986
S'saw'
p7987
S'my'
p7988
tp7989
(dp7990
S'aversion'
p7991
I2
ss(g6702
g5913
g3809
tp7992
(dp7993
g3810
I2
ss(g4243
g4246
g7810
tp7994
(dp7995
S'to'
p7996
I2
ss(g4377
g4380
g4879
tp7997
(dp7998
g6934
I2
ss(g2259
g2260
g2263
tp7999
(dp8000
g1545
I2
ss(g556
g6147
g1803
tp8001
(dp8002
g1804
I2
ss(g7187
g6442
g6443
tp8003
(dp8004
g4866
I2
ss(g1372
g1375
S'of'
p8005
tp8006
(dp8007
S'months'
p8008
I2
ss(g5421
g1483
g1484
tp8009
(dp8010
g1485
I2
ss(g2867
S'i'
g162
tp8011
(dp8012
g163
I2
ss(g6353
g5454
g5455
tp8013
(dp8014
g5200
I2
ss(g86
g87
g90
tp8015
(dp8016
g2681
I2
ss(g3666
g3669
g5180
tp8017
(dp8018
g5181
I2
ss(g462
g463
g466
tp8019
(dp8020
S'i'
I2
sg5669
I2
ss(g1741
S'i'
g1744
tp8021
(dp8022
g3247
I2
ss(g4111
S'and'
p8023
g2627
tp8024
(dp8025
g2628
I2
ss(g172
S'look'
p8026
S'me'
p8027
tp8028
(dp8029
S'in'
p8030
I2
ss(g1659
g1660
g1663
tp8031
(dp8032
g3303
I2
ss(g1462
g1463
g1466
tp8033
(dp8034
g4691
I2
ss(g3141
g5100
g6086
tp8035
(dp8036
g5413
I2
ss(g6677
g6680
g6482
tp8037
(dp8038
g6483
I2
ss(g3567
g6204
g6223
tp8039
(dp8040
S''
I2
sS'his'
p8041
I2
ss(g1563
g1564
g1567
tp8042
(dp8043
g6949
I2
ss(g1804
g1805
g1808
tp8044
(dp8045
g6448
I2
ss(g4808
S'a'
g405
tp8046
(dp8047
g406
I2
ss(g5492
g5601
g5646
tp8048
(dp8049
g4317
I2
ss(S'sales'
g2938
g2939
tp8050
(dp8051
g2940
I2
ss(g6176
g7593
g3803
tp8052
(dp8053
g3804
I2
ss(S'i'
g6303
S'do'
p8054
tp8055
(dp8056
S'you'
p8057
I2
ss(S'beyond'
p8058
g6689
g4437
tp8059
(dp8060
g2
I2
ss(g3057
g3058
g3061
tp8061
(dp8062
g3037
I2
ss(S'i'
g1843
g1959
tp8063
(dp8064
S'a'
I2
ss(g5627
g5630
S'the'
p8065
tp8066
(dp8067
S'one'
p8068
I2
ss(g6983
S'it'
p8069
g126
tp8070
(dp8071
g127
I2
ss(g2216
g1649
g1650
tp8072
(dp8073
S'i'
I2
ss(g3766
g3769
S'of'
p8074
tp8075
(dp8076
S'silence'
p8077
I2
ss(g6479
g7977
g3277
tp8078
(dp8079
g7988
I2
sg3278
I2
ss(g4876
g6469
g6470
tp8080
(dp8081
g2963
I2
ss(g5067
g5070
S'i'
tp8082
(dp8083
g1514
I2
ss(g7410
g7411
g318
tp8084
(dp8085
g319
I2
ss(g3066
g5463
g5466
tp8086
(dp8087
g7782
I2
ss(g1478
g1479
g1482
tp8088
(dp8089
g3096
I2
ss(g237
g240
g5087
tp8090
(dp8091
g6955
I2
ss(g3841
g5475
g5478
tp8092
(dp8093
S'him'
p8094
I2
ss(g199
g202
g803
tp8095
(dp8096
g3503
I2
sS'something'
p8097
I2
ss(g6023
g6024
g767
tp8098
(dp8099
g768
I2
ss(g1850
g1851
g1854
tp8100
(dp8101
g6187
I2
ss(g1257
g1260
g5519
tp8102
(dp8103
g7367
I2
ss(g4136
S'i'
g3853
tp8104
(dp8105
g561
I2
ss(g1335
g6583
g5078
tp8106
(dp8107
S'i'
I2
ss(g4857
g5270
g5273
tp8108
(dp8109
g2397
I2
ss(g3789
g3790
g3793
tp8110
(dp8111
g4709
I2
ss(g693
g694
g697
tp8112
(dp8113
g6115
I2
ss(g6101
g3753
g2732
tp8114
(dp8115
g831
I2
ss(S'feel'
p8116
S'him'
p8117
g282
tp8118
(dp8119
g283
I2
ss(g6859
g6860
g6863
tp8120
(dp8121
g1382
I2
ss(g6024
g767
g768
tp8122
(dp8123
g769
I2
ss(g2270
g2271
g2274
tp8124
(dp8125
g611
I2
ss(g4692
g4695
g5037
tp8126
(dp8127
S'nondrink'
p8128
I2
ss(g3548
g4585
g2555
tp8129
(dp8130
g19
I2
ss(g4589
g1979
g1980
tp8131
(dp8132
g1981
I2
ss(g3016
g3019
g4705
tp8133
(dp8134
g294
I2
ss(g5523
S'repetition'
p8135
S'of'
p8136
tp8137
(dp8138
g4599
I2
ss(g3549
g3550
g3553
tp8139
(dp8140
g5772
I2
ss(g5923
g664
g665
tp8141
(dp8142
g666
I2
ss(g7531
S'i'
g7192
tp8143
(dp8144
g7193
I2
ss(S'widely'
p8145
g1231
g1232
tp8146
(dp8147
g1233
I2
ss(g4803
g5290
g7356
tp8148
(dp8149
S'side'
p8150
I2
ss(g4380
g4879
g6934
tp8151
(dp8152
g5805
I2
ss(g941
g942
g945
tp8153
(dp8154
g676
I2
ss(g1645
g1648
g5004
tp8155
(dp8156
g979
I2
ss(g2013
g1236
g2815
tp8157
(dp8158
S'i'
I2
ss(g2918
g2919
g2922
tp8159
(dp8160
g6329
I2
ss(g4578
g7067
g1095
tp8161
(dp8162
g173
I2
ss(g593
g6569
g1444
tp8163
(dp8164
g1445
I2
ss(g4933
g4936
g6508
tp8165
(dp8166
g6839
I2
ss(g2469
g2470
g2473
tp8167
(dp8168
g2375
I2
ss(g3345
S'that'
p8169
g4198
tp8170
(dp8171
g6005
I2
ss(g727
g2059
g6617
tp8172
(dp8173
g6729
I2
ss(g7977
g3277
g3278
tp8174
(dp8175
g3279
I2
ss(g6638
S'a'
g265
tp8176
(dp8177
g266
I2
ss(g5928
g5929
g5932
tp8178
(dp8179
S'want'
p8180
I2
ss(g4370
g4373
g6271
tp8181
(dp8182
g6340
I2
ss(g4309
g4312
g716
tp8183
(dp8184
g717
I2
ss(g5992
g2219
g2220
tp8185
(dp8186
g2221
I2
ss(g4840
S'i'
g4042
tp8187
(dp8188
g4043
I2
ss(S'i'
S'told'
p8189
g3915
tp8190
(dp8191
g3916
I2
ss(g1156
g1879
g1882
tp8192
(dp8193
g2078
I2
ss(g3019
g4705
g294
tp8194
(dp8195
g295
I2
ss(g7996
S'read'
p8196
S'a'
tp8197
(dp8198
g6290
I2
ss(g4457
g4460
g6066
tp8199
(dp8200
g6067
I2
ss(g4312
g716
g717
tp8201
(dp8202
g718
I2
ss(g1349
S'time'
p8203
g7111
tp8204
(dp8205
g7112
I2
ss(g3454
g4807
g4808
tp8206
(dp8207
S'a'
I2
ss(g2206
g2207
g2210
tp8208
(dp8209
g4834
I2
ss(g6049
g6052
g6368
tp8210
(dp8211
g6325
I2
ss(g2067
g698
g699
tp8212
(dp8213
g700
I2
ss(g1346
g1349
g8203
tp8214
(dp8215
g7111
I2
ss(S'a'
g5927
g846
tp8216
(dp8217
g847
I2
ss(g748
g5679
g5898
tp8218
(dp8219
g3609
I2
ss(g1515
g1518
g2933
tp8220
(dp8221
g2934
I2
ss(g6899
g7131
g2162
tp8222
(dp8223
g2163
I2
ss(g4175
g4913
g4916
tp8224
(dp8225
g1128
I2
ss(g3174
g3175
g3178
tp8226
(dp8227
g3516
I2
ss(S'them'
p8228
g6928
g6929
tp8229
(dp8230
g2304
I2
ss(g7762
g7765
g7359
tp8231
(dp8232
S'on'
p8233
I2
ss(g1995
g1205
g1206
tp8234
(dp8235
g1207
I2
ss(g1308
g1491
g5215
tp8236
(dp8237
g4330
I2
ss(g6368
g6325
g6326
tp8238
(dp8239
S'i'
I2
ss(g1375
g8005
g8008
tp8240
(dp8241
g4101
I2
ss(g5295
g5298
g1080
tp8242
(dp8243
g1081
I2
ss(S'more'
p8244
g3747
g3748
tp8245
(dp8246
g3749
I2
ss(g1020
g6545
g3467
tp8247
(dp8248
g3468
I2
ss(g158
g161
g5028
tp8249
(dp8250
g5029
I2
ss(g8023
g2627
g2628
tp8251
(dp8252
g2629
I2
ss(g6007
g6010
g6375
tp8253
(dp8254
g6376
I2
ss(g4137
g4138
g4141
tp8255
(dp8256
g4907
I2
ss(g643
g646
g4289
tp8257
(dp8258
g4290
I2
ss(g1439
g1440
g1443
tp8259
(dp8260
g5587
I2
ss(g1114
g1216
S'i'
tp8261
(dp8262
g3923
I2
ss(g925
S'a'
g928
tp8263
(dp8264
g1551
I2
ss(g5839
g5840
g5843
tp8265
(dp8266
g4637
I2
ss(g8136
g4599
g4600
tp8267
(dp8268
g4601
I2
ss(g5037
g8128
S'hand'
p8269
tp8270
(dp8271
S'i'
I2
ss(g5180
g5181
g5184
tp8272
(dp8273
g4164
I2
ss(S'i'
g79
g80
tp8274
(dp8275
g81
I2
ss(g381
g1059
g4779
tp8276
(dp8277
g963
I2
ss(g5850
g4365
g1779
tp8278
(dp8279
g1780
I2
ss(S'i'
g3510
g3511
tp8280
(dp8281
g3512
I2
ss(g2252
g2255
g3312
tp8282
(dp8283
g3313
I2
ss(g260
g261
g264
tp8284
(dp8285
g572
I2
ss(S'i'
S'then'
p8286
g1004
tp8287
(dp8288
g1005
I2
ss(g733
g734
S'i'
tp8289
(dp8290
g4654
I2
ss(g538
g6505
S'and'
p8291
tp8292
(dp8293
g5579
I2
ss(g1110
g1111
g1114
tp8294
(dp8295
g1216
I2
ss(g5030
g3939
g3940
tp8296
(dp8297
S'i'
I2
ss(g3401
g5442
g1321
tp8298
(dp8299
g1322
I2
ss(g3795
g3798
g4690
tp8300
(dp8301
g5792
I2
ss(g2140
g312
g313
tp8302
(dp8303
g314
I2
ss(S'sit'
p8304
g179
g180
tp8305
(dp8306
g181
I2
ss(g3603
g4065
g4068
tp8307
(dp8308
g5967
I2
ss(g5873
g2724
g629
tp8309
(dp8310
g630
I2
ss(g3629
g3630
g3633
tp8311
(dp8312
g6556
I2
ss(g1793
g1796
g2603
tp8313
(dp8314
g2604
I2
ss(g2265
g2268
g2386
tp8315
(dp8316
g2387
I2
ss(g5313
g5316
g5342
tp8317
(dp8318
g778
I2
ss(g5612
g2363
g2364
tp8319
(dp8320
g2365
I2
ss(g8196
S'a'
g6290
tp8321
(dp8322
g6291
I2
ss(g2390
g1725
g1726
tp8323
(dp8324
g1727
I2
ss(S'a'
g7364
S'where'
p8325
tp8326
(dp8327
g6099
I2
ss(g7487
S'to'
p8328
g8116
tp8329
(dp8330
g8117
I2
ss(g7759
S'tended'
p8331
g7679
tp8332
(dp8333
g7680
I2
ss(S'should'
p8334
g6137
g6138
tp8335
(dp8336
g3074
I2
ss(g3184
g4410
g4411
tp8337
(dp8338
g4412
I2
ss(g5004
g979
g980
tp8339
(dp8340
g981
I2
ss(g3996
g6648
g5090
tp8341
(dp8342
g5091
I2
ss(g6253
g6254
g6257
tp8343
(dp8344
g4749
I2
ss(g6100
g6101
g3753
tp8345
(dp8346
g2732
I2
ss(g8233
S'his'
p8347
g1238
tp8348
(dp8349
g1239
I2
ss(g3124
g5781
S'a'
tp8350
(dp8351
g5421
I2
ss(g2649
S'a'
g3412
tp8352
(dp8353
g5017
I2
ss(g3634
g3635
g864
tp8354
(dp8355
S'i'
I2
ss(g7367
g4049
g4050
tp8356
(dp8357
g545
I2
ss(g1829
g1832
g5229
tp8358
(dp8359
g6430
I2
ss(g2697
g2700
g223
tp8360
(dp8361
g224
I2
ss(g3536
g3537
g108
tp8362
(dp8363
g109
I2
ss(g1245
g1246
g1249
tp8364
(dp8365
S'i'
I2
ss(g642
g643
g646
tp8366
(dp8367
g4289
I2
ss(g2754
g2299
g2300
tp8368
(dp8369
g2301
I2
ss(g5087
g6955
g2296
tp8370
(dp8371
g2203
I2
ss(g3900
g5761
g5764
tp8372
(dp8373
S'that'
p8374
I2
ss(g7313
g6921
g3413
tp8375
(dp8376
g1994
I2
ss(g1838
g7840
g6096
tp8377
(dp8378
g4190
I2
ss(g7068
g1883
S'a'
tp8379
(dp8380
g1884
I2
ss(g6950
g6128
S'a'
tp8381
(dp8382
g852
I2
ss(g3215
g2468
g2469
tp8383
(dp8384
g2470
I2
ss(g7144
g7931
g7117
tp8385
(dp8386
g7118
I2
ss(g4341
g4627
g4628
tp8387
(dp8388
g4629
I2
ss(g5170
g5171
g5174
tp8389
(dp8390
g6262
I2
ss(g2277
g6732
g6735
tp8391
(dp8392
g7986
I2
ss(g5418
g7341
g479
tp8393
(dp8394
g480
I2
ss(g6863
g1382
g68
tp8395
(dp8396
g69
I2
ss(g7318
g3497
g3498
tp8397
(dp8398
g6138
I2
sg3499
I2
ss(g1871
S'i'
S'wanted'
p8399
tp8400
(dp8401
g1970
I2
ss(g2212
g2215
g7312
tp8402
(dp8403
g7313
I2
sg185
I2
ss(g6557
g4241
g4242
tp8404
(dp8405
g4243
I2
ss(g4566
g4567
g4570
tp8406
(dp8407
g5129
I2
ss(g2085
g2086
g2089
tp8408
(dp8409
g2906
I2
ss(g1072
g1075
g3783
tp8410
(dp8411
g3784
I2
ss(g492
g493
g496
tp8412
(dp8413
g1261
I2
ss(g2982
g3031
g5418
tp8414
(dp8415
g7341
I2
ss(g3581
g4728
g4731
tp8416
(dp8417
g503
I2
ss(g4564
g4706
g1562
tp8418
(dp8419
g1563
I2
ss(S'to'
p8420
g4036
g4037
tp8421
(dp8422
g4038
I2
ss(g1564
g1567
g6949
tp8423
(dp8424
g6950
I2
ss(g889
S'i'
g892
tp8425
(dp8426
g7406
I2
ss(g4010
g4013
g4479
tp8427
(dp8428
g1947
I2
ss(g4507
g4006
g4007
tp8429
(dp8430
g3007
I2
ss(g3716
g3719
g1070
tp8431
(dp8432
g1071
I2
ss(g2550
g2101
g2102
tp8433
(dp8434
g2103
I2
ss(g3045
g3046
g3049
tp8435
(dp8436
g826
I2
ss(S'reserve'
p8437
S'chute'
p8438
g6709
tp8439
(dp8440
g6710
I2
ss(g1866
g4746
g7500
tp8441
(dp8442
g4657
I2
ss(g6034
g6035
g6038
tp8443
(dp8444
S'i'
I2
ss(g6860
g6863
g1382
tp8445
(dp8446
g68
I2
ss(g163
g166
g7409
tp8447
(dp8448
g7410
I2
ss(S'had'
p8449
S'the'
p8450
g6016
tp8451
(dp8452
g6017
I2
ss(g2358
g2359
g2362
tp8453
(dp8454
g1658
I2
ss(g1062
g1065
g4582
tp8455
(dp8456
g6618
I2
ss(S'a'
g399
g400
tp8457
(dp8458
g401
I2
ss(g7987
g7988
g7991
tp8459
(dp8460
S'to'
p8461
I2
ss(g1394
g1395
S'i'
tp8462
(dp8463
S'didnt'
p8464
I2
ss(g3541
g3542
g3179
tp8465
(dp8466
g3180
I2
ss(g3610
g3611
g3614
tp8467
(dp8468
S'like'
p8469
I2
ss(g4669
g4672
g3957
tp8470
(dp8471
g3958
I2
ss(g4246
g7810
g7996
tp8472
(dp8473
g8196
I2
ss(g3404
g1964
g1965
tp8474
(dp8475
g1966
I2
sg7318
I2
ss(g3352
g3521
g3524
tp8476
(dp8477
g5776
I2
ss(g5927
g846
g847
tp8478
(dp8479
g848
I2
ss(g184
g5674
g3981
tp8480
(dp8481
g3982
I2
ss(g222
S'a'
g7225
tp8482
(dp8483
g3576
I2
ss(g1509
g1510
g1513
tp8484
(dp8485
S'you'
p8486
I2
ss(g8464
g4494
g4495
tp8487
(dp8488
g4496
I2
ss(g6343
g6346
g5379
tp8489
(dp8490
g3764
I2
ss(g93
g96
g1211
tp8491
(dp8492
g1212
I2
ss(g3075
g2050
g2051
tp8493
(dp8494
g2052
I2
ss(g1689
g229
g230
tp8495
(dp8496
g231
I2
ss(g5212
g1616
g1617
tp8497
(dp8498
g1618
I2
ss(g624
g625
g628
tp8499
(dp8500
g3040
I2
ss(g314
g317
g2664
tp8501
(dp8502
g4336
I2
ss(g544
g990
g993
tp8503
(dp8504
g1122
I2
ss(g5988
g5989
g5992
tp8505
(dp8506
g2219
I2
ss(g2115
g7034
S'but'
p8507
tp8508
(dp8509
S'that'
p8510
I2
ss(S'force'
S'he'
g5096
tp8511
(dp8512
g5097
I2
ss(g4705
g294
g295
tp8513
(dp8514
g296
I2
ss(g917
g7638
g5311
tp8515
(dp8516
g5312
I2
ss(g216
g219
S'virility'
p8517
tp8518
(dp8519
g7523
I2
ss(g3940
S'i'
g3943
tp8520
(dp8521
g7754
I2
ss(g2854
g2855
g2858
tp8522
(dp8523
g1998
I2
ss(g1494
g370
g371
tp8524
(dp8525
g372
I2
ss(g4351
g4352
g918
tp8526
(dp8527
g919
I2
ss(g2965
g2968
g102
tp8528
(dp8529
g103
I2
ss(S'a'
g3169
g3172
tp8530
(dp8531
g5924
I2
ss(g308
g311
g5604
tp8532
(dp8533
g5605
I2
ss(g4448
g3525
S''
tp8534
(dp8535
g382
I2
ss(g3694
g6215
g6216
tp8536
(dp8537
g6217
I2
ss(g2503
g46
g47
tp8538
(dp8539
g48
I2
ss(g6376
g6379
g411
tp8540
(dp8541
g412
I2
ss(g4007
g3007
g3008
tp8542
(dp8543
g3009
I2
ss(S'eating'
p8544
S'street'
p8545
S'food'
p8546
tp8547
(dp8548
g7348
I2
ss(g6455
g6456
g6459
tp8549
(dp8550
g3372
I2
ss(g6654
g6598
g6599
tp8551
(dp8552
g6600
I2
ss(g5115
g5116
g5119
tp8553
(dp8554
g1761
I2
ss(g7247
g804
g805
tp8555
(dp8556
g806
I2
ss(g8097
g8244
g3747
tp8557
(dp8558
g3748
I2
ss(g3844
g3847
g1993
tp8559
(dp8560
g6723
I2
ss(g6300
g7599
g5160
tp8561
(dp8562
g4053
I2
ss(g7937
g5011
g5012
tp8563
(dp8564
g5013
I2
ss(g2221
g2224
S'a'
tp8565
(dp8566
g7665
I2
ss(g5764
g8374
g5625
tp8567
(dp8568
g5626
I2
ss(g8189
g3915
g3916
tp8569
(dp8570
g3917
I2
ss(g1902
g3872
g4902
tp8571
(dp8572
g4903
I2
ss(g3033
g3036
g4574
tp8573
(dp8574
g4575
I2
ss(g2903
g950
g951
tp8575
(dp8576
g952
I2
ss(g5276
g5279
g7434
tp8577
(dp8578
g5818
I2
ss(g2994
g4018
g3297
tp8579
(dp8580
g3298
I2
ss(g3475
g3600
g3603
tp8581
(dp8582
g4065
I2
ss(g1746
g1747
g1750
tp8583
(dp8584
g7560
I2
ss(g6052
g6368
g6325
tp8585
(dp8586
g6326
I2
ss(g2644
g1869
g1870
tp8587
(dp8588
g1871
I2
ss(g3247
g3250
g150
tp8589
(dp8590
g151
I2
ss(g5606
g5609
g2866
tp8591
(dp8592
g2867
I2
ss(g2414
g3656
g3657
tp8593
(dp8594
g3658
I2
ss(g219
g8517
g7523
tp8595
(dp8596
S'a'
I2
ss(g4820
g3688
g2153
tp8597
(dp8598
g1574
I2
ss(g1984
g3095
g4029
tp8599
(dp8600
g1045
I2
ss(g3197
g3198
g3201
tp8601
(dp8602
g7016
I2
ss(g2074
g2077
g2143
tp8603
(dp8604
g2144
I2
ss(S'you'
p8605
g8304
g179
tp8606
(dp8607
g180
I2
ss(g4017
g7536
g7537
tp8608
(dp8609
g4032
I2
ss(g24
g3127
g3128
tp8610
(dp8611
g3129
I2
ss(g827
g830
g3337
tp8612
(dp8613
g3338
I2
ss(g8068
g5981
g5982
tp8614
(dp8615
g5983
I2
ss(g5590
g6610
S'i'
tp8616
(dp8617
g6148
I2
ss(g3627
S'after'
p8618
S'a'
tp8619
(dp8620
g6061
I2
ss(g2968
g102
g103
tp8621
(dp8622
g104
I2
ss(g3769
g8074
g8077
tp8623
(dp8624
g8605
I2
ss(g3362
g3691
g3694
tp8625
(dp8626
g6215
I2
ss(g5710
g3594
g3595
tp8627
(dp8628
g3596
I2
ss(g4728
g4731
g503
tp8629
(dp8630
g504
I2
ss(S'i'
g978
g7445
tp8631
(dp8632
g2692
I2
ss(g3342
S'a'
g3345
tp8633
(dp8634
g8169
I2
ss(g4939
g3463
g3464
tp8635
(dp8636
g2008
I2
ss(g2374
S'i'
g7160
tp8637
(dp8638
g2333
I2
ss(g6593
g4642
g4643
tp8639
(dp8640
g4644
I2
ss(g7222
g6746
g6231
tp8641
(dp8642
g4247
I2
ss(g5223
g5226
g5484
tp8643
(dp8644
g4224
I2
ss(g2661
g7100
g7103
tp8645
(dp8646
g6413
I2
ss(g3773
g3774
g3777
tp8647
(dp8648
g2807
I2
ss(g5810
g6969
g5443
tp8649
(dp8650
g5444
I2
ss(g3620
g6476
g6479
tp8651
(dp8652
g7977
I2
ss(g5624
g3112
g2917
tp8653
(dp8654
g2918
I2
ss(g6969
g5443
g5444
tp8655
(dp8656
g5445
I2
ss(g6271
g6340
S'i'
tp8657
(dp8658
g2983
I2
ss(g3181
g3184
g4410
tp8659
(dp8660
g4411
I2
ss(g1986
g1987
S'i'
tp8661
(dp8662
g1897
I2
ss(g4343
g4346
g3402
tp8663
(dp8664
g3403
I2
ss(S'the'
p8665
g994
g995
tp8666
(dp8667
g996
I2
ss(g7020
g3734
g3735
tp8668
(dp8669
g3736
I2
ss(g2285
g2288
g7230
tp8670
(dp8671
g7231
I2
ss(g2181
g3173
g3174
tp8672
(dp8673
g3175
I2
ss(g7317
g7318
g3497
tp8674
(dp8675
g3498
I2
ss(g731
g5022
g5023
tp8676
(dp8677
g5024
I2
ss(g287
g1030
g1033
tp8678
(dp8679
g5352
I2
ss(g6834
g7769
g1076
tp8680
(dp8681
g1077
I2
ss(g7821
g1134
g1135
tp8682
(dp8683
g1136
I2
ss(g3376
g3377
g3380
tp8684
(dp8685
g3666
I2
ss(g460
g6630
g1953
tp8686
(dp8687
g1954
I2
ss(g4259
g4262
g6751
tp8688
(dp8689
g6752
I2
ss(g3880
g3881
g3884
tp8690
(dp8691
g7394
I2
ss(S'a'
g4307
g4308
tp8692
(dp8693
g4309
I2
ss(g4089
g5520
g5523
tp8694
(dp8695
g8135
I2
ss(g265
g266
g269
tp8696
(dp8697
g1675
I2
ss(g3395
g3396
g2832
tp8698
(dp8699
g2833
I2
ss(S'voice'
p8700
g2426
g2427
tp8701
(dp8702
g491
I2
ss(g5605
g5606
g5609
tp8703
(dp8704
g2866
I2
ss(S'kind'
p8705
g3934
g3935
tp8706
(dp8707
g3936
I2
ss(g127
g128
g131
tp8708
(dp8709
g2551
I2
ss(g911
g2249
g6783
tp8710
(dp8711
g4871
I2
ss(g5775
g5947
g2182
tp8712
(dp8713
g2183
I2
ss(g371
g372
g375
tp8714
(dp8715
g4984
I2
ss(g2444
g2447
g3914
tp8716
(dp8717
g4471
I2
ss(S'of'
p8718
S'me'
p8719
S'based'
p8720
tp8721
(dp8722
S'on'
p8723
I2
ss(g1409
g1410
g1413
tp8724
(dp8725
g4107
I2
ss(g493
g496
g1261
tp8726
(dp8727
g1262
I2
ss(g364
g7300
g7128
tp8728
(dp8729
g1919
I2
ss(g2464
g2467
g682
tp8730
(dp8731
g683
I2
ss(g3817
g3820
g7799
tp8732
(dp8733
g5291
I2
ss(g3265
g3266
g3269
tp8734
(dp8735
g7633
I2
ss(g6966
g5619
g5620
tp8736
(dp8737
g5621
I2
ss(g6216
g6217
g6220
tp8738
(dp8739
g4815
I2
ss(g4759
g4741
g4368
tp8740
(dp8741
g4369
I2
ss(g5833
S'until'
p8742
g4170
tp8743
(dp8744
g4171
I2
ss(g2513
g2442
g2443
tp8745
(dp8746
g2444
I2
ss(g2666
g2667
g2670
tp8747
(dp8748
g8718
I2
ss(g1790
g2513
g2442
tp8749
(dp8750
g2443
I2
ss(g5016
g5450
g5453
tp8751
(dp8752
g6048
I2
ss(g7543
g7913
g4455
tp8753
(dp8754
g4456
I2
ss(g4382
g567
g568
tp8755
(dp8756
S'a'
I2
ss(g2467
g682
g683
tp8757
(dp8758
S'i'
I2
ss(g660
g663
g2723
tp8759
(dp8760
g4662
I2
ss(g5594
g5595
g5598
tp8761
(dp8762
g208
I2
ss(g1237
g4939
g3463
tp8763
(dp8764
g3464
I2
ss(g3346
g3133
g3134
tp8765
(dp8766
g3135
I2
ss(g4908
g4909
g4912
tp8767
(dp8768
g6308
I2
ss(g7691
g7694
S'own'
p8769
tp8770
(dp8771
g7019
I2
ss(g8291
g5579
g1925
tp8772
(dp8773
g1926
I2
ss(g606
g607
g610
tp8774
(dp8775
g2970
I2
sg578
I2
ss(g1629
g1632
g5593
tp8776
(dp8777
g5594
I2
ss(g5409
g5412
g6091
tp8778
(dp8779
g2545
I2
ss(g7569
S'mention'
p8780
g7689
tp8781
(dp8782
g7690
I2
ss(g3308
g3311
S'end'
p8783
tp8784
(dp8785
S'of'
p8786
I2
ss(g8030
g6694
g6335
tp8787
(dp8788
g3159
I2
ss(g1926
g1927
g1930
tp8789
(dp8790
g2405
I2
ss(g1488
g4804
g41
tp8791
(dp8792
g42
I2
ss(g5481
g259
g260
tp8793
(dp8794
g261
I2
ss(g36
g37
g40
tp8795
(dp8796
g74
I2
ss(g5469
g5472
S'my'
p8797
tp8798
(dp8799
g63
I2
ss(S'things'
p8800
g97
g98
tp8801
(dp8802
g99
I2
ss(g6279
g7544
g2044
tp8803
(dp8804
g2045
I2
ss(g5626
g5627
g5630
tp8805
(dp8806
g8065
I2
sS'there'
p8807
I2
ss(S'was'
p8808
g7574
g7575
tp8809
(dp8810
g7576
I2
ss(g6987
g5237
g5238
tp8811
(dp8812
g5239
I2
sg6096
I2
ss(g5573
S'be'
p8813
S'as'
p8814
tp8815
(dp8816
S'likely'
p8817
I2
ss(g2189
g2190
g2193
tp8818
(dp8819
g4919
I2
ss(g5520
g5523
g8135
tp8820
(dp8821
g8136
I2
ss(g2365
g2368
g2635
tp8822
(dp8823
g2636
I2
ss(g1513
g8486
g7260
tp8824
(dp8825
g5865
I2
ss(g1510
g1513
g8486
tp8826
(dp8827
g7260
I2
ss(g1675
g1678
g3620
tp8828
(dp8829
g6476
I2
ss(g2572
g2575
g3949
tp8830
(dp8831
g306
I2
ss(g4289
g4290
g4293
tp8832
(dp8833
g2801
I2
ss(g2745
g2746
g2749
tp8834
(dp8835
g6900
I2
ss(S'it'
p8836
S'made'
p8837
g5554
tp8838
(dp8839
g5555
I2
ss(g3743
g3746
g7218
tp8840
(dp8841
g7219
I2
ss(g7696
g7083
g2065
tp8842
(dp8843
g2066
I2
ss(g6756
g6759
g6850
tp8844
(dp8845
g6851
I2
ss(g293
g3643
g2474
tp8846
(dp8847
g2475
I2
ss(g3013
S'a'
g6382
tp8848
(dp8849
S'i'
I2
ss(g4118
g4119
g4122
tp8850
(dp8851
g4579
I2
ss(g4746
g7500
g4657
tp8852
(dp8853
g4658
I2
ss(g913
g914
g917
tp8854
(dp8855
g7638
I2
ss(g958
g959
g962
tp8856
(dp8857
g3204
I2
ss(g1484
g1485
g1488
tp8858
(dp8859
g4804
I2
ss(g139
g140
g143
tp8860
(dp8861
g4092
I2
ss(g3428
g3239
g3240
tp8862
(dp8863
S'a'
I2
ss(g3520
g5358
g5359
tp8864
(dp8865
g2949
I2
ss(g6599
g6600
S'a'
tp8866
(dp8867
g4123
I2
ss(g4442
g4445
g6022
tp8868
(dp8869
g6023
I2
ss(g1378
g1381
g2436
tp8870
(dp8871
g2437
I2
ss(S'a'
g3412
g5017
tp8872
(dp8873
g5018
I2
ss(g2029
S'a'
g2032
tp8874
(dp8875
g6756
I2
ss(S'i'
g5888
g2409
tp8876
(dp8877
g2410
I2
ss(g319
g320
g324
tp8878
(dp8879
g4668
I2
ss(g2833
g2767
g2768
tp8880
(dp8881
g2769
I2
ss(g2284
g2285
g2288
tp8882
(dp8883
g7230
I2
ss(g1099
g1100
S'i'
tp8884
(dp8885
g7766
I2
ss(g5181
g5184
g4164
tp8886
(dp8887
g4165
I2
ss(g7389
g4891
g4892
tp8888
(dp8889
g4893
I2
ss(g6508
g6839
S'i'
tp8890
(dp8891
g6840
I2
ss(g2958
g2959
g2962
tp8892
(dp8893
S'ripped'
p8894
I2
ss(g1526
g1527
g1530
tp8895
(dp8896
g1850
I2
ss(g7634
g7635
g4952
tp8897
(dp8898
g4953
I2
ss(g634
g1915
g1918
tp8899
(dp8900
g2381
I2
ss(g5701
g5704
g7247
tp8901
(dp8902
g804
I2
ss(g1851
g1854
g6187
tp8903
(dp8904
g6188
I2
ss(S'happen'
p8905
S'i'
g8189
tp8906
(dp8907
g3915
I2
ss(g6239
S'as'
p8908
S'we'
p8909
tp8910
(dp8911
S'rolled'
p8912
I2
ss(S'a'
g1251
g1254
tp8913
(dp8914
g2727
I2
ss(g4975
g7125
g4256
tp8915
(dp8916
g2890
I2
ss(g1457
g1460
g1697
tp8917
(dp8918
g1698
I2
ss(g2778
g7596
g7862
tp8919
(dp8920
g7863
I2
ss(g1584
g6080
S'the'
p8921
tp8922
(dp8923
g1688
I2
ss(g3804
g3805
g3808
tp8924
(dp8925
g4533
I2
ss(g1364
g1367
g4829
tp8926
(dp8927
g4830
I2
ss(g3371
g6858
g3044
tp8928
(dp8929
g3045
I2
ss(g1626
g1715
g1718
tp8930
(dp8931
g1461
I2
ss(g2306
g2309
S'moles'
p8932
tp8933
(dp8934
g7530
I2
ss(g8117
g282
g283
tp8935
(dp8936
g284
I2
ss(g7394
g7328
g4451
tp8937
(dp8938
g4452
I2
ss(g7359
g8233
g8347
tp8939
(dp8940
g1238
I2
ss(g1022
g1023
g1026
tp8941
(dp8942
g3427
I2
ss(g8507
g8510
g8836
tp8943
(dp8944
g8837
I2
ss(g6961
g6964
g8097
tp8945
(dp8946
g8244
I2
ss(g4473
g4476
S'face'
p8947
tp8948
(dp8949
S'had'
p8950
I2
ss(S'though'
p8951
g5987
g5988
tp8952
(dp8953
g5989
I2
ss(g1762
g1763
g1766
tp8954
(dp8955
g4021
I2
ss(g4668
g4669
g4672
tp8956
(dp8957
g3957
I2
ss(g4181
S'liked'
p8958
g6890
tp8959
(dp8960
g5185
I2
ss(S'i'
g1791
g1792
tp8961
(dp8962
g1793
I2
ss(g6204
g6223
S''
tp8963
(dp8964
g3662
I2
ss(g4718
g5826
g5829
tp8965
(dp8966
g7478
I2
ss(g134
g137
g7157
tp8967
(dp8968
S'it'
p8969
I2
ss(g1322
g1323
S'i'
tp8970
(dp8971
g5888
I2
ss(g99
S'a'
g5249
tp8972
(dp8973
g5250
I2
ss(g5191
g7734
g7737
tp8974
(dp8975
g3971
I2
ss(g6590
g6593
g4642
tp8976
(dp8977
g4643
I2
ss(g6148
g6149
g4768
tp8978
(dp8979
g4769
I2
ss(g1775
g1776
g1433
tp8980
(dp8981
g1434
I2
ss(g204
g207
g1029
tp8982
(dp8983
S'a'
I2
ss(g389
g392
g5893
tp8984
(dp8985
g3375
I2
ss(g2197
g3617
g6509
tp8986
(dp8987
g6510
I2
ss(g5893
g3375
g3376
tp8988
(dp8989
g3377
I2
ss(g899
g5368
g6279
tp8990
(dp8991
g7544
I2
ss(g8786
g1643
g1644
tp8992
(dp8993
g1645
I2
ss(g4795
g6877
g6083
tp8994
(dp8995
g4267
I3
ss(g3528
g3665
g1272
tp8996
(dp8997
g1181
I2
ss(g3861
g3864
g790
tp8998
(dp8999
g791
I2
ss(g4169
g6361
g2710
tp9000
(dp9001
g2711
I2
ss(S'i'
g635
g636
tp9002
(dp9003
g198
I2
sg4495
I2
sg2138
I2
sg637
I2
sg7323
I2
ss(g3820
g7799
g5291
tp9004
(dp9005
g2269
I2
ss(g1017
g1020
g6545
tp9006
(dp9007
g3467
I2
ss(g3517
g3520
g5358
tp9008
(dp9009
g5359
I2
ss(g8817
g4159
g4160
tp9010
(dp9011
g4161
I2
ss(S'i'
g1041
g1044
tp9012
(dp9013
g1060
I2
ss(g4775
g4778
g2278
tp9014
(dp9015
g2279
I2
ss(g4302
g4303
g4306
tp9016
(dp9017
g4377
I2
ss(g7690
g7691
g7694
tp9018
(dp9019
g8769
I2
ss(g5412
g6091
g2545
tp9020
(dp9021
g2546
I2
ss(g413
g416
g2135
tp9022
(dp9023
g1219
I2
ss(g4673
g4676
g6859
tp9024
(dp9025
g6860
I2
ss(g3211
g3214
g1633
tp9026
(dp9027
g1634
I2
ss(g3479
g6343
g6346
tp9028
(dp9029
g5379
I2
ss(g3433
g3436
g4571
tp9030
(dp9031
g4079
I2
ss(g4618
g4621
S'i'
tp9032
(dp9033
g4926
I2
ss(g3258
g3261
g7073
tp9034
(dp9035
g7397
I2
ss(g1720
g1721
g1724
tp9036
(dp9037
g2566
I2
ss(g3240
S'a'
g2337
tp9038
(dp9039
g2338
I2
ss(g2592
g2595
g2127
tp9040
(dp9041
g2128
I2
ss(S'his'
p9042
g6497
g6498
tp9043
(dp9044
g434
I2
ss(g4107
g4108
g4111
tp9045
(dp9046
g8023
I2
ss(g2614
g2615
g2618
tp9047
(dp9048
g4958
I2
ss(g4600
g4601
g3099
tp9049
(dp9050
g3100
I2
ss(g5137
g6475
g6986
tp9051
(dp9052
g6987
I2
ss(g5050
g7484
g7487
tp9053
(dp9054
g8328
I2
ss(g4872
g4873
g4876
tp9055
(dp9056
g6469
I2
ss(g8461
g8544
g8545
tp9057
(dp9058
g8546
I2
ss(g2720
g9042
g6497
tp9059
(dp9060
g6498
I2
ss(g5730
g5844
g5845
tp9061
(dp9062
g167
I2
ss(g2855
g2858
g1998
tp9063
(dp9064
g1999
I2
ss(g8813
g8814
g8817
tp9065
(dp9066
g4159
I2
ss(S'i'
g6493
g6496
tp9067
(dp9068
S'wouldnt'
p9069
I2
ss(g3749
g3752
g5504
tp9070
(dp9071
g6033
I2
ss(g1158
g1159
g1162
tp9072
(dp9073
g2836
I2
ss(g7025
g8705
g3934
tp9074
(dp9075
g3935
I2
ss(g2199
g2200
g1664
tp9076
(dp9077
g1665
I2
ss(g2509
g2512
g7948
tp9078
(dp9079
g3952
I2
ss(g2939
g2940
g2539
tp9080
(dp9081
g2540
I2
ss(S'i'
g2983
g2984
tp9082
(dp9083
g2985
I2
ss(g7349
g7350
g7353
tp9084
(dp9085
g3966
I2
ss(g7034
g8507
g8510
tp9086
(dp9087
g8836
I2
ss(g6711
g1821
g1822
tp9088
(dp9089
g1823
I2
ss(g3570
g3573
g3799
tp9090
(dp9091
g3800
I2
ss(g2083
g4732
g4735
tp9092
(dp9093
g6252
I2
ss(g7593
g3803
g3804
tp9094
(dp9095
g3805
I2
ss(g5399
g1225
g1226
tp9096
(dp9097
g1227
I2
ss(g964
g965
g968
tp9098
(dp9099
g7630
I2
ss(g3798
g4690
g5792
tp9100
(dp9101
g3227
I2
ss(g166
g7409
g7410
tp9102
(dp9103
g7411
I2
ss(g1008
g5392
g1293
tp9104
(dp9105
g1294
I2
ss(g4496
g4499
g7821
tp9106
(dp9107
g1134
I2
ss(g8814
g8817
g4159
tp9108
(dp9109
g4160
I2
ss(g7058
S'a'
g6234
tp9110
(dp9111
g810
I2
ss(g6312
g6313
g4399
tp9112
(dp9113
g3331
I2
ss(g7434
g5818
g5819
tp9114
(dp9115
g2619
I2
ss(g1104
g1105
g1108
tp9116
(dp9117
g2509
I2
ss(g1142
g1145
g3678
tp9118
(dp9119
g3679
I2
ss(g6439
g3431
g3432
tp9120
(dp9121
g3433
I2
ss(g6710
g6711
g1821
tp9122
(dp9123
g1822
I2
ss(g3654
g5149
g5152
tp9124
(dp9125
g7382
I2
ss(g4951
g6576
g3944
tp9126
(dp9127
g1525
I2
ss(g7934
g7937
g5011
tp9128
(dp9129
g5012
I2
ss(g369
g8905
S'i'
tp9130
(dp9131
g8189
I2
ss(g1280
g7026
g7031
tp9132
(dp9133
g5950
I2
ss(S'because'
p9134
g3437
g3438
tp9135
(dp9136
g3439
I2
ss(g4068
g5967
g5970
tp9137
(dp9138
g6742
I2
ss(g6067
S'a'
g6437
tp9139
(dp9140
g6438
I2
ss(g2352
g2353
g2356
tp9141
(dp9142
g6907
I2
ss(g3222
g7323
S'i'
tp9143
(dp9144
g5751
I2
ss(g3338
g3341
g1874
tp9145
(dp9146
g1875
I2
ss(g1071
g1072
g1075
tp9147
(dp9148
g3783
I2
ss(g5279
g7434
g5818
tp9149
(dp9150
g5819
I2
ss(g2463
g2464
g2467
tp9151
(dp9152
g682
I2
ss(g1776
g1433
g1434
tp9153
(dp9154
g1435
I2
ss(g5920
g5923
g664
tp9155
(dp9156
g665
I2
ss(g161
g5028
g5029
tp9157
(dp9158
g5030
I2
ss(g7668
S'i'
g1492
tp9159
(dp9160
g1493
I2
ss(g8286
g1004
g1005
tp9161
(dp9162
S'i'
I2
ss(g4198
g6005
g6006
tp9163
(dp9164
g6007
I2
ss(g3451
g3454
g4807
tp9165
(dp9166
g4808
I2
ss(g8077
g8605
g8304
tp9167
(dp9168
g179
I2
ss(g1879
g1882
g2078
tp9169
(dp9170
g2079
I2
ss(g4083
g4218
g4219
tp9171
(dp9172
g4220
I2
ss(g7734
g7737
g3971
tp9173
(dp9174
g588
I2
ss(g1066
g1069
g6762
tp9175
(dp9176
g1736
I2
ss(g5007
g5010
g7203
tp9177
(dp9178
g7446
I2
ss(g2723
g4662
g4588
tp9179
(dp9180
g4589
I2
ss(g8328
g8116
g8117
tp9181
(dp9182
g282
I2
ss(g5199
S'what'
p9183
g8334
tp9184
(dp9185
g6137
I2
ss(g5092
g5095
g6172
tp9186
(dp9187
g6173
I2
ss(g487
g490
g5294
tp9188
(dp9189
g5295
I2
ss(S'a'
g7080
g7108
tp9190
(dp9191
g2239
I2
ss(g5761
g5764
g8374
tp9192
(dp9193
g5625
I2
ss(g2094
g4259
g4262
tp9194
(dp9195
g6751
I2
ss(g6759
g6850
g6851
tp9196
(dp9197
g6402
I2
ss(g3160
g2148
g2149
tp9198
(dp9199
g2150
I2
ss(g18
g3421
g3081
tp9200
(dp9201
g3082
I2
ss(g6634
g6635
g6638
tp9202
(dp9203
S'a'
I2
ss(g6489
g6490
g2945
tp9204
(dp9205
g2946
I2
ss(g5250
g5253
g3888
tp9206
(dp9207
g3778
I2
ss(g2220
g2221
g2224
tp9208
(dp9209
S'a'
I2
ss(g2825
g7790
g5467
tp9210
(dp9211
g5468
I2
ss(g6018
g6021
g2989
tp9212
(dp9213
g2990
I2
ss(g3469
g3363
g2321
tp9214
(dp9215
g2322
I2
ss(g2933
g2934
g2937
tp9216
(dp9217
S'i'
I2
ss(g5387
g2497
g2498
tp9218
(dp9219
g2499
I2
ss(g797
g800
g6633
tp9220
(dp9221
g6634
I2
ss(g4696
g4697
g4700
tp9222
(dp9223
S'a'
I2
ss(g6399
g346
g347
tp9224
(dp9225
g348
I2
ss(g5324
g5327
g8228
tp9226
(dp9227
g6928
I2
ss(g4476
g8947
g8950
tp9228
(dp9229
S'begun'
p9230
I2
ss(g6575
g7724
g7727
tp9231
(dp9232
g3904
I2
ss(g4706
g1562
g1563
tp9233
(dp9234
g1564
I2
ss(g777
g8437
g8438
tp9235
(dp9236
g6709
I2
ss(S'biography'
p9237
g8951
g5987
tp9238
(dp9239
g5988
I2
ss(g980
g981
g924
tp9240
(dp9241
g925
I2
ss(g760
g1600
g1603
tp9242
(dp9243
g6039
I2
ss(g1178
g623
g624
tp9244
(dp9245
g625
I2
ss(g2717
g2720
g9042
tp9246
(dp9247
g6497
I2
ss(g2940
g2539
g2540
tp9248
(dp9249
g521
I2
ss(g3046
g3049
g826
tp9250
(dp9251
S'i'
I2
ss(g5070
S'i'
g1514
tp9252
(dp9253
g1515
I2
ss(g81
g84
g2598
tp9254
(dp9255
g2599
I2
ss(g7754
g2357
g2358
tp9256
(dp9257
g2359
I2
ss(g7766
g7555
g2138
tp9258
(dp9259
g2139
I2
ss(g8780
g7689
g7690
tp9260
(dp9261
g7691
I2
ss(g908
g911
g2249
tp9262
(dp9263
g6783
I2
ss(g7680
g3741
g3742
tp9264
(dp9265
g3743
I2
ss(g3832
g3833
g3836
tp9266
(dp9267
S'i'
I2
ss(g1124
g1127
g2861
tp9268
(dp9269
g2862
I2
ss(S'i'
g2998
g515
tp9270
(dp9271
g516
I2
ss(g8135
g8136
g4599
tp9272
(dp9273
g4600
I2
ss(g7765
g7359
g8233
tp9274
(dp9275
g8347
I2
ss(g3090
S'i'
g91
tp9276
(dp9277
g92
I2
ss(g3967
g3970
g5041
tp9278
(dp9279
g5042
I2
ss(g3560
g3561
g3564
tp9280
(dp9281
g5920
I2
ss(g2667
g2670
g8718
tp9282
(dp9283
g8719
I2
ss(g372
g375
g4984
tp9284
(dp9285
g4506
I2
ss(g8807
g3879
g3880
tp9286
(dp9287
g3881
I2
ss(g5609
g2866
g2867
tp9288
(dp9289
S'i'
I2
ss(g441
g442
g445
tp9290
(dp9291
g3230
I2
ss(g2096
g2097
g2100
tp9292
(dp9293
g2787
I2
ss(g2973
g5586
S'i'
tp9294
(dp9295
g7287
I2
ss(g7080
g7108
g2239
tp9296
(dp9297
g2122
I2
ss(g7904
g4182
g3416
tp9298
(dp9299
g551
I2
ss(g2437
g2438
g2441
tp9300
(dp9301
g4185
I2
ss(g1200
g5223
g5226
tp9302
(dp9303
g5484
I2
ss(g4893
g4896
g6462
tp9304
(dp9305
g2969
I2
ss(g258
g1338
g5345
tp9306
(dp9307
g1472
I2
ss(g1532
g1250
S'a'
tp9308
(dp9309
g1251
I2
ss(g2280
g2283
g4565
tp9310
(dp9311
g4566
I2
ss(g2871
g2872
g2875
tp9312
(dp9313
g3251
I2
ss(g2289
g2292
g2754
tp9314
(dp9315
g2299
I2
ss(g2676
g2677
g2680
tp9316
(dp9317
g3727
I2
ss(g4514
g4792
g4795
tp9318
(dp9319
g6877
I2
ss(g7263
g7266
g4294
tp9320
(dp9321
g4295
I2
ss(g169
g172
g8026
tp9322
(dp9323
g8027
I2
ss(g2907
g2908
g1903
tp9324
(dp9325
g1904
I2
ss(g8769
g7019
g7020
tp9326
(dp9327
g3734
I2
ss(g2242
g2243
g2246
tp9328
(dp9329
S'the'
p9330
I2
ss(g4441
g4442
g4445
tp9331
(dp9332
g6022
I2
ss(g8169
g4198
g6005
tp9333
(dp9334
g6006
I2
ss(g317
g2664
g4336
tp9335
(dp9336
g4337
I2
ss(g4
g7
g1784
tp9337
(dp9338
g8700
I2
ss(g4936
g6508
g6839
tp9339
(dp9340
S'i'
I2
ss(g4115
g2640
g1176
tp9341
(dp9342
g1177
I2
ss(g6195
S'a'
g2795
tp9343
(dp9344
g2796
I2
ss(g2584
g2587
g2671
tp9345
(dp9346
g2672
I2
ss(g435
g436
g439
tp9347
(dp9348
g4059
I2
ss(g3577
g3578
g3581
tp9349
(dp9350
g4728
I2
ss(g8517
g7523
S'a'
tp9351
(dp9352
g2696
I2
ss(g5397
g7759
g8331
tp9353
(dp9354
g7679
I2
ss(g2743
g3356
g3359
tp9355
(dp9356
g6866
I2
ss(g121
g122
g125
tp9357
(dp9358
g584
I2
ss(g560
g2622
g2626
tp9359
(dp9360
g2418
I2
ss(g3670
g3671
g3674
tp9361
(dp9362
S'i'
I2
ss(g5567
g5336
g5337
tp9363
(dp9364
g5338
I2
sg605
I2
sg744
I2
sg5882
I2
ss(g2962
g8894
g5549
tp9365
(dp9366
g473
I2
ss(g703
g1924
g5713
tp9367
(dp9368
S'i'
I2
ss(g5765
g4176
g3067
tp9369
(dp9370
g3068
I2
ss(g7287
g1098
g1099
tp9371
(dp9372
g1100
I2
ss(S'i'
g5212
g1616
tp9373
(dp9374
g1617
I2
ss(S'a'
g3967
g3970
tp9375
(dp9376
g5041
I2
ss(g1870
g1871
S'i'
tp9377
(dp9378
g8399
I2
ss(g3341
g1874
g1875
tp9379
(dp9380
g1876
I2
ss(g6751
g6752
g6755
tp9381
(dp9382
g5576
I2
ss(g3156
g5397
g7759
tp9383
(dp9384
g8331
I2
ss(g1239
g1240
g1243
tp9385
(dp9386
g1786
I2
ss(g8510
g8836
g8837
tp9387
(dp9388
g5554
I2
ss(g5450
g5453
g6048
tp9389
(dp9390
g6049
I2
ss(g5758
g2451
g2452
tp9391
(dp9392
g2453
I2
ss(g1044
g1060
g1061
tp9393
(dp9394
g2005
I2
sg1062
I2
ss(g3679
g3682
g4519
tp9395
(dp9396
S'in'
p9397
I2
ss(g4570
g5129
g1163
tp9398
(dp9399
g5130
I2
ss(g2626
g2418
g2419
tp9400
(dp9401
g2420
I2
ss(g2386
g2387
g2390
tp9402
(dp9403
g1725
I2
ss(g1808
g6448
g4374
tp9404
(dp9405
g85
I2
ss(g4750
g4751
S'i'
tp9406
(dp9407
g3193
I2
ss(g7097
g5705
g5706
tp9408
(dp9409
g5707
I2
ss(g8783
g8786
g1643
tp9410
(dp9411
g1644
I2
ss(g590
g593
g6569
tp9412
(dp9413
g1444
I2
ss(g1130
g1133
g6316
tp9414
(dp9415
g5680
I2
ss(g6517
g5528
g5529
tp9416
(dp9417
g5530
I2
ss(g4014
g4017
g7536
tp9418
(dp9419
g7537
I2
ss(g5662
g1309
g1310
tp9420
(dp9421
g1311
I2
ss(g3121
g3124
g5781
tp9422
(dp9423
S'a'
I2
ss(g3657
g3658
g3661
tp9424
(dp9425
g3987
I2
ss(g5776
g3050
g3051
tp9426
(dp9427
g3052
I2
ss(g1612
g1615
g7013
tp9428
(dp9429
g5005
I2
ss(g7050
g7053
S'having'
p9430
tp9431
(dp9432
g8800
I2
ss(g5555
g1170
g1171
tp9433
(dp9434
g1172
I2
ss(g5323
g5324
g5327
tp9435
(dp9436
g8228
I2
ss(g3111
g7885
g7888
tp9437
(dp9438
g2264
I2
ss(g5359
g2949
g2950
tp9439
(dp9440
S'i'
I2
ss(g2309
g8932
g7530
tp9441
(dp9442
g7531
I2
ss(g4100
g6722
g7569
tp9443
(dp9444
g8780
I2
ss(g281
g4821
g4822
tp9445
(dp9446
g1858
I2
ss(g4422
g1408
g1409
tp9447
(dp9448
g1410
I2
sg2855
I2
sg2803
I2
ss(g4920
g4923
g4152
tp9449
(dp9450
g3788
I2
ss(g5045
g2156
g2157
tp9451
(dp9452
g2158
I2
ss(g1000
g1003
g7643
tp9453
(dp9454
g7387
I2
ss(g1410
g1413
g4107
tp9455
(dp9456
g4108
I2
ss(g2260
g2263
g1545
tp9457
(dp9458
g1546
I2
ss(g5654
g5655
g5658
tp9459
(dp9460
g7453
I2
ss(g1371
g1372
g1375
tp9461
(dp9462
g8005
I2
ss(g7194
g4995
g4996
tp9463
(dp9464
g1844
I2
ss(g914
g917
g7638
tp9465
(dp9466
g5311
I2
ss(g2814
g2847
g4848
tp9467
(dp9468
g3366
I2
ss(g7481
g7182
g7183
tp9469
(dp9470
g7184
I2
ss(g2657
g2658
g2661
tp9471
(dp9472
g7100
I2
ss(g5229
g6430
S'a'
tp9473
(dp9474
g4073
I2
ss(g8932
g7530
g7531
tp9475
(dp9476
S'i'
I2
ss(g7948
g3952
g3953
tp9477
(dp9478
g3954
I2
ss(g7118
g2095
g2096
tp9479
(dp9480
g2097
I2
ss(g366
g369
g8905
tp9481
(dp9482
S'i'
I2
ss(S'a'
g1255
g1256
tp9483
(dp9484
g1257
I2
ss(g5630
g8065
g8068
tp9485
(dp9486
g5981
I2
ss(g818
g819
g822
tp9487
(dp9488
g3223
I2
ss(g6062
g6063
g3145
tp9489
(dp9490
g3146
I2
ss(g162
g163
g166
tp9491
(dp9492
g7409
I2
ss(S'of'
p9493
g3256
g3257
tp9494
(dp9495
g3258
I2
ss(g5903
g5904
g5653
tp9496
(dp9497
g5654
I2
ss(g8947
g8950
g9230
tp9498
(dp9499
S'to'
p9500
I2
ss(g5174
g6262
g6263
tp9501
(dp9502
g6264
I2
ss(g6929
g2304
g2305
tp9503
(dp9504
g2306
I2
ss(g7397
g6193
g6194
tp9505
(dp9506
g6195
I2
ss(g3774
g3777
g2807
tp9507
(dp9508
g2808
I2
ss(g225
g228
g2111
tp9509
(dp9510
g2112
I2
ss(g5133
g5220
g3703
tp9511
(dp9512
g3704
I2
ss(g398
g5267
g6978
tp9513
(dp9514
S'the'
p9515
I2
ss(g4879
g6934
g5805
tp9516
(dp9517
g5806
I2
ss(g8797
g63
S'i'
tp9518
(dp9519
g64
I2
ss(g1305
g1308
g1491
tp9520
(dp9521
g5215
I2
ss(g1182
g1183
S'i'
tp9522
(dp9523
g7281
I2
ss(g1088
g6655
g2315
tp9524
(dp9525
g2316
I2
sg2184
I2
sg4455
I2
sg5866
I2
sg3715
I2
ss(g7219
g7222
g6746
tp9526
(dp9527
g6231
I2
ss(g6877
g6083
g4267
tp9528
(dp9529
g7350
I2
sg1021
I2
ss(g4332
g4335
g8807
tp9530
(dp9531
g3879
I2
ss(g5300
g5303
g6312
tp9532
(dp9533
g6313
I2
ss(g1485
g1488
g4804
tp9534
(dp9535
g41
I2
ss(g2423
S'a'
g817
tp9536
(dp9537
g818
I2
ss(g2059
g6617
g6729
tp9538
(dp9539
g2744
I2
ss(g6000
g5254
g4391
tp9540
(dp9541
g4392
I2
ss(g717
g718
g721
tp9542
(dp9543
g4503
I2
ss(g2672
g2675
g4137
tp9544
(dp9545
g4138
I2
ss(g5909
g5910
g3837
tp9546
(dp9547
S'i'
I2
ss(g3427
g3428
g3239
tp9548
(dp9549
g3240
I2
ss(g4402
S'i'
g1791
tp9550
(dp9551
g1792
I2
ss(g8269
S'i'
g2927
tp9552
(dp9553
g2928
I2
ss(g1915
g1918
g2381
tp9554
(dp9555
g1719
I2
ss(g5744
g6983
g8069
tp9556
(dp9557
g126
I2
ss(g5772
g5775
g5947
tp9558
(dp9559
g2182
I2
ss(g2112
g2115
g7034
tp9560
(dp9561
g8507
I2
ss(g1016
g1017
g1020
tp9562
(dp9563
g6545
I2
ss(g3022
g1797
g1798
tp9564
(dp9565
g1799
I2
ss(g6038
S'i'
g7695
tp9566
(dp9567
g7696
I2
ss(g58
g59
g62
tp9568
(dp9569
g728
I2
ss(g2279
g2280
g2283
tp9570
(dp9571
g4565
I2
ss(g5718
g5721
g4616
tp9572
(dp9573
g4617
I2
ss(g5263
g5266
g3449
tp9574
(dp9575
g3450
I2
ss(g1769
S'i'
g5999
tp9576
(dp9577
g6000
I2
ss(g3962
g4685
g5285
tp9578
(dp9579
g2870
I2
ss(g4737
g4740
g6045
tp9580
(dp9581
g4270
I2
ss(S'a'
g5386
g5387
tp9582
(dp9583
g2497
I2
ss(g5159
g6285
g6990
tp9584
(dp9585
g4885
I2
ss(g7694
g8769
g7019
tp9586
(dp9587
g7020
I2
ss(g7599
g5160
g4053
tp9588
(dp9589
g4054
I2
ss(S'i'
g6538
g7035
tp9590
(dp9591
g7036
I2
ss(g616
S'hear'
p9592
S'his'
p9593
tp9594
(dp9595
g4665
I2
ss(g6226
S'i'
g929
tp9596
(dp9597
g930
I2
ss(g1136
g1139
g5659
tp9598
(dp9599
S'i'
I2
ss(g7382
g6055
g6056
tp9600
(dp9601
g6057
I2
ss(g8438
g6709
g6710
tp9602
(dp9603
g6711
I2
ss(g579
g580
g583
tp9604
(dp9605
g1000
I2
ss(g763
g766
g1857
tp9606
(dp9607
g5398
I2
ss(g2086
g2089
g2906
tp9608
(dp9609
g2907
I2
ss(S'a'
g4155
g4156
tp9610
(dp9611
g1385
I2
ss(g5177
g1740
g1741
tp9612
(dp9613
S'i'
I2
ss(g2995
g527
g528
tp9614
(dp9615
g529
I2
ss(g3916
g3917
g3628
tp9616
(dp9617
g3629
I2
ss(g6346
g5379
g3764
tp9618
(dp9619
g3765
I2
ss(g7840
g6096
g4190
tp9620
(dp9621
S'write'
p9622
I2
sg4357
I2
sg4191
I2
sg4792
I2
ss(g1590
g4719
g4720
tp9623
(dp9624
g4721
I2
ss(g8469
S'it'
p9625
g3196
tp9626
(dp9627
g7150
I2
ss(g1960
g1963
g6605
tp9628
(dp9629
g5756
I2
ss(g2283
g4565
g4566
tp9630
(dp9631
g4567
I2
ss(g4800
g5573
g8813
tp9632
(dp9633
g8814
I2
ss(g3032
g3033
g3036
tp9634
(dp9635
g4574
I2
ss(g6955
g2296
g2203
tp9636
(dp9637
g1973
I2
ss(g5951
g2821
S'a'
tp9638
(dp9639
g2822
I2
ss(g2716
g2717
g2720
tp9640
(dp9641
g9042
I2
ss(S'i'
g1623
g1626
tp9642
(dp9643
g1715
I2
ss(g5331
g4381
g4382
tp9644
(dp9645
g567
I2
ss(g1230
g3476
g3479
tp9646
(dp9647
g6343
I2
ss(S'a'
g2039
g2040
tp9648
(dp9649
g2041
I2
sg6063
I2
ss(g5146
g1888
g1889
tp9650
(dp9651
g467
I2
ss(g8912
S'slowly'
p9652
g4523
tp9653
(dp9654
S'a'
I2
ss(g4160
g4161
g1827
tp9655
(dp9656
g1828
I2
ss(g332
g333
g336
tp9657
(dp9658
g2457
I2
ss(g1123
g1124
g1127
tp9659
(dp9660
g2861
I2
ss(g6095
S'that'
p9661
S'i'
tp9662
(dp9663
g337
I2
ss(g3731
g1909
g1910
tp9664
(dp9665
g1911
I2
ss(g2964
g2965
g2968
tp9666
(dp9667
g102
I2
ss(g4659
g3056
g3057
tp9668
(dp9669
g3058
I2
ss(g6438
g6439
g3431
tp9670
(dp9671
g3432
I2
ss(g6783
g4871
g4872
tp9672
(dp9673
g4873
I2
ss(g5529
g5530
g3535
tp9674
(dp9675
g3536
I2
ss(g756
g757
g760
tp9676
(dp9677
g1600
I2
ss(g4114
g6677
g6680
tp9678
(dp9679
g6482
I2
ss(g3953
g3954
S'a'
tp9680
(dp9681
g2023
I2
ss(g4472
g4473
g4476
tp9682
(dp9683
g8947
I2
ss(g6040
g6041
g6044
tp9684
(dp9685
g5330
I2
ss(g3052
g3055
S'his'
p9686
tp9687
(dp9688
S'first'
p9689
I2
ss(g4326
g4329
g4622
tp9690
(dp9691
g4623
I2
ss(g1445
g1446
g288
tp9692
(dp9693
g289
I2
ss(g278
g281
g4821
tp9694
(dp9695
g4822
I2
ss(g2563
g4539
g4540
tp9696
(dp9697
g3554
I2
ss(S'i'
g3838
g3841
tp9698
(dp9699
g5475
I2
ss(g7888
g2264
g2056
tp9700
(dp9701
g2265
I2
ss(g9397
S'fact'
p9702
g2502
tp9703
(dp9704
g2503
I2
ss(g1345
g1346
g1349
tp9705
(dp9706
g8203
I2
ss(g962
g3204
g3205
tp9707
(dp9708
g3206
I2
ss(g780
g783
g2060
tp9709
(dp9710
g2061
I2
ss(g1581
g1584
g6080
tp9711
(dp9712
g8921
I2
ss(g1251
g1254
g2727
tp9713
(dp9714
g2728
I2
ss(g1326
g1329
g946
tp9715
(dp9716
g947
I2
sg5096
I2
ss(g6021
g2989
g2990
tp9717
(dp9718
g2991
I2
ss(g4161
g1827
g1828
tp9719
(dp9720
g1829
I2
ss(g773
g774
g777
tp9721
(dp9722
g8437
I2
ss(g3132
g4440
g4441
tp9723
(dp9724
g4442
I2
ss(g7484
g7487
g8328
tp9725
(dp9726
g8116
I2
ss(g4527
g5308
S'i'
tp9727
(dp9728
g4510
I2
ss(g3814
g6800
g5105
tp9729
(dp9730
g5106
I2
ss(g6600
S'a'
g4123
tp9731
(dp9732
g4124
I2
ss(g4712
S'a'
g7364
tp9733
(dp9734
g8325
I2
ss(g529
g532
g4325
tp9735
(dp9736
g4326
I2
ss(g3665
g1272
g1181
tp9737
(dp9738
g1182
I2
ss(g7183
g7184
g7187
tp9739
(dp9740
g6442
I2
ss(g90
g2681
g2682
tp9741
(dp9742
g2683
I2
ss(g422
g3893
g3896
tp9743
(dp9744
g4425
I2
ss(g1246
g1249
S'i'
tp9745
(dp9746
g2242
I2
ss(g3266
g3269
g7633
tp9747
(dp9748
g7634
I2
ss(g6729
g2744
g2745
tp9749
(dp9750
g2746
I2
ss(g378
g381
g1059
tp9751
(dp9752
g4779
I2
ss(g1081
g1082
g1085
tp9753
(dp9754
g1289
I2
ss(g5691
g5692
g2415
tp9755
(dp9756
g1531
I2
ss(g424
S'i'
g427
tp9757
(dp9758
g6702
I2
ss(g3655
S'a'
g1255
tp9759
(dp9760
g1256
I2
ss(g6462
g2969
g2970
tp9761
(dp9762
S'a'
I2
ss(g6791
g6792
g6795
tp9763
(dp9764
g6280
I2
ss(g307
g308
g311
tp9765
(dp9766
g5604
I2
ss(g2950
S'i'
g2953
tp9767
(dp9768
g3926
I2
ss(g6651
g6654
g6598
tp9769
(dp9770
g6599
I2
ss(g3021
g3022
g1797
tp9771
(dp9772
g1798
I2
ss(g1882
g2078
g2079
tp9773
(dp9774
g2080
I2
ss(g3816
g3817
g3820
tp9775
(dp9776
g7799
I2
ss(g4519
g9397
g9702
tp9777
(dp9778
g2502
I2
ss(g2476
g2479
g300
tp9779
(dp9780
g301
I2
ss(g6732
g6735
g7986
tp9781
(dp9782
g4426
I2
sg7987
I2
ss(g249
g252
g1088
tp9783
(dp9784
g6655
I2
ss(g4108
g4111
g8023
tp9785
(dp9786
g2627
I2
ss(g7053
g9430
g8800
tp9787
(dp9788
g97
I2
ss(g3502
g5196
g5199
tp9789
(dp9790
g9183
I2
ss(g6990
g4885
g4886
tp9791
(dp9792
g4551
I2
ss(g751
g754
g4199
tp9793
(dp9794
g4200
I2
ss(g1108
g2509
g2512
tp9795
(dp9796
g7948
I2
ss(g4021
g4022
g3568
tp9797
(dp9798
g3569
I2
ss(g6752
g6755
g5576
tp9799
(dp9800
g138
I2
ss(g7388
g7389
g4891
tp9801
(dp9802
g4892
I2
ss(g2831
g1815
g1816
tp9803
(dp9804
g1817
I2
ss(g612
g613
g616
tp9805
(dp9806
g9592
I2
ss(g2305
g2306
g2309
tp9807
(dp9808
g8932
I2
ss(g2032
g6756
g6759
tp9809
(dp9810
g6850
I2
ss(g1600
g1603
g6039
tp9811
(dp9812
g6040
I2
ss(g1310
g1311
g1314
tp9813
(dp9814
g3823
I2
ss(g8742
g4170
g4171
tp9815
(dp9816
g4172
I2
ss(g1316
g1317
g1320
tp9817
(dp9818
g6960
I2
ss(g2769
g2772
g2569
tp9819
(dp9820
g6454
I2
ss(g2393
g2396
g5872
tp9821
(dp9822
g5873
I2
sg7048
I2
ss(g1918
g2381
g1719
tp9823
(dp9824
g1720
I2
ss(g863
g3472
g3475
tp9825
(dp9826
g3600
I2
ss(g5010
g7203
g7446
tp9827
(dp9828
g2885
I2
ss(g7913
g4455
g4456
tp9829
(dp9830
g4457
I2
ss(g5428
g3319
g3320
tp9831
(dp9832
S'you'
p9833
I2
sg6517
I2
sg3321
I2
ss(g7312
g7313
g6921
tp9834
(dp9835
g3413
I2
ss(g3311
g8783
g8786
tp9836
(dp9837
g1643
I2
ss(g149
g1190
g1191
tp9838
(dp9839
g1192
I2
ss(S'i'
g1787
g1790
tp9840
(dp9841
g2513
I2
ss(g8203
g7111
g7112
tp9842
(dp9843
g1376
I2
ss(g5849
g5850
g4365
tp9844
(dp9845
g1779
I2
ss(g3443
g3444
g3447
tp9846
(dp9847
g3459
I2
ss(g5472
g8797
g63
tp9848
(dp9849
S'i'
I2
ss(g5933
g5936
g5570
tp9850
(dp9851
g417
I2
ss(g3860
g3861
g3864
tp9852
(dp9853
g790
I2
ss(g6680
g6482
g6483
tp9854
(dp9855
g4606
I2
ss(g3516
g3517
g3520
tp9856
(dp9857
g5358
I2
ss(g2959
g2962
g8894
tp9858
(dp9859
g5549
I2
ss(g5704
g7247
g804
tp9860
(dp9861
g805
I2
ss(g1454
g4800
g5573
tp9862
(dp9863
g8813
I2
ss(g6410
S'a'
g4838
tp9864
(dp9865
g4839
I2
ss(g2828
g2831
g1815
tp9866
(dp9867
g1816
I2
ss(g2758
g2761
g5317
tp9868
(dp9869
g5318
I2
ss(g2916
g3993
g3996
tp9870
(dp9871
g6648
I2
ss(g1628
g1629
g1632
tp9872
(dp9873
g5593
I2
ss(S'a'
g3390
g5612
tp9874
(dp9875
g2363
I2
ss(g7782
g7785
g8420
tp9876
(dp9877
g4036
I2
ss(g3954
S'a'
g2023
tp9878
(dp9879
g874
I2
ss(g3307
g3308
g3311
tp9880
(dp9881
g8783
I2
ss(g4615
g4001
g4002
tp9882
(dp9883
g4003
I2
ss(g2485
g4014
g4017
tp9884
(dp9885
g7536
I2
ss(g2356
g6907
g6904
tp9886
(dp9887
g6070
I2
ss(g5817
S'a'
g4307
tp9888
(dp9889
g4308
I2
ss(g131
g2551
g2554
tp9890
(dp9891
g6651
I2
ss(g859
g860
g863
tp9892
(dp9893
g3472
I2
ss(g7160
g2333
g2334
tp9894
(dp9895
g533
I2
ss(g5298
g1080
g1081
tp9896
(dp9897
g1082
I2
ss(g791
g792
g795
tp9898
(dp9899
g6011
I2
ss(g2974
g2607
g2608
tp9900
(dp9901
g2609
I2
ss(g8054
g8057
g3274
tp9902
(dp9903
g1937
I2
ss(S'had'
p9904
g323
g3062
tp9905
(dp9906
g3063
I2
ss(g3180
g3181
g3184
tp9907
(dp9908
g4410
I2
ss(g4959
g934
g935
tp9909
(dp9910
g936
I2
ss(g8450
g6016
g6017
tp9911
(dp9912
g6018
I2
ss(g145
g146
g149
tp9913
(dp9914
g1190
I2
ss(g5643
g5257
g5258
tp9915
(dp9916
g5259
I2
ss(g5027
S'was'
p9917
g3529
tp9918
(dp9919
g3530
I3
ss(g1003
g7643
g7387
tp9920
(dp9921
g7388
I2
ss(g8008
g4101
g4102
tp9922
(dp9923
g4103
I2
ss(g1904
g1905
g1908
tp9924
(dp9925
g9134
I2
ss(g1023
g1026
g3427
tp9926
(dp9927
g3428
I2
ss(g3009
g3012
g5428
tp9928
(dp9929
g3319
I2
ss(g595
g596
S'a'
tp9930
(dp9931
g399
I2
ss(g2546
g2547
g2550
tp9932
(dp9933
g2101
I2
ss(g3569
g3570
g3573
tp9934
(dp9935
g3799
I2
ss(g4191
g4192
g4195
tp9936
(dp9937
g5701
I2
ss(S'i'
g5751
g4559
tp9938
(dp9939
S'i'
I2
ss(g3080
g7855
g8449
tp9940
(dp9941
g8450
I2
ss(g6044
g5330
g5331
tp9942
(dp9943
g4381
I2
ss(g7336
g1710
g1711
tp9944
(dp9945
g1712
I2
ss(g5956
g3119
g3120
tp9946
(dp9947
g3121
I2
ss(g3827
g3997
g4000
tp9948
(dp9949
g4133
I2
ss(g3700
g1579
g1580
tp9950
(dp9951
g1581
I2
ss(g2041
g1774
g1775
tp9952
(dp9953
g1776
I2
ss(g1265
g4347
g4350
tp9954
(dp9955
S'undiminished'
p9956
I2
ss(g6851
g6402
g4076
tp9957
(dp9958
g2258
I2
ss(g3089
g3090
S'i'
tp9959
(dp9960
g91
I2
ss(g5819
g2619
g2480
tp9961
(dp9962
g2481
I2
ss(g686
g1392
g4970
tp9963
(dp9964
g4971
I2
ss(g8719
g8720
g8723
tp9965
(dp9966
g7916
I2
ss(S'a'
g3624
g3627
tp9967
(dp9968
g8618
I2
ss(g3545
g3548
g4585
tp9969
(dp9970
g2555
I2
ss(g505
g508
g1363
tp9971
(dp9972
g1364
I2
ss(g5516
S'i'
g2643
tp9973
(dp9974
g2644
I2
ss(g7514
g2911
g2912
tp9975
(dp9976
g2913
I2
ss(g5806
g5807
g5810
tp9977
(dp9978
g6969
I2
ss(g955
S'a'
g2277
tp9979
(dp9980
g6732
I2
ss(g347
g348
g351
tp9981
(dp9982
g958
I2
ss(g5721
g4616
g4617
tp9983
(dp9984
g4618
I2
ss(g3480
g3481
g3484
tp9985
(dp9986
g3794
I2
ss(g3146
g3147
g3150
tp9987
(dp9988
g6488
I2
ss(g510
g511
g514
tp9989
(dp9990
g4010
I2
ss(g2615
g2618
g4958
tp9991
(dp9992
g4959
I2
ss(g630
g631
g634
tp9993
(dp9994
g1915
I2
ss(g2190
g2193
g4919
tp9995
(dp9996
g4920
I2
ss(g5355
g6121
g6124
tp9997
(dp9998
g6965
I2
ss(g3684
g3448
g3687
tp9999
(dp10000
g5322
I2
ss(g5024
g5027
g9917
tp10001
(dp10002
g3529
I2
ss(g5116
g5119
g1761
tp10003
(dp10004
g1762
I2
ss(g119
g6399
g346
tp10005
(dp10006
g347
I2
ss(g4695
g5037
g8128
tp10007
(dp10008
g8269
I2
ss(g3914
g4471
g4472
tp10009
(dp10010
g4473
I2
ss(g2787
g2790
g3965
tp10011
(dp10012
g4402
I2
ss(g2167
S'a'
g6274
tp10013
(dp10014
g3638
I2
ss(g6136
S'to'
p10015
S'be'
p10016
tp10017
(dp10018
g5244
I2
ss(g1289
g1290
g428
tp10019
(dp10020
g429
I2
ss(g5882
g5885
g6405
tp10021
(dp10022
g4899
I2
ss(g4286
g1556
g1557
tp10023
(dp10024
g1558
I2
ss(g1905
g1908
g9134
tp10025
(dp10026
g3437
I2
ss(g4119
g4122
g4579
tp10027
(dp10028
g3842
I2
ss(g1822
g1823
g1826
tp10029
(dp10030
g2194
I2
ss(g4735
g6252
g6253
tp10031
(dp10032
g6254
I2
ss(g6708
g1266
g1267
tp10033
(dp10034
g1268
I2
ss(g4002
g4003
g772
tp10035
(dp10036
g773
I3
ss(g5226
g5484
g4224
tp10037
(dp10038
S'a'
I2
ss(g80
g81
g84
tp10039
(dp10040
g2598
I2
ss(g5564
g5567
g5336
tp10041
(dp10042
g5337
I2
ss(g5327
g8228
g6928
tp10043
(dp10044
g6929
I2
ss(g8027
g8030
g6694
tp10045
(dp10046
g6335
I2
ss(g2049
g6517
g5528
tp10047
(dp10048
g5529
I2
ss(g8958
g6890
g5185
tp10049
(dp10050
S'a'
I2
ss(g665
g666
g669
tp10051
(dp10052
g340
I2
ss(g546
g547
g550
tp10053
(dp10054
g4962
I2
ss(g3674
S'i'
g3510
tp10055
(dp10056
g3511
I2
ss(g2061
g2064
g1157
tp10057
(dp10058
g1158
I2
ss(g4166
g4169
g6361
tp10059
(dp10060
g2710
I2
ss(g6072
g6075
g6874
tp10061
(dp10062
g3559
I2
ss(g4958
g4959
g934
tp10063
(dp10064
g935
I2
ss(g996
g999
S'i'
tp10065
(dp10066
g4211
I2
ss(g1005
S'i'
g1008
tp10067
(dp10068
g5392
I2
ss(g3735
g3736
g2558
tp10069
(dp10070
g2559
I2
ss(g6724
g2902
g2903
tp10071
(dp10072
g950
I2
ss(g1211
g1212
g1215
tp10073
(dp10074
g5909
I2
ss(g10016
g5244
g5245
tp10075
(dp10076
g5246
I2
ss(g6263
g6264
g5363
tp10077
(dp10078
g3386
I2
ss(g3282
S'i'
g6239
tp10079
(dp10080
g8908
I2
ss(g5563
g5564
g5567
tp10081
(dp10082
g5336
I2
ss(S'a'
g6234
g810
tp10083
(dp10084
g811
I2
ss(g3736
g2558
g2559
tp10085
(dp10086
g2560
I2
ss(g6912
g7144
g7931
tp10087
(dp10088
g7117
I2
ss(g2599
g2602
g6179
tp10089
(dp10090
g6180
I2
ss(g1191
g1192
g1195
tp10091
(dp10092
g2649
I2
ss(g610
g578
g579
tp10093
(dp10094
g580
I2
ss(g7054
g7055
g7058
tp10095
(dp10096
S'a'
I2
ss(g8074
g8077
g8605
tp10097
(dp10098
g8304
I2
ss(S'a'
g2371
g2374
tp10099
(dp10100
S'i'
I2
ss(g3383
g2528
g2529
tp10101
(dp10102
g2530
I2
ss(g4322
g5690
g5691
tp10103
(dp10104
g5692
I2
ss(g6570
g5434
g5435
tp10105
(dp10106
g5436
I2
ss(g2106
g3371
g6858
tp10107
(dp10108
g3044
I2
ss(g6803
g6804
g6588
tp10109
(dp10110
g6589
I2
ss(g7576
g4774
S'i'
tp10111
(dp10112
g4775
I2
ss(g5362
g9833
g2923
tp10113
(dp10114
g2924
I2
ss(g5888
g2409
g2410
tp10115
(dp10116
g2411
I2
ss(g299
g3867
g1591
tp10117
(dp10118
g784
I2
ss(S'i'
g3923
S'a'
tp10119
(dp10120
g2039
I2
ss(g5468
g5469
g5472
tp10121
(dp10122
g8797
I2
ss(g4103
g4106
g4564
tp10123
(dp10124
g4706
I2
ss(g2852
g7025
g8705
tp10125
(dp10126
g3934
I2
ss(g1671
g1672
S'a'
tp10127
(dp10128
g4155
I2
ss(g2139
g2140
g312
tp10129
(dp10130
g313
I2
ss(g2530
g2533
g3697
tp10131
(dp10132
g4342
I2
ss(g566
g4046
S'i'
tp10133
(dp10134
g4491
I2
ss(g7323
S'i'
g5751
tp10135
(dp10136
g4559
I2
ss(g4629
g4632
g6809
tp10137
(dp10138
g6810
I2
ss(g2338
g1281
S'a'
tp10139
(dp10140
g1282
I2
ss(g8723
g7916
g7513
tp10141
(dp10142
g7514
I2
ss(g2764
g641
g642
tp10143
(dp10144
g643
I2
ss(g5445
g3492
g3493
tp10145
(dp10146
g3494
I2
ss(g3503
g594
g595
tp10147
(dp10148
g596
I2
ss(g2479
g300
g301
tp10149
(dp10150
g302
I2
ss(g5983
g5986
g6453
tp10151
(dp10152
g6705
I2
ss(g4644
g4465
g4466
tp10153
(dp10154
g4467
I2
ss(g989
g4811
g4814
tp10155
(dp10156
g2462
I2
ss(g116
g119
g6399
tp10157
(dp10158
g346
I2
ss(g4658
g4659
g3056
tp10159
(dp10160
g3057
I2
ss(g2263
g1545
g1546
tp10161
(dp10162
g1547
I2
ss(g9069
g3001
g3002
tp10163
(dp10164
g3003
I2
ss(g4230
g4233
g6575
tp10165
(dp10166
g7724
I2
ss(g3062
g3063
g3066
tp10167
(dp10168
g5463
I2
ss(g5866
g5867
S'i'
tp10169
(dp10170
g3549
I2
ss(g436
g439
g4059
tp10171
(dp10172
g4060
I2
ss(S'i'
g2072
g2073
tp10173
(dp10174
g2074
I2
ss(g1404
g1405
g732
tp10175
(dp10176
g733
I2
ss(g2811
g2814
g2847
tp10177
(dp10178
g4848
I2
ss(g5989
g5992
g2219
tp10179
(dp10180
g2220
I2
ss(g2178
g2181
g3173
tp10181
(dp10182
g3174
I2
ss(g9917
g3529
g3530
tp10183
(dp10184
g3531
I2
sg2933
I2
sg689
I2
ss(g7701
g1034
g1035
tp10185
(dp10186
g1036
I2
ss(g3058
g3061
g3037
tp10187
(dp10188
g1704
I2
ss(g9500
g4882
g5280
tp10189
(dp10190
g2791
I2
ss(g2387
g2390
g1725
tp10191
(dp10192
g1726
I2
ss(g9430
g8800
g97
tp10193
(dp10194
g98
I2
ss(g37
g40
g74
tp10195
(dp10196
g75
I2
ss(g4003
g772
g773
tp10197
(dp10198
g774
I2
sg2717
I2
ss(S'i'
g8808
g7574
tp10199
(dp10200
g7575
I2
ss(g224
g225
g228
tp10201
(dp10202
g2111
I2
ss(g3138
g7701
g1034
tp10203
(dp10204
g1035
I2
ss(g6705
g6708
g1266
tp10205
(dp10206
g1267
I2
ss(g4720
g4721
g3770
tp10207
(dp10208
g3185
I3
ss(g8331
g7679
g7680
tp10209
(dp10210
g3741
I2
ss(g7991
g8461
g8544
tp10211
(dp10212
g8545
I2
ss(g6228
g1009
g1010
tp10213
(dp10214
g1011
I2
ss(g1845
g1846
g1849
tp10215
(dp10216
g3243
I2
ss(g504
g505
g508
tp10217
(dp10218
g1363
I2
ss(g3847
g1993
g6723
tp10219
(dp10220
g6724
I2
ss(g2598
g2599
g2602
tp10221
(dp10222
g6179
I2
ss(g5495
g4421
g4422
tp10223
(dp10224
g1408
I2
ss(g1802
g5838
g5839
tp10225
(dp10226
g5840
I2
ss(g9652
g4523
S'a'
tp10227
(dp10228
g4524
I2
ss(g5100
g6086
g5413
tp10229
(dp10230
g4946
I2
ss(g7575
g7576
g4774
tp10231
(dp10232
S'i'
I2
ss(g5041
g5042
g3264
tp10233
(dp10234
g3265
I2
ss(g6254
g6257
g4749
tp10235
(dp10236
g4750
I2
ss(g6147
g1803
g1804
tp10237
(dp10238
g1805
I2
ss(g5535
g868
g869
tp10239
(dp10240
g870
I2
ss(g3231
g3232
g3235
tp10241
(dp10242
g3346
I2
ss(g3742
g3743
g3746
tp10243
(dp10244
g7218
I2
ss(g3115
g3116
g2003
tp10245
(dp10246
g2004
I2
ss(g7131
g2162
g2163
tp10247
(dp10248
g2164
I2
ss(g2157
g2158
g2161
tp10249
(dp10250
g1393
I2
ss(g1618
g1621
g3644
tp10251
(dp10252
g3645
I2
ss(g3604
g3605
g3608
tp10253
(dp10254
g3651
I2
ss(g64
g67
g5928
tp10255
(dp10256
g5929
I2
ss(g2314
S'i'
g2998
tp10257
(dp10258
g515
I2
ss(g469
g472
g4181
tp10259
(dp10260
g8958
I2
ss(g2317
g2320
g7654
tp10261
(dp10262
S'want'
p10263
I2
ss(g3986
g5830
g5833
tp10264
(dp10265
g8742
I2
ss(g1537
g1540
g3197
tp10266
(dp10267
g3198
I2
ss(g7478
g7481
g7182
tp10268
(dp10269
g7183
I2
ss(g3611
g3614
g8469
tp10270
(dp10271
g9625
I2
ss(g3661
g3987
g2853
tp10272
(dp10273
g2854
I2
ss(g2055
g3108
g3111
tp10274
(dp10275
g7885
I2
ss(g4124
g4125
g4128
tp10276
(dp10277
g4146
I2
ss(g4148
g4151
g1692
tp10278
(dp10279
g1693
I2
ss(g520
g6790
g6791
tp10280
(dp10281
g6792
I2
ss(g6092
S'i'
g6095
tp10282
(dp10283
g9661
I2
ss(g8065
g8068
g5981
tp10284
(dp10285
g5982
I2
ss(g1606
g1609
g5376
tp10286
(dp10287
g3325
I2
ss(g463
g466
g5669
tp10288
(dp10289
g2613
I2
ss(S'i'
g8399
g1970
tp10290
(dp10291
g7083
I2
sg1315
I2
ss(g54
S'a'
g2876
tp10292
(dp10293
g2877
I2
ss(g2163
g2164
g2167
tp10294
(dp10295
S'a'
I2
ss(g7301
g4999
g4096
tp10296
(dp10297
g4097
I2
ss(g5621
g5624
g3112
tp10298
(dp10299
g2917
I2
ss(g2849
g2852
g7025
tp10300
(dp10301
g8705
I2
ss(g6115
g6118
g8041
tp10302
(dp10303
S'first'
p10304
I2
ss(g34
g1497
g1500
tp10305
(dp10306
g1990
I2
ss(g1069
g6762
g1736
tp10307
(dp10308
g1737
I2
ss(g721
g4503
g1330
tp10309
(dp10310
g1331
I2
ss(g3025
g3028
g7068
tp10311
(dp10312
g1883
I2
ss(g1595
g1596
g1599
tp10313
(dp10314
g3163
I2
ss(g2420
g2423
S'a'
tp10315
(dp10316
g817
I2
ss(g1846
g1849
g3243
tp10317
(dp10318
g3244
I2
ss(g1050
g7048
g7049
tp10319
(dp10320
g7050
I2
ss(g1011
g1014
g6300
tp10321
(dp10322
g7599
I2
ss(g1172
g1175
g2206
tp10323
(dp10324
g2207
I2
ss(g3885
g247
g248
tp10325
(dp10326
g249
I2
ss(g2498
g2499
S'a'
tp10327
(dp10328
g1604
I2
ss(g1541
g1544
g1186
tp10329
(dp10330
g1187
I2
ss(g4873
g4876
g6469
tp10331
(dp10332
g6470
I2
ss(g2712
g2715
g5903
tp10333
(dp10334
g2590
I3
sg10016
I2
sg5904
I3
ss(g3588
g3589
g203
tp10335
(dp10336
S'i'
I2
ss(S'i'
g64
g67
tp10337
(dp10338
g5928
I2
ss(g4426
S'i'
g8286
tp10339
(dp10340
g1004
I2
ss(g1163
g5130
g5133
tp10341
(dp10342
g5220
I2
ss(g6308
g6311
g6647
tp10343
(dp10344
g7336
I2
ss(g4814
g2462
g2463
tp10345
(dp10346
g2464
I2
ss(g429
g430
g433
tp10347
(dp10348
g8058
I2
ss(g5052
g4429
g4430
tp10349
(dp10350
g4431
I2
ss(g528
g529
g532
tp10351
(dp10352
g4325
I2
ss(g8180
g5405
g2590
tp10353
(dp10354
g2317
I2
sg5782
I2
sg7903
I2
sg2591
I2
ss(g4092
g4095
g5084
tp10355
(dp10356
g6831
I2
ss(g104
g107
g497
tp10357
(dp10358
g498
I2
ss(g4957
S'i'
g2781
tp10359
(dp10360
g2782
I2
ss(g8618
S'a'
g6061
tp10361
(dp10362
g6062
I2
ss(g854
g857
g3238
tp10363
(dp10364
g6570
I2
ss(S'a'
g6382
S'i'
tp10365
(dp10366
S'saw'
p10367
I2
ss(g6264
g5363
g3386
tp10368
(dp10369
g3387
I2
ss(g4609
g4612
g8145
tp10370
(dp10371
g1231
I2
ss(g1908
g9134
g3437
tp10372
(dp10373
g3438
I2
ss(g4219
g4220
g4223
tp10374
(dp10375
g4137
I2
sg7951
I2
ss(g2116
S'i'
g6303
tp10376
(dp10377
g8054
I2
ss(g230
g231
g234
tp10378
(dp10379
g7263
I2
ss(g4050
g545
g546
tp10380
(dp10381
g547
I2
ss(g2035
g2038
g2314
tp10382
(dp10383
S'i'
I2
ss(g2392
g2393
g2396
tp10384
(dp10385
g5872
I2
ss(g187
g190
g5050
tp10386
(dp10387
g7484
I2
ss(g168
g169
g172
tp10388
(dp10389
g8026
I2
ss(g6589
g6590
g6593
tp10390
(dp10391
g4642
I2
ss(g6493
g6496
g9069
tp10392
(dp10393
g3001
I2
ss(g568
S'a'
g571
tp10394
(dp10395
g2026
I2
ss(S'a'
g1884
g1887
tp10396
(dp10397
g1303
I2
ss(g3691
g3694
g6215
tp10398
(dp10399
g6216
I2
ss(g2090
g2091
g2094
tp10400
(dp10401
g4259
I2
ss(g4678
g4679
g4682
tp10402
(dp10403
g6092
I2
ss(g2775
g2778
g7596
tp10404
(dp10405
g7862
I2
ss(S'i'
g10367
g8665
tp10406
(dp10407
g994
I2
ss(g637
g640
g5045
tp10408
(dp10409
g2156
I2
ss(g5249
g5250
g5253
tp10410
(dp10411
g3888
I2
ss(g2144
g2147
g4951
tp10412
(dp10413
g6576
I2
ss(g5029
g5030
g3939
tp10414
(dp10415
g3940
I2
ss(g47
g48
g51
tp10416
(dp10417
g1326
I4
ss(g5792
g3227
g1357
tp10418
(dp10419
g1358
I2
ss(g2818
g599
g600
tp10420
(dp10421
g601
I2
ss(S'i'
g8
g9
tp10422
(dp10423
g10
I2
ss(g800
g6633
g6634
tp10424
(dp10425
g6635
I2
ss(g6194
g6195
S'a'
tp10426
(dp10427
g2795
I2
sg1255
I2
ss(g841
g842
g845
tp10428
(dp10429
g2898
I2
ss(g6057
g6060
g4843
tp10430
(dp10431
g3623
I2
sg836
I2
ss(g9625
g3196
g7150
tp10432
(dp10433
g7000
I2
ss(g4000
g4133
g4136
tp10434
(dp10435
S'i'
I2
ss(g4811
g4814
g2462
tp10436
(dp10437
g2463
I2
ss(g6618
S'i'
g6621
tp10438
(dp10439
g5813
I2
ss(g516
g517
g520
tp10440
(dp10441
g6790
I2
ss(g965
g968
g7630
tp10442
(dp10443
g3760
I2
ss(S'i'
g6239
g8908
tp10444
(dp10445
g8909
I2
ss(g1557
g1558
g1561
tp10446
(dp10447
g3353
I2
ss(g3293
g3296
g2704
tp10448
(dp10449
g2705
I2
ss(g234
g7263
g7266
tp10450
(dp10451
g4294
I2
ss(g1780
g1781
g1785
tp10452
(dp10453
g2174
I2
ss(g296
g299
g3867
tp10454
(dp10455
g1591
I2
ss(g869
g870
g873
tp10456
(dp10457
g1508
I2
ss(g457
g460
g6630
tp10458
(dp10459
g1953
I2
ss(g8069
g126
g127
tp10460
(dp10461
g128
I2
ss(g774
g777
g8437
tp10462
(dp10463
g8438
I2
ss(g3752
g5504
g6033
tp10464
(dp10465
g6034
I2
ss(S'write'
p10466
S'his'
p10467
g9237
tp10468
(dp10469
g4182
I2
sg8951
I2
ss(g4199
g4200
S'i'
tp10470
(dp10471
g8808
I2
ss(g4697
g4700
S'a'
tp10472
(dp10473
g6803
I2
ss(S'i'
g366
g369
tp10474
(dp10475
g8905
I2
ss(g3521
g3524
g5776
tp10476
(dp10477
g3050
I2
ss(g3269
g7633
g7634
tp10478
(dp10479
g7635
I2
ss(g5245
g5246
g3698
tp10480
(dp10481
g3699
I2
ss(g2350
g6160
g6163
tp10482
(dp10483
S'a'
I2
ss(g5659
S'i'
g5662
tp10484
(dp10485
g1309
I2
ss(g2359
g2362
g1658
tp10486
(dp10487
g1659
I2
ss(g651
g1769
S'i'
tp10488
(dp10489
g5999
I2
ss(g3336
g7934
g7937
tp10490
(dp10491
g5011
I2
ss(g4817
g4820
g3688
tp10492
(dp10493
g2153
I2
ss(g7737
g3971
g588
tp10494
(dp10495
g589
I2
ss(g7
g1784
g8700
tp10496
(dp10497
g2426
I2
ss(g7630
g3760
g3761
tp10498
(dp10499
S'i'
I2
ss(g5723
g5726
g6664
tp10500
(dp10501
g6665
I2
ss(g3719
g1070
g1071
tp10502
(dp10503
g1072
I2
ss(g8094
g6227
g6228
tp10504
(dp10505
g1009
I2
ss(g905
g6562
g6899
tp10506
(dp10507
g7131
I2
ss(g7769
g1076
g1077
tp10508
(dp10509
S'i'
I2
ss(g4612
g8145
g1231
tp10510
(dp10511
g1232
I2
ss(g8374
g5625
g5626
tp10512
(dp10513
g5627
I2
ss(g3927
g3930
g6410
tp10514
(dp10515
S'a'
I2
ss(g3903
g4448
g3525
tp10516
(dp10517
S''
I2
ss(g7988
g7991
g8461
tp10518
(dp10519
g8544
I2
ss(g7218
g7219
g7222
tp10520
(dp10521
g6746
I2
ss(g1135
g1136
g1139
tp10522
(dp10523
g5659
I2
ss(g8347
g1238
g1239
tp10524
(dp10525
g1240
I2
ss(g152
g155
g1121
tp10526
(dp10527
g3675
I2
ss(g7866
g4500
g1420
tp10528
(dp10529
g1421
I2
ss(g1359
g1362
g3032
tp10530
(dp10531
g2343
I2
sg5116
I2
sg505
I2
sg3033
I2
sg4764
I2
ss(g6326
S'i'
g1196
tp10532
(dp10533
g1197
I2
ss(g3390
g5612
g2363
tp10534
(dp10535
g2364
I2
ss(g7157
g8969
g5169
tp10536
(dp10537
g5170
I2
ss(g3810
g3811
g3814
tp10538
(dp10539
g6800
I2
ss(g6496
g9069
g3001
tp10540
(dp10541
g3002
I2
ss(g5342
g778
g779
tp10542
(dp10543
g780
I2
ss(g1035
g1036
g1039
tp10544
(dp10545
g1639
I2
ss(g5186
g722
g723
tp10546
(dp10547
g724
I2
ss(g7863
g7866
g4500
tp10548
(dp10549
g1420
I2
ss(g5084
g6831
g6834
tp10550
(dp10551
g7769
I2
ss(g4575
g4578
g7067
tp10552
(dp10553
g1095
I2
ss(g6138
g3074
g3075
tp10554
(dp10555
g2050
I2
ss(g7785
g8420
g4036
tp10556
(dp10557
g4037
I2
ss(g5861
g5864
g1627
tp10558
(dp10559
g1628
I2
ss(S'i'
g6621
g5813
tp10560
(dp10561
g5814
I2
ss(g6121
g6124
g6965
tp10562
(dp10563
g6966
I2
ss(g3542
g3179
g3180
tp10564
(dp10565
g3181
I2
ss(g3186
g3187
g3190
tp10566
(dp10567
S'was'
p10568
I2
ss(g8325
g6099
g6100
tp10569
(dp10570
g6101
I2
ss(g2772
g2569
g6454
tp10571
(dp10572
g6455
I2
ss(g2194
g2197
g3617
tp10573
(dp10574
g6509
I2
ss(g7665
g7668
S'i'
tp10575
(dp10576
g1492
I2
ss(S'i'
g1399
g1402
tp10577
(dp10578
g7762
I2
ss(g295
g296
g299
tp10579
(dp10580
g3867
I2
ss(g3765
g3766
g3769
tp10581
(dp10582
g8074
I2
ss(g1941
g5535
g868
tp10583
(dp10584
g869
I2
ss(g6330
g1103
g1104
tp10585
(dp10586
g1105
I2
ss(g5404
g4520
g3151
tp10587
(dp10588
g3152
I2
ss(g5273
g2397
g2398
tp10589
(dp10590
g2399
I2
ss(g4685
g5285
g2870
tp10591
(dp10592
g2871
I2
ss(g1267
g1268
g1271
tp10593
(dp10594
g4677
I2
ss(g3278
g3279
g3282
tp10595
(dp10596
S'i'
I2
ss(g433
g8058
g6689
tp10597
(dp10598
g4437
I2
ss(g9593
g4665
g185
tp10599
(dp10600
g186
I2
sg5520
I2
sg2427
I2
ss(g8150
g9493
g3256
tp10601
(dp10602
g3257
I2
ss(S'i'
g3422
g1286
tp10603
(dp10604
g692
I2
ss(S'i'
g3080
g7855
tp10605
(dp10606
g8449
I2
ss(g6456
g6459
g3372
tp10607
(dp10608
g1894
I2
ss(g4058
g4609
g4612
tp10609
(dp10610
g8145
I2
ss(g5466
g7782
g7785
tp10611
(dp10612
g8420
I2
ss(g7353
g3966
S'a'
tp10613
(dp10614
g3967
I2
ss(g6755
g5576
g138
tp10615
(dp10616
g139
I2
ss(g2051
g2052
g2055
tp10617
(dp10618
g3108
I2
ss(g4186
g4187
g888
tp10619
(dp10620
g889
I2
ss(g5970
g6742
g6745
tp10621
(dp10622
g6356
I2
ss(g1811
g1814
g5848
tp10623
(dp10624
g5849
I2
ss(g4758
g4759
g4741
tp10625
(dp10626
g4368
I2
ss(g3573
g3799
g3800
tp10627
(dp10628
g144
I2
ss(g6722
g7569
g8780
tp10629
(dp10630
g7689
I2
ss(g981
g924
g925
tp10631
(dp10632
S'a'
I2
ss(g1395
S'i'
g8464
tp10633
(dp10634
g4494
I2
ss(g5519
g7367
g4049
tp10635
(dp10636
g4050
I2
ss(g4029
g1045
g1046
tp10637
(dp10638
g1047
I2
ss(g715
g3992
g2033
tp10639
(dp10640
g2034
I2
ss(S'a'
g2973
g5586
tp10641
(dp10642
S'i'
I2
ss(g5280
g2791
g2792
tp10643
(dp10644
g2570
I2
ss(g2210
g4834
g4837
tp10645
(dp10646
g7054
I2
ss(g5018
g5021
g2341
tp10647
(dp10648
g2342
I2
ss(g3165
g3168
g1015
tp10649
(dp10650
g1016
I2
ss(g2749
g6900
g6903
tp10651
(dp10652
g6626
I2
ss(g3682
g4519
g9397
tp10653
(dp10654
g9702
I2
ss(g7500
g4657
g4658
tp10655
(dp10656
g4659
I2
ss(g272
g275
g6112
tp10657
(dp10658
g7145
I2
ss(g6874
g3559
g3560
tp10659
(dp10660
g3561
I2
ss(g3909
g3933
g5373
tp10661
(dp10662
g114
I2
ss(g1887
g1303
g1304
tp10663
(dp10664
g1305
I2
ss(g20
g21
g24
tp10665
(dp10666
g3127
I2
ss(g4456
g4457
g4460
tp10667
(dp10668
g6066
I2
ss(g2332
g5765
g4176
tp10669
(dp10670
g3067
I2
ss(g3448
g3687
g5322
tp10671
(dp10672
g5323
I2
ss(g1127
g2861
g2862
tp10673
(dp10674
S'a'
I2
ss(g8399
g1970
g1315
tp10675
(dp10676
g1316
I2
ss(g7855
g8449
g8450
tp10677
(dp10678
g6016
I2
ss(g5829
g7478
g7481
tp10679
(dp10680
g7182
I2
ss(g535
g538
g6505
tp10681
(dp10682
g8291
I2
ss(g6382
S'i'
g10367
tp10683
(dp10684
g8665
I2
ss(g5955
g5956
g3119
tp10685
(dp10686
g3120
I2
ss(g1065
g4582
g6618
tp10687
(dp10688
S'i'
I2
sg5294
I2
ss(g613
g616
g9592
tp10689
(dp10690
g9593
I2
ss(g10367
g8665
g994
tp10691
(dp10692
g995
I2
ss(g9833
g2923
g2924
tp10693
(dp10694
g1985
I2
ss(g6066
g6067
S'a'
tp10695
(dp10696
g6437
I2
ss(g6459
g3372
g1894
tp10697
(dp10698
g823
I2
ss(g7035
g7036
g7039
tp10699
(dp10700
S'wife'
p10701
I2
ss(g9702
g2502
g2503
tp10702
(dp10703
g46
I2
ss(g4248
g1679
g1680
tp10704
(dp10705
g1681
I2
ss(g3464
g2008
g2009
tp10706
(dp10707
g2010
I2
ss(g430
g433
g8058
tp10708
(dp10709
g6689
I2
ss(g4200
S'i'
g8808
tp10710
(dp10711
g7574
I2
ss(g2292
g2754
g2299
tp10712
(dp10713
g2300
I2
ss(g472
g4181
g8958
tp10714
(dp10715
g6890
I2
ss(g1290
g428
g429
tp10716
(dp10717
g430
I2
ss(g8005
g8008
g4101
tp10718
(dp10719
g4102
I2
ss(g2934
g2937
S'i'
tp10720
(dp10721
g2014
I2
ss(g1952
g2017
g2018
tp10722
(dp10723
g2019
I2
ss(g8894
g5549
g473
tp10724
(dp10725
g474
I2
ss(g4499
g7821
g1134
tp10726
(dp10727
g1135
I2
ss(g9230
g9500
g4882
tp10728
(dp10729
g5280
I2
ss(g3134
g3135
g3138
tp10730
(dp10731
g7701
I2
ss(g2808
g1425
g1426
tp10732
(dp10733
g1427
I2
ss(g6173
g6176
g7593
tp10734
(dp10735
g3803
I2
ss(g8720
g8723
g7916
tp10736
(dp10737
g7513
I2
ss(g5542
g7301
g4999
tp10738
(dp10739
g4096
I2
ss(g5669
g2613
g2614
tp10740
(dp10741
g2615
I2
ss(g6745
g6356
g5487
tp10742
(dp10743
g2872
I2
sg5479
I2
ss(g498
g499
g502
tp10744
(dp10745
g6353
I2
ss(g6648
g5090
g5091
tp10746
(dp10747
g5092
I2
ss(g7067
g1095
g173
tp10748
(dp10749
g174
I2
ss(g4923
g4152
g3788
tp10750
(dp10751
g3789
I2
ss(g5023
g5024
g5027
tp10752
(dp10753
g9917
I2
ss(g3432
g3433
g3436
tp10754
(dp10755
g4571
I2
ss(g6112
g7145
S'i'
tp10756
(dp10757
g2072
I2
ss(g5318
g5321
g6995
tp10758
(dp10759
g7540
I2
ss(S'i'
g2818
g599
tp10760
(dp10761
g600
I2
ss(g4654
g2492
g2493
tp10762
(dp10763
g2494
I2
ss(g1546
g1547
g1550
tp10764
(dp10765
g2289
I2
ss(g301
g302
g305
tp10766
(dp10767
g1066
I2
ss(g6866
g6869
g10466
tp10768
(dp10769
g10467
I2
ss(S'i'
g2535
g2538
tp10770
(dp10771
g5643
I2
ss(S'a'
g45
g4236
tp10772
(dp10773
g4237
I2
ss(g3051
g3052
g3055
tp10774
(dp10775
g9686
I2
ss(g8908
g8909
g8912
tp10776
(dp10777
g9652
I2
ss(g879
S'a'
g30
tp10778
(dp10779
g31
I2
ss(g5620
g5621
g5624
tp10780
(dp10781
g3112
I2
ss(g2411
g2414
g3656
tp10782
(dp10783
g3657
I2
ss(g4220
g4223
g7951
tp10784
(dp10785
g7952
I2
ss(g1224
g1654
g1657
tp10786
(dp10787
g2346
I2
ss(g320
g324
g4668
tp10788
(dp10789
g4669
I2
ss(g4318
g4319
g4322
tp10790
(dp10791
g5690
I2
ss(g7364
g8325
g6099
tp10792
(dp10793
g6100
I2
ss(g2822
g2825
g7790
tp10794
(dp10795
g5467
I2
ss(g600
g601
g604
tp10796
(dp10797
S'i'
I2
ss(g1603
g6039
g6040
tp10798
(dp10799
g6041
I2
ss(g3687
g5322
g5323
tp10800
(dp10801
g5324
I2
ss(g2560
g2563
g4539
tp10802
(dp10803
g4540
I2
ss(g10467
g9237
g8951
tp10804
(dp10805
g5987
I2
ss(g484
g2740
g2743
tp10806
(dp10807
g3356
I2
ss(g7125
g4256
g2890
tp10808
(dp10809
g2891
I2
ss(g8026
g8027
g8030
tp10810
(dp10811
g6694
I2
ss(g809
g5744
g6983
tp10812
(dp10813
g8069
I2
ss(g1148
g1151
g4281
tp10814
(dp10815
g4282
I2
ss(g678
g681
g2090
tp10816
(dp10817
g2091
I2
ss(g1938
g1941
g5535
tp10818
(dp10819
g868
I2
ss(g4013
g4479
g1947
tp10820
(dp10821
g1948
I2
ss(g935
g936
g939
tp10822
(dp10823
g4758
I2
ss(g386
g3393
g3715
tp10824
(dp10825
g3716
I2
ss(g3727
g3728
g3731
tp10826
(dp10827
g1909
I2
ss(g978
g7445
g2692
tp10828
(dp10829
g2693
I2
ss(g1792
g1793
g1796
tp10830
(dp10831
g1594
I2
sg2603
I2
ss(g1430
g2525
g1339
tp10832
(dp10833
g1340
I2
ss(g5299
g5300
g5303
tp10834
(dp10835
g6312
I2
ss(g2211
g2212
g2215
tp10836
(dp10837
g7312
I2
ss(g9661
S'i'
g337
tp10838
(dp10839
g276
I2
ss(g5290
g7356
g8150
tp10840
(dp10841
g9493
I2
ss(g583
g1000
g1003
tp10842
(dp10843
g7643
I2
ss(g1724
g2566
S'a'
tp10844
(dp10845
g5165
I2
ss(g246
g5787
g132
tp10846
(dp10847
g133
I2
ss(g3617
g6509
g6510
tp10848
(dp10849
g6511
I2
ss(g6149
g4768
g4769
tp10850
(dp10851
g4770
I2
ss(S'a'
g7665
g7668
tp10852
(dp10853
S'i'
I2
ss(g8969
g5169
g5170
tp10854
(dp10855
g5171
I2
ss(g3150
g6488
g6489
tp10856
(dp10857
g6490
I2
ss(g5152
g7382
g6055
tp10858
(dp10859
g6056
I2
ss(g4392
g4084
g4085
tp10860
(dp10861
g4086
I2
ss(g7225
g3576
g3577
tp10862
(dp10863
g3578
I2
ss(g1927
g1930
g2405
tp10864
(dp10865
g2406
I2
ss(g6063
g3145
g3146
tp10866
(dp10867
g3147
I2
ss(S'a'
g2876
g2877
tp10868
(dp10869
g270
I2
ss(S'a'
g4838
g4839
tp10870
(dp10871
g4840
I2
ss(g8837
g5554
g5555
tp10872
(dp10873
g1170
I2
ss(g5513
g5516
S'i'
tp10874
(dp10875
g2643
I2
ss(S'i'
g6095
g9661
tp10876
(dp10877
S'i'
I2
ss(g6375
g6376
g6379
tp10878
(dp10879
g411
I2
ss(g4643
g4644
g4465
tp10880
(dp10881
g4466
I2
ss(g3332
g3333
g3336
tp10882
(dp10883
g7934
I2
ss(g7356
g8150
g9493
tp10884
(dp10885
g3256
I2
ss(g2670
g8718
g8719
tp10886
(dp10887
g8720
I2
ss(g3624
g3627
g8618
tp10888
(dp10889
S'a'
I2
ss(g5262
g5727
g5730
tp10890
(dp10891
g5844
I2
ss(g10701
g9904
g323
tp10892
(dp10893
g3062
I2
ss(g427
g6702
g5913
tp10894
(dp10895
g3809
I2
ss(g5196
g5199
g9183
tp10896
(dp10897
g8334
I2
ss(g137
g7157
g8969
tp10898
(dp10899
g5169
I2
ss(S'i'
g892
g7406
tp10900
(dp10901
g5511
I2
ss(g4151
g1692
g1693
tp10902
(dp10903
g1694
I2
ss(g672
g675
g3210
tp10904
(dp10905
g3211
I2
ss(g4337
g4338
g4341
tp10906
(dp10907
g4627
I2
ss(g5012
g5013
g5016
tp10908
(dp10909
g5450
I2
ss(g6858
g3044
g3045
tp10910
(dp10911
g3046
I2
ss(g2026
g1731
g1732
tp10912
(dp10913
g1733
I2
ss(g180
g181
g184
tp10914
(dp10915
g5674
I2
ss(g8921
g1688
g1689
tp10916
(dp10917
g229
I2
ss(S'i'
g6840
g6843
tp10918
(dp10919
g7161
I2
ss(g5538
g5539
g5542
tp10920
(dp10921
g7301
I2
ss(g3923
S'a'
g2039
tp10922
(dp10923
g2040
I2
ss(g7952
g2582
g2583
tp10924
(dp10925
g2584
I2
ss(g7049
g7050
g7053
tp10926
(dp10927
g9430
I2
ss(g6800
g5105
g5106
tp10928
(dp10929
g4500
I2
sg5107
I2
ss(g4963
g423
g424
tp10930
(dp10931
S'i'
I2
ss(g3648
g5040
g3654
tp10932
(dp10933
g5149
I2
ss(g7931
g7117
g7118
tp10934
(dp10935
g2095
I2
ss(g4283
g4286
g1556
tp10936
(dp10937
g1557
I2
ss(g1943
g1946
g974
tp10938
(dp10939
g975
I2
ss(g1963
g6605
g5756
tp10940
(dp10941
g5757
I2
ss(g3330
S's'
g4696
tp10942
(dp10943
g4697
I2
ss(g3850
g1751
g1752
tp10944
(dp10945
g1753
I2
ss(g7951
g7952
g2582
tp10946
(dp10947
g2583
I2
ss(g3313
g3316
g5191
tp10948
(dp10949
g7734
I2
ss(S'i'
g1492
g1493
tp10950
(dp10951
g1494
I2
ss(g6964
g8097
g8244
tp10952
(dp10953
g3747
I2
ss(g6903
g6626
g6627
tp10954
(dp10955
g5124
I2
ss(g207
g1029
S'a'
tp10956
(dp10957
g647
I2
ss(g1039
g1639
g1642
tp10958
(dp10959
g5134
I2
ss(g7013
g5005
g5006
tp10960
(dp10961
g5007
I2
ss(g1052
g1053
g1056
tp10962
(dp10963
g3349
I2
ss(g30
g31
g34
tp10964
(dp10965
g1497
I2
ss(g1718
g1461
g1462
tp10966
(dp10967
g1463
I2
ss(S'i'
g3943
g7754
tp10968
(dp10969
g2357
I2
ss(g5312
g5313
g5316
tp10970
(dp10971
g5342
I2
ss(g5781
S'a'
g5421
tp10972
(dp10973
g1483
I2
ss(g215
g216
g219
tp10974
(dp10975
g8517
I2
ss(g3303
g52
g53
tp10976
(dp10977
g54
I2
ss(g1814
g5848
g5849
tp10978
(dp10979
g5850
I2
ss(g3494
g1585
g1586
tp10980
(dp10981
g1587
I2
ss(g3359
g6866
g6869
tp10982
(dp10983
g10466
I2
ss(g4621
S'i'
g4926
tp10984
(dp10985
g4927
I2
ss(g392
g5893
g3375
tp10986
(dp10987
g3376
I2
ss(g2924
g1985
g1986
tp10988
(dp10989
g1987
I2
ss(g4215
g3306
g3307
tp10990
(dp10991
g3308
I2
ss(g4484
g4485
g4488
tp10992
(dp10993
g5115
I2
ss(g2431
g2432
g2435
tp10994
(dp10995
g3670
I2
ss(g6869
g10466
g10467
tp10996
(dp10997
g9237
I3
ss(g4335
g8807
g3879
tp10998
(dp10999
g3880
I2
ss(S'i'
g797
g800
tp11000
(dp11001
g6633
I2
ss(g5722
g5723
g5726
tp11002
(dp11003
g6664
I2
ss(g6303
g8054
g8057
tp11004
(dp11005
g3274
I2
ss(g10015
g10016
g5244
tp11006
(dp11007
g5245
I2
ss(g7635
g4952
g4953
tp11008
(dp11009
g4954
I2
ss(g4425
g4426
S'i'
tp11010
(dp11011
g8286
I2
ss(g5830
g5833
g8742
tp11012
(dp11013
g4170
I2
ss(g5079
g5051
g5052
tp11014
(dp11015
g4429
I2
ss(g5512
g5513
g5516
tp11016
(dp11017
S'i'
I2
ss(g7031
g5950
g5951
tp11018
(dp11019
g2821
I2
ss(g1817
g1820
g3830
tp11020
(dp11021
g4229
I2
sg3481
I2
ss(g5924
S'a'
g5927
tp11022
(dp11023
g846
I2
ss(g7184
g7187
g6442
tp11024
(dp11025
g6443
I2
ss(S'a'
g2520
g2521
tp11026
(dp11027
g2522
I2
ss(g4325
g4326
g4329
tp11028
(dp11029
g4622
I2
ss(g2727
g2728
g2731
tp11030
(dp11031
g4545
I2
ss(g8057
g3274
g1937
tp11032
(dp11033
S'i'
I2
ss(g2800
g5882
g5885
tp11034
(dp11035
g6405
I2
ss(g1147
g1148
g1151
tp11036
(dp11037
g4281
I2
ss(g5757
g5758
g2451
tp11038
(dp11039
g2452
I2
ss(g3857
g2084
g2085
tp11040
(dp11041
g2086
I2
ss(g5707
g5710
g3594
tp11042
(dp11043
g3595
I2
ss(g7724
g7727
g3904
tp11044
(dp11045
g3905
I2
ss(g5239
g737
g738
tp11046
(dp11047
g739
I2
ss(g6163
S'a'
g7096
tp11048
(dp11049
g7097
I2
ss(g5864
g1627
g1628
tp11050
(dp11051
g1629
I2
ss(g8128
g8269
S'i'
tp11052
(dp11053
g2927
I2
ss(g2402
S'a'
g2520
tp11054
(dp11055
g2521
I2
ss(g6723
g6724
g2902
tp11056
(dp11057
g2903
I2
ss(g8909
g8912
g9652
tp11058
(dp11059
g4523
I2
ss(g1473
S'i'
g1476
tp11060
(dp11061
g3455
I2
ss(g3055
g9686
g9689
tp11062
(dp11063
g6670
I2
ss(g209
g210
g213
tp11064
(dp11065
g2995
I2
ss(g1261
g1262
g1265
tp11066
(dp11067
g4347
I2
ss.